 sqlclient

 Timestamp is 5b4fec4d (Wed Jul 18 18:41:33 2018)

 Preferred load address is 0000000180000000

 Start         Length     Name                   Class
 0001:00000000 00000410H .text$di                CODE
 0001:00000410 0005e430H .text$mn                CODE
 0001:0005e840 00000020H .text$mn$00             CODE
 0001:0005e860 00000390H .text$x                 CODE
 0001:0005ebf0 00000403H .text$yd                CODE
 0002:00000000 000004c8H .idata$5                DATA
 0002:000004c8 00000010H .00cfg                  DATA
 0002:000004d8 00000008H .CRT$XCA                DATA
 0002:000004e0 00000210H .CRT$XCU                DATA
 0002:000006f0 00000008H .CRT$XCZ                DATA
 0002:000006f8 00000008H .CRT$XIA                DATA
 0002:00000700 00000020H .CRT$XIC                DATA
 0002:00000720 00000008H .CRT$XIZ                DATA
 0002:00000728 00000008H .CRT$XPA                DATA
 0002:00000730 00000010H .CRT$XPX                DATA
 0002:00000740 00000008H .CRT$XPXA               DATA
 0002:00000748 00000008H .CRT$XPZ                DATA
 0002:00000750 00000008H .CRT$XTA                DATA
 0002:00000758 00000008H .CRT$XTZ                DATA
 0002:00000760 00281550H .rdata                  DATA
 0002:00281cb0 000001f4H .rdata$r                DATA
 0002:00281ea4 0000040cH .rdata$zzzdbg           DATA
 0002:002822b0 00000008H .rtc$IAA                DATA
 0002:002822b8 00000008H .rtc$IZZ                DATA
 0002:002822c0 00000008H .rtc$TAA                DATA
 0002:002822c8 00000008H .rtc$TZZ                DATA
 0002:002822d0 00004f10H .xdata                  DATA
 0002:002871e0 000000ecH .xdata$x                DATA
 0002:002872cc 00000020H .didat$2                DATA
 0002:002872ec 00000024H .didat$3                DATA
 0002:00287310 000001f8H .didat$4                DATA
 0002:00287508 00000f88H .didat$6                DATA
 0002:00288490 00000200H .didat$7                DATA
 0002:00288690 00000058H .edata                  DATA
 0002:002886e8 0000003cH .idata$2                DATA
 0002:00288724 00000014H .idata$3                DATA
 0002:00288738 000004c8H .idata$4                DATA
 0002:00288c00 000009bcH .idata$6                DATA
 0003:00000000 000645f0H .data                   DATA
 0003:000645f0 000000a0H .data$r                 DATA
 0003:00064690 00000210H .didat$5                DATA
 0003:000648a0 00077b64H .bss                    DATA
 0004:00000000 00004b90H .pdata                  DATA
 0005:00000000 0000008cH .gfids$x                DATA
 0005:0000008c 00000030H .gfids$y                DATA
 0006:00000000 00000060H .rsrc$01                DATA
 0006:00000060 00000180H .rsrc$02                DATA

  Address         Publics by Value              Rva+Base               Lib:Object

 0000:00000000       __guard_iat_table          0000000000000000     <absolute>
 0000:00000000       __guard_iat_count          0000000000000000     <absolute>
 0000:00000000       __dynamic_value_reloc_table 0000000000000000     <absolute>
 0000:00000000       __guard_longjmp_table      0000000000000000     <absolute>
 0000:00000000       __guard_longjmp_count      0000000000000000     <absolute>
 0000:00000000       __guard_fids_count         0000000000000000     <absolute>
 0000:00000000       ___safe_se_handler_table   0000000000000000     <absolute>
 0000:00000000       ___safe_se_handler_count   0000000000000000     <absolute>
 0000:00000000       __guard_fids_table         0000000000000000     <absolute>
 0000:00000100       __guard_flags              0000000000000100     <absolute>
 0000:00000000       __ImageBase                0000000180000000     <linker-defined>
 0001:00000410       __local_stdio_printf_options 0000000180001410 f i binding.obj
 0001:00000420       snprintf                   0000000180001420 f i binding.obj
 0001:00000550       ?New@?$Factory@VFunctionTemplate@v8@@@imp@Nan@@SA?AV?$Local@VFunctionTemplate@v8@@@v8@@P6AXAEBV?$FunctionCallbackInfo@VValue@v8@@@3@@ZV?$Local@VValue@v8@@@5@V?$Local@VSignature@v8@@@5@@Z 0000000180001550 f i binding.obj
 0001:00000730       ?ThrowError@Nan@@YAXPEBD@Z 0000000180001730 f i binding.obj
 0001:000007c0       ?ThrowTypeError@Nan@@YAXPEBD@Z 00000001800017c0 f i binding.obj
 0001:00000850       ??0Utf8String@Nan@@QEAA@V?$Local@VValue@v8@@@v8@@@Z 0000000180001850 f i binding.obj
 0001:00000960       ?Call@Callback@Nan@@QEBA?AV?$Local@VValue@v8@@@v8@@V?$Local@VObject@v8@@@4@HQEAV34@@Z 0000000180001960 f i binding.obj
 0001:00000b40       ?SetPrototypeMethod@Nan@@YAXV?$Local@VFunctionTemplate@v8@@@v8@@PEBDP6AXAEBV?$FunctionCallbackInfo@VValue@v8@@@1@@Z@Z 0000000180001b40 f i binding.obj
 0001:00000c30       ??1ObjectWrap@Nan@@UEAA@XZ 0000000180001c30 f i binding.obj
 0001:00000ca0       ?Wrap@ObjectWrap@Nan@@IEAAXV?$Local@VObject@v8@@@v8@@@Z 0000000180001ca0 f i binding.obj
 0001:00000d80       ?Ref@ObjectWrap@Nan@@MEAAXXZ 0000000180001d80 f i binding.obj
 0001:00000dc0       ?Unref@ObjectWrap@Nan@@MEAAXXZ 0000000180001dc0 f i binding.obj
 0001:00000e70       ?WeakCallback@ObjectWrap@Nan@@CAXAEBV?$WeakCallbackInfo@VObjectWrap@Nan@@@v8@@@Z 0000000180001e70 f i binding.obj
 0001:00000f00       ??_GObjectWrap@Nan@@UEAAPEAXI@Z 0000000180001f00 f i binding.obj
 0001:00000f00       ??_EObjectWrap@Nan@@UEAAPEAXI@Z 0000000180001f00 f i * CIL library *:* CIL module *
 0001:00000f40       ??1Client@@UEAA@XZ         0000000180001f40 f i binding.obj
 0001:00001190       ?init@Client@@QEAA_NXZ     0000000180002190 f i binding.obj
 0001:00001290       ?clear_state@Client@@QEAAXXZ 0000000180002290 f i binding.obj
 0001:000013f0       ?close@Client@@QEAA_N_N@Z  00000001800023f0 f i binding.obj
 0001:00001490       ?query@Client@@QEAA_NV?$Local@VValue@v8@@@v8@@_N11@Z 0000000180002490 f i binding.obj
 0001:00001560       ?do_work@Client@@QEAAXH@Z  0000000180002560 f i binding.obj
 0001:00001fb0       __except_validate_context_record 0000000180002fb0 f i libvcruntime:jbcxrval.obj
 0001:00001fb0       _guard_check_icall_nop     0000000180002fb0 f i LIBCMT:guard_support.obj
 0001:00001fb0       ?cb_close_dummy@Client@@SAXPEAUuv_handle_s@@@Z 0000000180002fb0 f i binding.obj
 0001:00001fc0       ?cb_close@Client@@SAXPEAUuv_handle_s@@@Z 0000000180002fc0 f i binding.obj
 0001:00002030       ?cb_poll@Client@@SAXPEAUuv_poll_s@@HH@Z 0000000180003030 f i binding.obj
 0001:000020a0       ?on_connect@Client@@QEAAXXZ 00000001800030a0 f i binding.obj
 0001:00002110       ?on_error@Client@@QEAAX_NIPEBD@Z 0000000180003110 f i binding.obj
 0001:00002390       ?on_row@Client@@QEAAXXZ    0000000180003390 f i binding.obj
 0001:00002650       ?on_rows@Client@@QEAAXXZ   0000000180003650 f i binding.obj
 0001:000029e0       ?on_resultinfo@Client@@QEAAXPEAUst_mysql_field@@I@Z 00000001800039e0 f i binding.obj
 0001:00003180       ?on_resultend@Client@@QEAAXXZ 0000000180004180 f i binding.obj
 0001:000033e0       ?on_ping@Client@@QEAAXXZ   00000001800043e0 f i binding.obj
 0001:00003450       ?on_idle@Client@@QEAAXXZ   0000000180004450 f i binding.obj
 0001:000034c0       ?apply_config@Client@@QEAA_NV?$Local@VObject@v8@@@v8@@@Z 00000001800044c0 f i binding.obj
 0001:00004420       ?New@Client@@SAXAEBV?$FunctionCallbackInfo@VValue@v8@@@Nan@@@Z 0000000180005420 f i binding.obj
 0001:00004b00       ?SetConfig@Client@@SAXAEBV?$FunctionCallbackInfo@VValue@v8@@@Nan@@@Z 0000000180005b00 f i binding.obj
 0001:00004b80       ?Connect@Client@@SAXAEBV?$FunctionCallbackInfo@VValue@v8@@@Nan@@@Z 0000000180005b80 f i binding.obj
 0001:00004c60       ?Close@Client@@SAXAEBV?$FunctionCallbackInfo@VValue@v8@@@Nan@@@Z 0000000180005c60 f i binding.obj
 0001:00004d00       ?Pause@Client@@SAXAEBV?$FunctionCallbackInfo@VValue@v8@@@Nan@@@Z 0000000180005d00 f i binding.obj
 0001:00004d40       ?Resume@Client@@SAXAEBV?$FunctionCallbackInfo@VValue@v8@@@Nan@@@Z 0000000180005d40 f i binding.obj
 0001:00004d90       ?Ping@Client@@SAXAEBV?$FunctionCallbackInfo@VValue@v8@@@Nan@@@Z 0000000180005d90 f i binding.obj
 0001:00004dd0       ?LastInsertId@Client@@SAXAEBV?$FunctionCallbackInfo@VValue@v8@@@Nan@@@Z 0000000180005dd0 f i binding.obj
 0001:00004ec0       ?Query@Client@@SAXAEBV?$FunctionCallbackInfo@VValue@v8@@@Nan@@@Z 0000000180005ec0 f i binding.obj
 0001:00005110       ?Escape@Client@@SAXAEBV?$FunctionCallbackInfo@VValue@v8@@@Nan@@@Z 0000000180006110 f i binding.obj
 0001:000052d0       ?IsMariaDB@Client@@SAXAEBV?$FunctionCallbackInfo@VValue@v8@@@Nan@@@Z 00000001800062d0 f i binding.obj
 0001:000053a0       ?ServerVersion@Client@@SAXAEBV?$FunctionCallbackInfo@VValue@v8@@@Nan@@@Z 00000001800063a0 f i binding.obj
 0001:00005450       ?Initialize@Client@@SAXV?$Local@VObject@v8@@@v8@@@Z 0000000180006450 f i binding.obj
 0001:000072c0       ??_GClient@@UEAAPEAXI@Z    00000001800082c0 f i binding.obj
 0001:000072c0       ??_EClient@@UEAAPEAXI@Z    00000001800082c0 f i * CIL library *:* CIL module *
 0001:00007300       ??_GUtf8String@Nan@@QEAAPEAXI@Z 0000000180008300 f i binding.obj
 0001:00007520       init                       0000000180008520 f   binding.obj
 0001:00007630       ??$Reset@VObject@v8@@@?$Persistent@VObject@v8@@V?$NonCopyablePersistentTraits@VObject@v8@@@2@@Nan@@QEAAXAEBV?$Local@VObject@v8@@@v8@@@Z 0000000180008630 f i binding.obj
 0001:00007690       ??$Unwrap@VClient@@@ObjectWrap@Nan@@SAPEAVClient@@V?$Local@VObject@v8@@@v8@@@Z 0000000180008690 f i binding.obj
 0001:00007760       my_connect_async           0000000180008760 f   clientlib:mysql_async.obj
 0001:00007880       my_recv_async              0000000180008880 f   clientlib:mysql_async.obj
 0001:00007960       my_send_async              0000000180008960 f   clientlib:mysql_async.obj
 0001:00007aa0       mysql_real_connect_start   0000000180008aa0 f   clientlib:mysql_async.obj
 0001:00007ba0       mysql_real_connect_cont    0000000180008ba0 f   clientlib:mysql_async.obj
 0001:00007ba0       mysql_store_result_cont    0000000180008ba0 f   clientlib:mysql_async.obj
 0001:00007d30       mysql_fetch_row_start      0000000180008d30 f   clientlib:mysql_async.obj
 0001:00007e40       mysql_fetch_row_cont       0000000180008e40 f   clientlib:mysql_async.obj
 0001:00007f40       mysql_store_result_start   0000000180008f40 f   clientlib:mysql_async.obj
 0001:00008050       mysql_free_result_start    0000000180009050 f   clientlib:mysql_async.obj
 0001:00008170       mysql_ping_start           0000000180009170 f   clientlib:mysql_async.obj
 0001:00008280       mysql_next_result_start    0000000180009280 f   clientlib:mysql_async.obj
 0001:00008360       fprintf                    0000000180009360 f i clientlib:client.obj
 0001:000083b0       sprintf                    00000001800093b0 f i clientlib:client.obj
 0001:00008410       set_mysql_error            0000000180009410 f   clientlib:client.obj
 0001:000084d0       net_clear_error            00000001800094d0 f   clientlib:client.obj
 0001:00008500       set_mysql_extended_error   0000000180009500 f   clientlib:client.obj
 0001:00008560       create_named_pipe          0000000180009560 f   clientlib:client.obj
 0001:00008770       create_shared_memory       0000000180009770 f   clientlib:client.obj
 0001:00008dd0       cli_safe_read              0000000180009dd0 f   clientlib:client.obj
 0001:00008f70       free_rows                  0000000180009f70 f   clientlib:client.obj
 0001:00008fc0       cli_advanced_command       0000000180009fc0 f   clientlib:client.obj
 0001:000091d0       free_old_query             000000018000a1d0 f   clientlib:client.obj
 0001:00009540       end_server                 000000018000a540 f   clientlib:client.obj
 0001:000095e0       mysql_free_result          000000018000a5e0 f   clientlib:client.obj
 0001:00009860       mysql_read_default_options 000000018000a860 f   clientlib:client.obj
 0001:00009f10       unpack_fields              000000018000af10 f   clientlib:client.obj
 0001:0000a5e0       cli_read_rows              000000018000b5e0 f   clientlib:client.obj
 0001:0000aad0       mysql_init                 000000018000bad0 f   clientlib:client.obj
 0001:0000abd0       cli_read_change_user_result 000000018000bbd0 f   clientlib:client.obj
 0001:0000ae50       mysql_init_character_set   000000018000be50 f   clientlib:client.obj
 0001:0000af70       send_client_connect_attrs  000000018000bf70 f   clientlib:client.obj
 0001:0000ba10       mpvio_info                 000000018000ca10 f   clientlib:client.obj
 0001:0000bb00       run_plugin_auth            000000018000cb00 f   clientlib:client.obj
 0001:0000c330       mysql_real_connect         000000018000d330 f   clientlib:client.obj
 0001:0000cea0       mysql_reconnect            000000018000dea0 f   clientlib:client.obj
 0001:0000d280       mysql_select_db            000000018000e280 f   clientlib:client.obj
 0001:0000dad0       mysql_detach_stmt_list     000000018000ead0 f   clientlib:client.obj
 0001:0000dbb0       mysql_close                000000018000ebb0 f   clientlib:client.obj
 0001:0000df10       mysql_real_query           000000018000ef10 f   clientlib:client.obj
 0001:0000df70       mysql_store_result         000000018000ef70 f   clientlib:client.obj
 0001:0000e220       mysql_fetch_row            000000018000f220 f   clientlib:client.obj
 0001:0000e300       mysql_options              000000018000f300 f   clientlib:client.obj
 0001:0000ea30       get_attr_key               000000018000fa30 f   clientlib:client.obj
 0001:0000ea40       mysql_options4             000000018000fa40 f   clientlib:client.obj
 0001:0000ecb0       mysql_get_server_version   000000018000fcb0 f   clientlib:client.obj
 0001:0000ed70       mysql_set_character_set    000000018000fd70 f   clientlib:client.obj
 0001:0000f0a0       mysql_server_init          00000001800100a0 f   clientlib:libmysql.obj
 0001:0000f190       handle_local_infile        0000000180010190 f   clientlib:libmysql.obj
 0001:0000f670       cli_list_fields            0000000180010670 f   clientlib:libmysql.obj
 0001:0000f6e0       cli_read_statistics        00000001800106e0 f   clientlib:libmysql.obj
 0001:0000f720       mysql_ping                 0000000180010720 f   clientlib:libmysql.obj
 0001:0000f7a0       my_net_local_init          00000001800107a0 f   clientlib:libmysql.obj
 0001:0000f870       mysql_escape_string_ex     0000000180010870 f   clientlib:libmysql.obj
 0001:0000fa00       set_stmt_error             0000000180010a00 f   clientlib:libmysql.obj
 0001:0000fa80       set_stmt_errmsg            0000000180010a80 f   clientlib:libmysql.obj
 0001:0000fae0       cli_read_prepare_result    0000000180010ae0 f   clientlib:libmysql.obj
 0001:0000fd90       cli_stmt_execute           0000000180010d90 f   clientlib:libmysql.obj
 0001:0000ffd0       cli_unbuffered_fetch       0000000180010fd0 f   clientlib:libmysql.obj
 0001:00010030       cli_read_binary_rows       0000000180011030 f   clientlib:libmysql.obj
 0001:000101a0       mysql_next_result          00000001800111a0 f   clientlib:libmysql.obj
 0001:00010270       my_net_init                0000000180011270 f   clientlib:net_serv.obj
 0001:00010310       net_realloc                0000000180011310 f   clientlib:net_serv.obj
 0001:00010450       net_clear                  0000000180011450 f   clientlib:net_serv.obj
 0001:00010500       net_flush                  0000000180011500 f   clientlib:net_serv.obj
 0001:00010540       my_net_write               0000000180011540 f   clientlib:net_serv.obj
 0001:00010650       net_write_command          0000000180011650 f   clientlib:net_serv.obj
 0001:000108e0       net_real_write             00000001800118e0 f   clientlib:net_serv.obj
 0001:00010c80       my_net_read_packet         0000000180011c80 f   clientlib:net_serv.obj
 0001:00010f30       my_net_set_read_timeout    0000000180011f30 f   clientlib:net_serv.obj
 0001:00010f90       my_net_set_write_timeout   0000000180011f90 f   clientlib:net_serv.obj
 0001:00010ff0       get_client_errmsgs         0000000180011ff0 f   clientlib:errmsg.obj
 0001:000112b0       mysql_client_plugin_init   00000001800122b0 f   clientlib:client_plugin.obj
 0001:00011430       mysql_load_plugin_v        0000000180012430 f   clientlib:client_plugin.obj
 0001:000116d0       mysql_load_plugin          00000001800126d0 f   clientlib:client_plugin.obj
 0001:000116f0       mysql_client_find_plugin   00000001800126f0 f   clientlib:client_plugin.obj
 0001:000117a0       hash_password              00000001800127a0 f   clientlib:password.obj
 0001:00011840       scramble_323               0000000180012840 f   clientlib:password.obj
 0001:00011ac0       scramble                   0000000180012ac0 f   clientlib:password.obj
 0001:00011c30       my_error                   0000000180012c30 f   mysys:my_error.obj
 0001:00011d00       my_printf_error            0000000180012d00 f   mysys:my_error.obj
 0001:00011d80       my_error_register          0000000180012d80 f   mysys:my_error.obj
 0001:00012a30       get_charsets_dir           0000000180013a30 f   mysys:charset.obj
 0001:00012c70       get_collation_number       0000000180013c70 f   mysys:charset.obj
 0001:00012de0       get_charset_number         0000000180013de0 f   mysys:charset.obj
 0001:00013030       my_collation_get_by_name   0000000180014030 f   mysys:charset.obj
 0001:00013190       get_charset_by_name        0000000180014190 f   mysys:charset.obj
 0001:00013220       my_charset_get_by_name     0000000180014220 f   mysys:charset.obj
 0001:00013340       get_charset_by_csname      0000000180014340 f   mysys:charset.obj
 0001:000133d0       escape_string_for_mysql    00000001800143d0 f   mysys:charset.obj
 0001:000135d0       fs_character_set           00000001800145d0 f   mysys:charset.obj
 0001:000136a0       escape_quotes_for_mysql    00000001800146a0 f   mysys:charset.obj
 0001:000137a0       my_malloc                  00000001800147a0 f   mysys:my_malloc.obj
 0001:000138a0       my_realloc                 00000001800148a0 f   mysys:my_malloc.obj
 0001:000139e0       my_free                    00000001800149e0 f   mysys:my_malloc.obj
 0001:00013a40       my_strdup                  0000000180014a40 f   mysys:my_malloc.obj
 0001:00013aa0       alloc_dynamic              0000000180014aa0 f   mysys:array.obj
 0001:00013cc0       alloc_root                 0000000180014cc0 f   mysys:my_alloc.obj
 0001:00013e00       free_root                  0000000180014e00 f   mysys:my_alloc.obj
 0001:00013f80       my_hash_sort               0000000180014f80 f   mysys:hash.obj
 0001:00014040       my_hash_free               0000000180015040 f   mysys:hash.obj
 0001:000140f0       my_hash_search             00000001800150f0 f   mysys:hash.obj
 0001:00014160       my_hash_first_from_hash_value 0000000180015160 f   mysys:hash.obj
 0001:000142e0       my_hash_insert             00000001800152e0 f   mysys:hash.obj
 0001:000146d0       my_hash_delete             00000001800156d0 f   mysys:hash.obj
 0001:000149f0       printf                     00000001800159f0 f i mysys:my_default.obj
 0001:00014b70       my_search_option_files     0000000180015b70 f   mysys:my_default.obj
 0001:00015010       get_defaults_options       0000000180016010 f   mysys:my_default.obj
 0001:00015130       my_load_defaults           0000000180016130 f   mysys:my_default.obj
 0001:00015530       free_defaults              0000000180016530 f   mysys:my_default.obj
 0001:000163d0       my_init                    00000001800173d0 f   mysys:my_init.obj
 0001:00016570       my_parameter_handler       0000000180017570 f   mysys:my_init.obj
 0001:00016890       my_multi_malloc            0000000180017890 f   mysys:mulalloc.obj
 0001:00016940       dirname_length             0000000180017940 f   mysys:mf_dirname.obj
 0001:000169a0       convert_dirname            00000001800179a0 f   mysys:mf_dirname.obj
 0001:00016aa0       my_realpath                0000000180017aa0 f   mysys:my_symlink.obj
 0001:00016bf0       my_thread_global_init      0000000180017bf0 f   mysys:my_thr_init.obj
 0001:00016cc0       my_thread_init             0000000180017cc0 f   mysys:my_thr_init.obj
 0001:00016e00       my_close                   0000000180017e00 f   mysys:my_open.obj
 0001:00016f60       my_register_filename       0000000180017f60 f   mysys:my_open.obj
 0001:000170a0       fn_format                  00000001800180a0 f   mysys:mf_format.obj
 0001:000174c0       strlength                  00000001800184c0 f   mysys:mf_format.obj
 0001:00017510       get_global_errmsgs         0000000180018510 f   mysys:errors.obj
 0001:00017520       my_read                    0000000180018520 f   mysys:my_read.obj
 0001:00017700       my_az_allocator            0000000180018700 f   mysys:my_compress.obj
 0001:00017710       my_az_free                 0000000180018710 f   mysys:my_compress.obj
 0001:00017770       my_compress_buffer         0000000180018770 f   mysys:my_compress.obj
 0001:00017840       my_compress_alloc          0000000180018840 f   mysys:my_compress.obj
 0001:000178f0       my_once_alloc              00000001800188f0 f   mysys:my_once.obj
 0001:00017a00       my_once_strdup             0000000180018a00 f   mysys:my_once.obj
 0001:00017a70       my_once_memdup             0000000180018a70 f   mysys:my_once.obj
 0001:00017ac0       my_dir                     0000000180018ac0 f   mysys:my_lib.obj
 0001:00017e50       my_getwd                   0000000180018e50 f   mysys:my_getwd.obj
 0001:00017f00       test_if_hard_path          0000000180018f00 f   mysys:my_getwd.obj
 0001:00017f70       init_compiled_charsets     0000000180018f70 f   mysys:charset-def.obj
 0001:00019180       pack_dirname               000000018001a180 f   mysys:mf_pack.obj
 0001:00019490       cleanup_dirname            000000018001a490 f   mysys:mf_pack.obj
 0001:00019890       symdirget                  000000018001a890 f   mysys:mf_pack.obj
 0001:00019a60       unpack_dirname             000000018001aa60 f   mysys:mf_pack.obj
 0001:00019c40       intern_filename            000000018001ac40 f   mysys:mf_pack.obj
 0001:00019d40       fn_ext                     000000018001ad40 f   mysys:mf_fn_ext.obj
 0001:00019df0       fn_ext2                    000000018001adf0 f   mysys:mf_fn_ext.obj
 0001:00019ea0       array_append_string_unique 000000018001aea0 f   mysys:mf_arr_appstr.obj
 0001:00019f30       my_fopen                   000000018001af30 f   mysys:my_fopen.obj
 0001:0001a0a0       my_fclose                  000000018001b0a0 f   mysys:my_fopen.obj
 0001:0001a170       my_message_stderr          000000018001b170 f   mysys:my_mess.obj
 0001:0001a240       my_load_path               000000018001b240 f   mysys:mf_loadpath.obj
 0001:0001a4e0       pthread_cond_init          000000018001b4e0 f   mysys:my_wincond.obj
 0001:0001a570       my_open_osfhandle          000000018001b570 f   mysys:my_winfile.obj
 0001:0001a610       my_win_sopen               000000018001b610 f   mysys:my_winfile.obj
 0001:0001a6d0       my_win_fileno              000000018001b6d0 f   mysys:my_winfile.obj
 0001:0001a780       my_filename                000000018001b780 f   mysys:my_div.obj
 0001:0001a7c0       my_qsort                   000000018001b7c0 f   mysys:mf_qsort.obj
 0001:0001b150       is_filename_allowed        000000018001c150 f   mysys:my_access.obj
 0001:0001b1e0       check_if_legal_filename    000000018001c1e0 f   mysys:my_access.obj
 0001:0001b300       my_osmaperr                000000018001c300 f   mysys:my_winerr.obj
 0001:0001b380       ??_EHASH@TaoCrypt@@UEAAPEAXI@Z 000000018001c380 f i * CIL library *:* CIL module *
 0001:0001b380       ??_GHASH@TaoCrypt@@UEAAPEAXI@Z 000000018001c380 f i mysys_ssl:my_sha1.obj
 0001:0001b3b0       DllMain                    000000018001c3b0 f i LIBCMT:dll_dllmain_stub.obj
 0001:0001b3b0       my_mbcharlen_8bit          000000018001c3b0 f i strings:ctype-bin.obj
 0001:0001b3b0       ?getByteOrder@SHA@TaoCrypt@@UEBA?AW4ByteOrder@2@XZ 000000018001c3b0 f i mysys_ssl:my_sha1.obj
 0001:0001b3b0       _get_startup_argv_mode     000000018001c3b0 f i LIBCMT:argv_mode.obj
 0001:0001b3c0       ?getBlockSize@SHA@TaoCrypt@@UEBAIXZ 000000018001c3c0 f i mysys_ssl:my_sha1.obj
 0001:0001b3d0       ?getDigestSize@SHA@TaoCrypt@@UEBAIXZ 000000018001c3d0 f i mysys_ssl:my_sha1.obj
 0001:0001b3e0       ?getPadSize@SHA@TaoCrypt@@UEBAIXZ 000000018001c3e0 f i mysys_ssl:my_sha1.obj
 0001:0001b3f0       ??_ESHA@TaoCrypt@@UEAAPEAXI@Z 000000018001c3f0 f i * CIL library *:* CIL module *
 0001:0001b3f0       ??_GSHA@TaoCrypt@@UEAAPEAXI@Z 000000018001c3f0 f i mysys_ssl:my_sha1.obj
 0001:0001b420       my_sha1_multi              000000018001c420 f   mysys_ssl:my_sha1.obj
 0001:0001b4f0       int10_to_str               000000018001c4f0 f   strings:int2str.obj
 0001:0001c180       my_vsnprintf_ex            000000018001d180 f   strings:my_vsnprintf.obj
 0001:0001c660       my_snprintf                000000018001d660 f   strings:my_vsnprintf.obj
 0001:0001c6a0       my_strerror                000000018001d6a0 f   strings:my_vsnprintf.obj
 0001:0001c790       strxmov                    000000018001d790 f   strings:strxmov.obj
 0001:0001c8e0       my_lengthsp_binary         000000018001d8e0 f   strings:ctype-bin.obj
 0001:0001c9d0       my_strcasecmp_mb_bin       000000018001d9d0 f   strings:ctype-mb.obj
 0001:0001ca10       my_wc_mb_bin               000000018001da10 f   strings:ctype-bin.obj
 0001:0001ca30       my_hash_sort_mb_bin        000000018001da30 f   strings:ctype-mb.obj
 0001:0001ca30       my_hash_sort_8bit_bin      000000018001da30 f   strings:ctype-bin.obj
 0001:0001cab0       my_hash_sort_bin           000000018001dab0 f   strings:ctype-bin.obj
 0001:0001cd60       my_wildcmp_bin             000000018001dd60 f   strings:ctype-bin.obj
 0001:0001cf30       strxnmov                   000000018001df30 f   strings:strxnmov.obj
 0001:0001d2c0       my_hash_sort_latin1_de     000000018001e2c0 f   strings:ctype-latin1.obj
 0001:0001d390       my_fcvt                    000000018001e390 f   strings:dtoa.obj
 0001:0001d540       my_gcvt                    000000018001e540 f   strings:dtoa.obj
 0001:00020c30       my_strtoll10               0000000180021c30 f   strings:my_strtoll10.obj
 0001:00021d30       my_wildcmp_uca             0000000180022d30 f   strings:ctype-uca.obj
 0001:00023b30       ll2str                     0000000180024b30 f   strings:longlong2str.obj
 0001:00023c30       longlong10_to_str          0000000180024c30 f   strings:longlong2str.obj
 0001:00024210       my_strnxfrm_unicode        0000000180025210 f   strings:ctype-utf8.obj
 0001:000243b0       my_strnxfrmlen_unicode     00000001800253b0 f   strings:ctype-utf8.obj
 0001:000243d0       my_strnxfrm_unicode_full_bin 00000001800253d0 f   strings:ctype-utf8.obj
 0001:00024500       my_strnxfrmlen_unicode_full_bin 0000000180025500 f   strings:ctype-utf8.obj
 0001:000274a0       my_strnxfrmlen_simple      00000001800284a0 f   strings:ctype-simple.obj
 0001:000274c0       my_strnxfrm_simple         00000001800284c0 f   strings:ctype-simple.obj
 0001:000275b0       my_strnncoll_simple        00000001800285b0 f   strings:ctype-simple.obj
 0001:00027660       my_strnncollsp_simple      0000000180028660 f   strings:ctype-simple.obj
 0001:00027740       my_caseup_str_8bit         0000000180028740 f   strings:ctype-simple.obj
 0001:00027780       my_casedn_str_8bit         0000000180028780 f   strings:ctype-simple.obj
 0001:000277c0       my_caseup_8bit             00000001800287c0 f   strings:ctype-simple.obj
 0001:00027800       my_casedn_8bit             0000000180028800 f   strings:ctype-simple.obj
 0001:00027840       my_strcasecmp_8bit         0000000180028840 f   strings:ctype-simple.obj
 0001:000278a0       my_charlen_8bit            00000001800288a0 f   strings:ctype-simple.obj
 0001:000278c0       my_mb_wc_8bit              00000001800288c0 f   strings:ctype-simple.obj
 0001:00027900       my_wc_mb_8bit              0000000180028900 f   strings:ctype-simple.obj
 0001:00027960       my_snprintf_8bit           0000000180028960 f   strings:ctype-simple.obj
 0001:00027990       my_hash_sort_simple        0000000180028990 f   strings:ctype-simple.obj
 0001:00027a60       my_strntol_8bit            0000000180028a60 f   strings:ctype-simple.obj
 0001:00027bc0       my_strntoul_8bit           0000000180028bc0 f   strings:ctype-simple.obj
 0001:00027d00       my_strntoll_8bit           0000000180028d00 f   strings:ctype-simple.obj
 0001:00027e90       my_strntoull_8bit          0000000180028e90 f   strings:ctype-simple.obj
 0001:00027fe0       my_strntod_8bit            0000000180028fe0 f   strings:ctype-simple.obj
 0001:00028070       my_long10_to_str_8bit      0000000180029070 f   strings:ctype-simple.obj
 0001:00028180       my_longlong10_to_str_8bit  0000000180029180 f   strings:ctype-simple.obj
 0001:00028540       my_wildcmp_8bit            0000000180029540 f   strings:ctype-simple.obj
 0001:00028590       my_like_range_simple       0000000180029590 f   strings:ctype-simple.obj
 0001:00028700       my_scan_8bit               0000000180029700 f   strings:ctype-simple.obj
 0001:00028760       my_fill_8bit               0000000180029760 f   strings:ctype-simple.obj
 0001:00028770       my_numchars_8bit           0000000180029770 f   strings:ctype-simple.obj
 0001:00028770       my_numcells_8bit           0000000180029770 f   strings:ctype-simple.obj
 0001:00028780       my_charpos_8bit            0000000180029780 f   strings:ctype-simple.obj
 0001:00028790       my_well_formed_len_8bit    0000000180029790 f   strings:ctype-simple.obj
 0001:000287b0       my_well_formed_char_length_8bit 00000001800297b0 f   strings:ctype-simple.obj
 0001:000287e0       my_copy_8bit               00000001800297e0 f   strings:ctype-simple.obj
 0001:00028840       my_lengthsp_8bit           0000000180029840 f   strings:ctype-simple.obj
 0001:00028860       my_instr_simple            0000000180029860 f   strings:ctype-simple.obj
 0001:00028cc0       my_strtoll10_8bit          0000000180029cc0 f   strings:ctype-simple.obj
 0001:00028ce0       my_mb_ctype_8bit           0000000180029ce0 f   strings:ctype-simple.obj
 0001:00028d10       my_strntoull10rnd_8bit     0000000180029d10 f   strings:ctype-simple.obj
 0001:00029120       my_propagate_simple        000000018002a120 f   strings:ctype-simple.obj
 0001:00029120       __acrt_uninitialize_command_line 000000018002a120 f   libucrt:argv_data.obj
 0001:00029130       my_propagate_complex       000000018002a130 f   strings:ctype-simple.obj
 0001:00029140       my_strxfrm_desc_and_reverse 000000018002a140 f   strings:ctype-simple.obj
 0001:00029220       my_strxfrm_pad_desc_and_reverse 000000018002a220 f   strings:ctype-simple.obj
 0001:0002a130       my_parse_charset_xml       000000018002b130 f   strings:ctype.obj
 0001:0002ac50       str2int                    000000018002bc50 f   strings:str2int.obj
 0001:000317f0       my_casedn_ujis             00000001800327f0 f   strings:ctype-ujis.obj
 0001:00031810       my_caseup_ujis             0000000180032810 f   strings:ctype-ujis.obj
 0001:00034e40       ??3@YAXPEAX@Z              0000000180035e40 f   LIBCMT:delete_scalar.obj
 0001:00034e50       my_str_realloc_default     0000000180035e50 f   strings:str_alloc.obj
 0001:00034e60       my_caseup_str_mb           0000000180035e60 f   strings:ctype-mb.obj
 0001:00034ee0       my_casedn_str_mb           0000000180035ee0 f   strings:ctype-mb.obj
 0001:00034f60       my_caseup_mb               0000000180035f60 f   strings:ctype-mb.obj
 0001:00035020       my_casedn_mb               0000000180036020 f   strings:ctype-mb.obj
 0001:000351d0       my_caseup_mb_varlen        00000001800361d0 f   strings:ctype-mb.obj
 0001:000351f0       my_strcasecmp_mb           00000001800361f0 f   strings:ctype-mb.obj
 0001:000356d0       my_wildcmp_mb              00000001800366d0 f   strings:ctype-mb.obj
 0001:00035720       my_numchars_mb             0000000180036720 f   strings:ctype-mb.obj
 0001:000357a0       my_charpos_mb              00000001800367a0 f   strings:ctype-mb.obj
 0001:00035830       my_well_formed_len_mb      0000000180036830 f   strings:ctype-mb.obj
 0001:000359d0       my_copy_fix_mb             00000001800369d0 f   strings:ctype-mb.obj
 0001:00035ab0       my_instr_mb                0000000180036ab0 f   strings:ctype-mb.obj
 0001:00035be0       my_strnxfrm_mb             0000000180036be0 f   strings:ctype-mb.obj
 0001:00035e90       my_like_range_mb           0000000180036e90 f   strings:ctype-mb.obj
 0001:00036170       my_like_range_generic      0000000180037170 f   strings:ctype-mb.obj
 0001:00036960       my_wildcmp_mb_bin          0000000180037960 f   strings:ctype-mb.obj
 0001:000369b0       my_numcells_mb             00000001800379b0 f   strings:ctype-mb.obj
 0001:00036a70       my_mb_ctype_mb             0000000180037a70 f   strings:ctype-mb.obj
 0001:00037250       my_xml_parse               0000000180038250 f   strings:xml.obj
 0001:000376d0       vio_shared_memory_has_data 00000001800386d0 f   vio:vio.obj
 0001:000376e0       vio_shared_memory_shutdown 00000001800386e0 f   vio:vio.obj
 0001:00037710       vio_pipe_shutdown          0000000180038710 f   vio:vio.obj
 0001:00037a80       vio_new                    0000000180038a80 f   vio:vio.obj
 0001:00037b20       vio_new_win32pipe          0000000180038b20 f   vio:vio.obj
 0001:00037bb0       vio_new_win32shared_memory 0000000180038bb0 f   vio:vio.obj
 0001:00037c80       vio_delete                 0000000180038c80 f   vio:vio.obj
 0001:00037e20       vio_errno                  0000000180038e20 f   vio:viosocket.obj
 0001:00037e40       vio_read                   0000000180038e40 f   vio:viosocket.obj
 0001:00037f70       vio_read_buff              0000000180038f70 f   vio:viosocket.obj
 0001:00038060       vio_buff_has_data          0000000180039060 f   vio:viosocket.obj
 0001:00038080       vio_write                  0000000180039080 f   vio:viosocket.obj
 0001:000381c0       cancel_io                  00000001800391c0 f   vio:viosocket.obj
 0001:00038290       vio_socket_shutdown        0000000180039290 f   vio:viosocket.obj
 0001:000382d0       vio_blocking               00000001800392d0 f   vio:viosocket.obj
 0001:00038360       vio_is_blocking            0000000180039360 f   vio:viosocket.obj
 0001:00038370       vio_socket_timeout         0000000180039370 f   vio:viosocket.obj
 0001:000383d0       vio_fastsend               00000001800393d0 f   vio:viosocket.obj
 0001:00038420       vio_keepalive              0000000180039420 f   vio:viosocket.obj
 0001:00038480       vio_should_retry           0000000180039480 f   vio:viosocket.obj
 0001:000384c0       vio_was_timeout            00000001800394c0 f   vio:viosocket.obj
 0001:00038500       vio_close                  0000000180039500 f   vio:viosocket.obj
 0001:00038660       vio_peer_addr              0000000180039660 f   vio:viosocket.obj
 0001:000387d0       vio_io_wait                00000001800397d0 f   vio:viosocket.obj
 0001:00038a30       vio_is_connected           0000000180039a30 f   vio:viosocket.obj
 0001:00038a90       vio_read_shared_memory     0000000180039a90 f   vio:vioshm.obj
 0001:00038bd0       vio_write_shared_memory    0000000180039bd0 f   vio:vioshm.obj
 0001:00038cd0       vio_is_connected_shared_memory 0000000180039cd0 f   vio:vioshm.obj
 0001:00038cf0       vio_close_shared_memory    0000000180039cf0 f   vio:vioshm.obj
 0001:00038e70       vio_read_pipe              0000000180039e70 f   vio:viopipe.obj
 0001:00038ef0       vio_write_pipe             0000000180039ef0 f   vio:viopipe.obj
 0001:00038f70       vio_is_connected_pipe      0000000180039f70 f   vio:viopipe.obj
 0001:00038fc0       vio_close_pipe             0000000180039fc0 f   vio:viopipe.obj
 0001:00039030       uncompress                 000000018003a030 f   zlib:uncompr.obj
 0001:00039130       deflateInit2_              000000018003a130 f   zlib:deflate.obj
 0001:00039300       deflateResetKeep           000000018003a300 f   zlib:deflate.obj
 0001:00039490       deflate                    000000018003a490 f   zlib:deflate.obj
 0001:00039d40       deflateEnd                 000000018003ad40 f   zlib:deflate.obj
 0001:0003b4c0       inflateResetKeep           000000018003c4c0 f   zlib:inflate.obj
 0001:0003b540       inflateReset2              000000018003c540 f   zlib:inflate.obj
 0001:0003b5e0       inflateInit2_              000000018003c5e0 f   zlib:inflate.obj
 0001:0003b7a0       inflate                    000000018003c7a0 f   zlib:inflate.obj
 0001:0003e030       _tr_stored_block           000000018003f030 f   zlib:trees.obj
 0001:0003e0d0       _tr_flush_block            000000018003f0d0 f   zlib:trees.obj
 0001:0003e9a0       zcalloc                    000000018003f9a0 f   zlib:zutil.obj
 0001:0003e9b0       zcfree                     000000018003f9b0 f   zlib:zutil.obj
 0001:0003e9c0       adler32                    000000018003f9c0 f   zlib:adler32.obj
 0001:0003eca0       crc32                      000000018003fca0 f   zlib:crc32.obj
 0001:0003efb0       inflate_table              000000018003ffb0 f   zlib:inftrees.obj
 0001:0003f4c0       inflate_fast               00000001800404c0 f   zlib:inffast.obj
 0001:0003f9a0       ?Init@SHA@TaoCrypt@@UEAAXXZ 00000001800409a0 f   taocrypt:sha.obj
 0001:0003f9d0       ?Transform@SHA@TaoCrypt@@EEAAXXZ 00000001800409d0 f   taocrypt:sha.obj
 0001:00040bf0       ?Update@HASHwithTransform@TaoCrypt@@UEAAXPEBEI@Z 0000000180041bf0 f   taocrypt:hash.obj
 0001:00040cf0       ?Final@HASHwithTransform@TaoCrypt@@UEAAXPEAE@Z 0000000180041cf0 f   taocrypt:hash.obj
 0001:00040ed2       __imp_load_?Global@Context@v8@@QEAA?AV?$Local@VObject@v8@@@2@XZ 0000000180041ed2 f   node:node.exe
 0001:00040ede       __tailMerge_node_exe       0000000180041ede f i node:node.exe
 0001:00040f57       __imp_load_?Value@External@v8@@QEBAPEAXXZ 0000000180041f57 f   node:node.exe
 0001:00040f63       __imp_load_?New@External@v8@@SA?AV?$Local@VExternal@v8@@@2@PEAVIsolate@2@PEAX@Z 0000000180041f63 f   node:node.exe
 0001:00040f6f       __imp_load_?NewFromUnsigned@Integer@v8@@SA?AV?$Local@VInteger@v8@@@2@PEAVIsolate@2@I@Z 0000000180041f6f f   node:node.exe
 0001:00040f7b       __imp_load_?New@Signature@v8@@SA?AV?$Local@VSignature@v8@@@2@PEAVIsolate@2@V?$Local@VFunctionTemplate@v8@@@2@@Z 0000000180041f7b f   node:node.exe
 0001:00040f87       __imp_load_?ThrowException@Isolate@v8@@QEAA?AV?$Local@VValue@v8@@@2@V32@@Z 0000000180041f87 f   node:node.exe
 0001:00040f93       __imp_load_?GetCurrentContext@Isolate@v8@@QEAA?AV?$Local@VContext@v8@@@2@XZ 0000000180041f93 f   node:node.exe
 0001:00040f9f       __imp_load_?GetCurrent@Isolate@v8@@SAPEAV12@XZ 0000000180041f9f f   node:node.exe
 0001:00040fab       __imp_load_?CreateHandle@HandleScope@v8@@KAPEAPEAVObject@internal@2@PEAVIsolate@42@PEAV342@@Z 0000000180041fab f   node:node.exe
 0001:00040fb7       __imp_load_?CreateHandle@HandleScope@v8@@CAPEAPEAVObject@internal@2@PEAVHeapObject@42@PEAV342@@Z 0000000180041fb7 f   node:node.exe
 0001:00040fc3       __imp_load_??1HandleScope@v8@@QEAA@XZ 0000000180041fc3 f   node:node.exe
 0001:00040fcf       __imp_load_??0HandleScope@v8@@QEAA@PEAVIsolate@1@@Z 0000000180041fcf f   node:node.exe
 0001:00040fdb       __imp_load_?Set@Template@v8@@QEAAXV?$Local@VName@v8@@@2@V?$Local@VData@v8@@@2@W4PropertyAttribute@2@@Z 0000000180041fdb f   node:node.exe
 0001:00040fe7       __imp_load_?Error@Exception@v8@@SA?AV?$Local@VValue@v8@@@2@V?$Local@VString@v8@@@2@@Z 0000000180041fe7 f   node:node.exe
 0001:00040ff3       __imp_load_?TypeError@Exception@v8@@SA?AV?$Local@VValue@v8@@@2@V?$Local@VString@v8@@@2@@Z 0000000180041ff3 f   node:node.exe
 0001:00040fff       __imp_load_?New@Array@v8@@SA?AV?$Local@VArray@v8@@@2@PEAVIsolate@2@H@Z 0000000180041fff f   node:node.exe
 0001:0004100b       __imp_load_?SetClassName@FunctionTemplate@v8@@QEAAXV?$Local@VString@v8@@@2@@Z 000000018004200b f   node:node.exe
 0001:00041017       __imp_load_?PrototypeTemplate@FunctionTemplate@v8@@QEAA?AV?$Local@VObjectTemplate@v8@@@2@XZ 0000000180042017 f   node:node.exe
 0001:00041023       __imp_load_?InstanceTemplate@FunctionTemplate@v8@@QEAA?AV?$Local@VObjectTemplate@v8@@@2@XZ 0000000180042023 f   node:node.exe
 0001:0004102f       __imp_load_?GetFunction@FunctionTemplate@v8@@QEAA?AV?$Local@VFunction@v8@@@2@XZ 000000018004202f f   node:node.exe
 0001:0004103b       __imp_load_?New@FunctionTemplate@v8@@SA?AV?$Local@VFunctionTemplate@v8@@@2@PEAVIsolate@2@P6AXAEBV?$FunctionCallbackInfo@VValue@v8@@@2@@ZV?$Local@VValue@v8@@@2@V?$Local@VSignature@v8@@@2@HW4ConstructorBehavior@2@@Z 000000018004203b f   node:node.exe
 0001:00041047       __imp_load_?ToLocalEmpty@V8@v8@@CAXXZ 0000000180042047 f   node:node.exe
 0001:00041053       __imp_load_?ClearWeak@V8@v8@@CAPEAXPEAPEAVObject@internal@2@@Z 0000000180042053 f   node:node.exe
 0001:0004105f       __imp_load_?MakeWeak@V8@v8@@CAXPEAPEAVObject@internal@2@PEAXP6AXAEBV?$WeakCallbackInfo@X@2@@ZW4WeakCallbackType@2@@Z 000000018004205f f   node:node.exe
 0001:0004106b       __imp_load_?DisposeGlobal@V8@v8@@CAXPEAPEAVObject@internal@2@@Z 000000018004206b f   node:node.exe
 0001:00041077       __imp_load_?GlobalizeReference@V8@v8@@CAPEAPEAVObject@internal@2@PEAVIsolate@42@PEAPEAV342@@Z 0000000180042077 f   node:node.exe
 0001:00041083       __imp_load_?Uint32Value@Value@v8@@QEBAIXZ 0000000180042083 f   node:node.exe
 0001:0004108f       __imp_load_?BooleanValue@Value@v8@@QEBA_NXZ 000000018004208f f   node:node.exe
 0001:0004109b       __imp_load_?ToInteger@Value@v8@@QEBA?AV?$MaybeLocal@VInteger@v8@@@2@V?$Local@VContext@v8@@@2@@Z 000000018004209b f   node:node.exe
 0001:000410a7       __imp_load_?IsUint32@Value@v8@@QEBA_NXZ 00000001800420a7 f   node:node.exe
 0001:000410b3       __imp_load_?IsBoolean@Value@v8@@QEBA_NXZ 00000001800420b3 f   node:node.exe
 0001:000410bf       __imp_load_?IsObject@Value@v8@@QEBA_NXZ 00000001800420bf f   node:node.exe
 0001:000410cb       __imp_load_?IsFunction@Value@v8@@QEBA_NXZ 00000001800420cb f   node:node.exe
 0001:000410d7       __imp_load_?Escape@EscapableHandleScope@v8@@AEAAPEAPEAVObject@internal@2@PEAPEAV342@@Z 00000001800420d7 f   node:node.exe
 0001:000410e3       __imp_load_??0EscapableHandleScope@v8@@QEAA@PEAVIsolate@1@@Z 00000001800420e3 f   node:node.exe
 0001:000410ef       __imp_load_?NewFromTwoByte@String@v8@@SA?AV?$MaybeLocal@VString@v8@@@2@PEAVIsolate@2@PEBGW4NewStringType@2@H@Z 00000001800420ef f   node:node.exe
 0001:000410fb       __imp_load_?NewFromUtf8@String@v8@@SA?AV?$MaybeLocal@VString@v8@@@2@PEAVIsolate@2@PEBDW4NewStringType@2@H@Z 00000001800420fb f   node:node.exe
 0001:00041107       __imp_load_?WriteUtf8@String@v8@@QEBAHPEADHPEAHH@Z 0000000180042107 f   node:node.exe
 0001:00041113       __imp_load_?Length@String@v8@@QEBAHXZ 0000000180042113 f   node:node.exe
 0001:0004111f       __imp_load_?SlowGetAlignedPointerFromInternalField@Object@v8@@AEAAPEAXH@Z 000000018004211f f   node:node.exe
 0001:0004112b       __imp_load_?SlowGetInternalField@Object@v8@@AEAA?AV?$Local@VValue@v8@@@2@H@Z 000000018004212b f   node:node.exe
 0001:00041137       __imp_load_?New@Object@v8@@SA?AV?$Local@VObject@v8@@@2@PEAVIsolate@2@@Z 0000000180042137 f   node:node.exe
 0001:00041143       __imp_load_?SetAlignedPointerInInternalField@Object@v8@@QEAAXHPEAX@Z 0000000180042143 f   node:node.exe
 0001:0004114f       __imp_load_?SetInternalField@Object@v8@@QEAAXHV?$Local@VValue@v8@@@2@@Z 000000018004214f f   node:node.exe
 0001:0004115b       __imp_load_?InternalFieldCount@Object@v8@@QEAAHXZ 000000018004215b f   node:node.exe
 0001:00041167       __imp_load_?Get@Object@v8@@QEAA?AV?$Local@VValue@v8@@@2@V32@@Z 0000000180042167 f   node:node.exe
 0001:00041173       __imp_load_?Set@Object@v8@@QEAA_NV?$Local@VValue@v8@@@2@0@Z 0000000180042173 f   node:node.exe
 0001:0004117f       __imp_load_?Set@Object@v8@@QEAA_NIV?$Local@VValue@v8@@@2@@Z 000000018004217f f   node:node.exe
 0001:0004118b       __imp_load_?SetInternalFieldCount@ObjectTemplate@v8@@QEAAXH@Z 000000018004218b f   node:node.exe
 0001:00041197       __imp_load_?NewInstance@ObjectTemplate@v8@@QEAA?AV?$MaybeLocal@VObject@v8@@@2@V?$Local@VContext@v8@@@2@@Z 0000000180042197 f   node:node.exe
 0001:000411a3       __imp_load_?New@ObjectTemplate@v8@@SA?AV?$Local@VObjectTemplate@v8@@@2@PEAVIsolate@2@V?$Local@VFunctionTemplate@v8@@@2@@Z 00000001800421a3 f   node:node.exe
 0001:000411af       __imp_load_uv_close        00000001800421af f   node:node.exe
 0001:000411bb       __imp_load_uv_poll_stop    00000001800421bb f   node:node.exe
 0001:000411c7       __imp_load_?EmitAsyncDestroy@node@@YAXPEAVIsolate@v8@@Uasync_context@1@@Z 00000001800421c7 f   node:node.exe
 0001:000411d3       __imp_load_node_module_register 00000001800421d3 f   node:node.exe
 0001:000411df       __imp_load_?MakeCallback@node@@YA?AV?$MaybeLocal@VValue@v8@@@v8@@PEAVIsolate@3@V?$Local@VObject@v8@@@3@V?$Local@VFunction@v8@@@3@HPEAV?$Local@VValue@v8@@@3@Uasync_context@1@@Z 00000001800421df f   node:node.exe
 0001:000411eb       __imp_load_?EmitAsyncInit@node@@YA?AUasync_context@1@PEAVIsolate@v8@@V?$Local@VObject@v8@@@4@V?$Local@VString@v8@@@4@N@Z 00000001800421eb f   node:node.exe
 0001:000411f7       __imp_load_uv_poll_init_socket 00000001800421f7 f   node:node.exe
 0001:00041203       __imp_load_uv_poll_start   0000000180042203 f   node:node.exe
 0001:0004120f       __imp_load_uv_default_loop 000000018004220f f   node:node.exe
 0001:0004121b       __imp_load_?ToObject@Value@v8@@QEBA?AV?$Local@VObject@v8@@@2@XZ 000000018004221b f   node:node.exe
 0001:00041227       __imp_load_?ToString@Value@v8@@QEBA?AV?$Local@VString@v8@@@2@XZ 0000000180042227 f   node:node.exe
 0001:00041250       __security_check_cookie    0000000180042250 f   LIBCMT:_amdsecgs_.obj
 0001:00041274       ??_V@YAXPEAX@Z             0000000180042274 f   LIBCMT:delete_array.obj
 0001:00041274       ??3@YAXPEAX_K@Z            0000000180042274 f   LIBCMT:delete_scalar_size.obj
 0001:0004127c       ??2@YAPEAX_K@Z             000000018004227c f   LIBCMT:new_scalar.obj
 0001:000412b8       __scrt_acquire_startup_lock 00000001800422b8 f   LIBCMT:utility.obj
 0001:000412f4       __scrt_dllmain_after_initialize_c 00000001800422f4 f   LIBCMT:utility.obj
 0001:00041328       __scrt_dllmain_before_initialize_c 0000000180042328 f   LIBCMT:utility.obj
 0001:00041340       __scrt_dllmain_crt_thread_attach 0000000180042340 f   LIBCMT:utility.obj
 0001:00041368       __scrt_dllmain_crt_thread_detach 0000000180042368 f   LIBCMT:utility.obj
 0001:00041380       __scrt_dllmain_exception_filter 0000000180042380 f   LIBCMT:utility.obj
 0001:000413e4       __scrt_dllmain_uninitialize_c 00000001800423e4 f   LIBCMT:utility.obj
 0001:00041414       __scrt_dllmain_uninitialize_critical 0000000180042414 f   LIBCMT:utility.obj
 0001:00041428       __scrt_initialize_crt      0000000180042428 f   LIBCMT:utility.obj
 0001:00041474       __scrt_initialize_onexit_tables 0000000180042474 f   LIBCMT:utility.obj
 0001:00041540       __scrt_is_nonwritable_in_current_image 0000000180042540 f   LIBCMT:utility.obj
 0001:000415dc       __scrt_release_startup_lock 00000001800425dc f   LIBCMT:utility.obj
 0001:00041600       __scrt_uninitialize_crt    0000000180042600 f   LIBCMT:utility.obj
 0001:0004162c       _onexit                    000000018004262c f   LIBCMT:utility.obj
 0001:0004167c       atexit                     000000018004267c f   LIBCMT:utility.obj
 0001:00041694       ??_U@YAPEAX_K@Z            0000000180042694 f   LIBCMT:new_array.obj
 0001:000419e8       _DllMainCRTStartup         00000001800429e8 f   LIBCMT:dll_dllmain.obj
 0001:00041a28       __raise_securityfailure    0000000180042a28 f   LIBCMT:gs_report.obj
 0001:00041a5c       __report_gsfailure         0000000180042a5c f   LIBCMT:gs_report.obj
 0001:00041b30       __report_rangecheckfailure 0000000180042b30 f   LIBCMT:gs_report.obj
 0001:00041b44       __report_securityfailure   0000000180042b44 f   LIBCMT:gs_report.obj
 0001:00041cc4       ??0bad_alloc@std@@QEAA@AEBV01@@Z 0000000180042cc4 f i LIBCMT:throw_bad_alloc.obj
 0001:00041d04       ??0bad_alloc@std@@QEAA@XZ  0000000180042d04 f i LIBCMT:throw_bad_alloc.obj
 0001:00041d24       ??0bad_array_new_length@std@@QEAA@AEBV01@@Z 0000000180042d24 f i LIBCMT:throw_bad_alloc.obj
 0001:00041d64       ??0bad_array_new_length@std@@QEAA@XZ 0000000180042d64 f i LIBCMT:throw_bad_alloc.obj
 0001:00041d84       ??0exception@std@@QEAA@AEBV01@@Z 0000000180042d84 f i LIBCMT:throw_bad_alloc.obj
 0001:00041dbc       ??1bad_alloc@std@@UEAA@XZ  0000000180042dbc f i LIBCMT:throw_bad_alloc.obj
 0001:00041dbc       ??1bad_array_new_length@std@@UEAA@XZ 0000000180042dbc f i LIBCMT:throw_bad_alloc.obj
 0001:00041dd0       ??_Ebad_array_new_length@std@@UEAAPEAXI@Z 0000000180042dd0 f i LIBCMT:throw_bad_alloc.obj
 0001:00041dd0       ??_Eexception@std@@UEAAPEAXI@Z 0000000180042dd0 f i LIBCMT:throw_bad_alloc.obj
 0001:00041dd0       ??_Gexception@std@@UEAAPEAXI@Z 0000000180042dd0 f i LIBCMT:throw_bad_alloc.obj
 0001:00041dd0       ??_Gbad_array_new_length@std@@UEAAPEAXI@Z 0000000180042dd0 f i LIBCMT:throw_bad_alloc.obj
 0001:00041dd0       ??_Gbad_alloc@std@@UEAAPEAXI@Z 0000000180042dd0 f i LIBCMT:throw_bad_alloc.obj
 0001:00041dd0       ??_Ebad_alloc@std@@UEAAPEAXI@Z 0000000180042dd0 f i LIBCMT:throw_bad_alloc.obj
 0001:00041e14       ?__scrt_throw_std_bad_alloc@@YAXXZ 0000000180042e14 f   LIBCMT:throw_bad_alloc.obj
 0001:00041e34       ?__scrt_throw_std_bad_array_new_length@@YAXXZ 0000000180042e34 f   LIBCMT:throw_bad_alloc.obj
 0001:00041e54       ?what@exception@std@@UEBAPEBDXZ 0000000180042e54 f i LIBCMT:throw_bad_alloc.obj
 0001:00041e68       __isa_available_init       0000000180042e68 f   LIBCMT:_cpu_disp_.obj
 0001:00042030       __scrt_is_ucrt_dll_in_use  0000000180043030 f   LIBCMT:ucrt_detection.obj
 0001:0004203c       __crt_debugger_hook        000000018004303c f   LIBCMT:utility_desktop.obj
 0001:00042044       __scrt_fastfail            0000000180043044 f   LIBCMT:utility_desktop.obj
 0001:0004218c       _guard_check_icall         000000018004318c f i LIBCMT:checkcfg.obj
 0001:00042194       __security_init_cookie     0000000180043194 f   LIBCMT:gs_support.obj
 0001:00042240       ?__scrt_initialize_type_info@@YAXXZ 0000000180043240 f   LIBCMT:tncleanup.obj
 0001:00042250       ?__scrt_uninitialize_type_info@@YAXXZ 0000000180043250 f   LIBCMT:tncleanup.obj
 0001:0004225c       __local_stdio_scanf_options 000000018004325c f i LIBCMT:default_local_stdio_options.obj
 0001:00042264       __scrt_initialize_default_local_stdio_options 0000000180043264 f   LIBCMT:default_local_stdio_options.obj
 0001:00042280       __scrt_get_dyn_tls_init_callback 0000000180043280 f   LIBCMT:dyn_tls_init.obj
 0001:00042288       _RTC_Initialize            0000000180043288 f   LIBCMT:_initsect_.obj
 0001:000422d4       _RTC_Terminate             00000001800432d4 f   LIBCMT:_initsect_.obj
 0001:00042320       ??_Etype_info@@UEAAPEAXI@Z 0000000180043320 f i LIBCMT:std_type_info_static.obj
 0001:00042320       ??_Gtype_info@@UEAAPEAXI@Z 0000000180043320 f i LIBCMT:std_type_info_static.obj
 0001:00042360       memcpy                     0000000180043360 f   libvcruntime:memcpy.obj
 0001:00042360       memmove                    0000000180043360 f   libvcruntime:memcpy.obj
 0001:00042798       strstr                     0000000180043798 f   libvcruntime:strstr.obj
 0001:0004298c       strchr                     000000018004398c f   libvcruntime:strchr.obj
 0001:00042a18       strrchr                    0000000180043a18 f   libvcruntime:strrchr.obj
 0001:00042b58       _purecall                  0000000180043b58 f   libvcruntime:purevirt.obj
 0001:00042b94       __vcrt_initialize          0000000180043b94 f   libvcruntime:initialization.obj
 0001:00042bc8       __vcrt_thread_attach       0000000180043bc8 f   libvcruntime:initialization.obj
 0001:00042bdc       __vcrt_thread_detach       0000000180043bdc f   libvcruntime:initialization.obj
 0001:00042bf0       __vcrt_uninitialize        0000000180043bf0 f   libvcruntime:initialization.obj
 0001:00042c10       __vcrt_uninitialize_critical 0000000180043c10 f   libvcruntime:initialization.obj
 0001:00042c20       __C_specific_handler       0000000180043c20 f   libvcruntime:_chandler_.obj
 0001:00042e1c       __std_exception_copy       0000000180043e1c f   libvcruntime:std_exception.obj
 0001:00042eac       __std_exception_destroy    0000000180043eac f   libvcruntime:std_exception.obj
 0001:00042ed4       _CxxThrowException         0000000180043ed4 f   libvcruntime:throw.obj
 0001:00042fc0       memset                     0000000180043fc0 f   libvcruntime:memset.obj
 0001:00043160       __std_type_info_destroy_list 0000000180044160 f   libvcruntime:std_type_info.obj
 0001:0004318c       __vcrt_initialize_pure_virtual_call_handler 000000018004418c f   libvcruntime:purevirt_data.obj
 0001:000431b0       __vcrt_freefls             00000001800441b0 f   libvcruntime:per_thread_data.obj
 0001:000431d0       __vcrt_freeptd             00000001800441d0 f   libvcruntime:per_thread_data.obj
 0001:00043220       __vcrt_getptd_noexit       0000000180044220 f   libvcruntime:per_thread_data.obj
 0001:000432d8       __vcrt_initialize_ptd      00000001800442d8 f   libvcruntime:per_thread_data.obj
 0001:00043318       __vcrt_uninitialize_ptd    0000000180044318 f   libvcruntime:per_thread_data.obj
 0001:0004333c       __vcrt_initialize_locks    000000018004433c f   libvcruntime:locks.obj
 0001:00043384       __vcrt_uninitialize_locks  0000000180044384 f   libvcruntime:locks.obj
 0001:00043584       __vcrt_FlsAlloc            0000000180044584 f   libvcruntime:winapi_downlevel.obj
 0001:000435d8       __vcrt_FlsFree             00000001800445d8 f   libvcruntime:winapi_downlevel.obj
 0001:0004362c       __vcrt_FlsGetValue         000000018004462c f   libvcruntime:winapi_downlevel.obj
 0001:00043680       __vcrt_FlsSetValue         0000000180044680 f   libvcruntime:winapi_downlevel.obj
 0001:000436e8       __vcrt_InitializeCriticalSectionEx 00000001800446e8 f   libvcruntime:winapi_downlevel.obj
 0001:00043760       __vcrt_initialize_winapi_thunks 0000000180044760 f   libvcruntime:winapi_downlevel.obj
 0001:000437ac       __vcrt_uninitialize_winapi_thunks 00000001800447ac f   libvcruntime:winapi_downlevel.obj
 0001:00043800       _local_unwind              0000000180044800 f   libvcruntime:_jmpuwind_.obj
 0001:00043830       _NLG_Notify                0000000180044830 f   libvcruntime:_jmpuwind_.obj
 0001:00043850       __NLG_Dispatch2            0000000180044850 f   libvcruntime:_jmpuwind_.obj
 0001:00043860       __NLG_Return2              0000000180044860 f   libvcruntime:_jmpuwind_.obj
 0001:00043864       ??$?RV<lambda_7b91131dde12e1c3dfc74ff76b3f2eac>@@AEAV<lambda_dd75445284c072d0bd3768540cc698fa>@@V<lambda_16bc4ecb55b4718497c16bceaea2ceaf>@@@?$__crt_seh_guarded_call@H@@QEAAH$$QEAV<lambda_7b91131dde12e1c3dfc74ff76b3f2eac>@@AEAV<lambda_dd75445284c072d0bd3768540cc698fa>@@$$QEAV<lambda_16bc4ecb55b4718497c16bceaea2ceaf>@@@Z 0000000180044864 f i libucrt:output.obj
 0001:000438a4       ??$?RV<lambda_aa279a7bcb127014629d5b1d62c7325d>@@AEAV<lambda_0a64b6a4deda75c01876f29c44fc5eb3>@@V<lambda_3323e69fbefe9d1a11713e670d47cdfa>@@@?$__crt_seh_guarded_call@H@@QEAAH$$QEAV<lambda_aa279a7bcb127014629d5b1d62c7325d>@@AEAV<lambda_0a64b6a4deda75c01876f29c44fc5eb3>@@$$QEAV<lambda_3323e69fbefe9d1a11713e670d47cdfa>@@@Z 00000001800448a4 f i libucrt:output.obj
 0001:000438e4       ??$ensure_buffer_is_big_enough@D@formatting_buffer@__crt_stdio_output@@QEAA_N_K@Z 00000001800448e4 f i libucrt:output.obj
 0001:00043990       ??$is_wide_character_specifier@D@__crt_stdio_output@@YA_N_KDW4length_modifier@0@@Z 0000000180044990 f i libucrt:output.obj
 0001:000439c0       ??$is_wide_character_specifier@_W@__crt_stdio_output@@YA_N_K_WW4length_modifier@0@@Z 00000001800449c0 f i libucrt:output.obj
 0001:00043a04       ??$type_case_integer_parse_into_buffer@I@?$output_processor@DV?$stream_output_adapter@D@__crt_stdio_output@@V?$standard_base@DV?$stream_output_adapter@D@__crt_stdio_output@@@2@@__crt_stdio_output@@AEAAXII_N@Z 0000000180044a04 f i libucrt:output.obj
 0001:00043a04       ??$type_case_integer_parse_into_buffer@I@?$output_processor@_WV?$stream_output_adapter@_W@__crt_stdio_output@@V?$standard_base@_WV?$stream_output_adapter@_W@__crt_stdio_output@@@2@@__crt_stdio_output@@AEAAXII_N@Z 0000000180044a04 f i libucrt:output.obj
 0001:00043a04       ??$type_case_integer_parse_into_buffer@I@?$output_processor@DV?$string_output_adapter@D@__crt_stdio_output@@V?$standard_base@DV?$string_output_adapter@D@__crt_stdio_output@@@2@@__crt_stdio_output@@AEAAXII_N@Z 0000000180044a04 f i libucrt:output.obj
 0001:00043a04       ??$type_case_integer_parse_into_buffer@I@?$output_processor@_WV?$string_output_adapter@_W@__crt_stdio_output@@V?$standard_base@_WV?$string_output_adapter@_W@__crt_stdio_output@@@2@@__crt_stdio_output@@AEAAXII_N@Z 0000000180044a04 f i libucrt:output.obj
 0001:00043aa0       ??$type_case_integer_parse_into_buffer@_K@?$output_processor@DV?$string_output_adapter@D@__crt_stdio_output@@V?$standard_base@DV?$string_output_adapter@D@__crt_stdio_output@@@2@@__crt_stdio_output@@AEAAX_KI_N@Z 0000000180044aa0 f i libucrt:output.obj
 0001:00043aa0       ??$type_case_integer_parse_into_buffer@_K@?$output_processor@DV?$stream_output_adapter@D@__crt_stdio_output@@V?$standard_base@DV?$stream_output_adapter@D@__crt_stdio_output@@@2@@__crt_stdio_output@@AEAAX_KI_N@Z 0000000180044aa0 f i libucrt:output.obj
 0001:00043aa0       ??$type_case_integer_parse_into_buffer@_K@?$output_processor@_WV?$string_output_adapter@_W@__crt_stdio_output@@V?$standard_base@_WV?$string_output_adapter@_W@__crt_stdio_output@@@2@@__crt_stdio_output@@AEAAX_KI_N@Z 0000000180044aa0 f i libucrt:output.obj
 0001:00043aa0       ??$type_case_integer_parse_into_buffer@_K@?$output_processor@_WV?$stream_output_adapter@_W@__crt_stdio_output@@V?$standard_base@_WV?$stream_output_adapter@_W@__crt_stdio_output@@@2@@__crt_stdio_output@@AEAAX_KI_N@Z 0000000180044aa0 f i libucrt:output.obj
 0001:00043b3c       ??$write_multiple_characters@V?$stream_output_adapter@D@__crt_stdio_output@@D@__crt_stdio_output@@YAXAEBV?$stream_output_adapter@D@0@DHQEAH@Z 0000000180044b3c f i libucrt:output.obj
 0001:00043bc0       ??$write_multiple_characters@V?$stream_output_adapter@_W@__crt_stdio_output@@D@__crt_stdio_output@@YAXAEBV?$stream_output_adapter@_W@0@DHQEAH@Z 0000000180044bc0 f i libucrt:output.obj
 0001:00043c50       ??$write_multiple_characters@V?$string_output_adapter@D@__crt_stdio_output@@D@__crt_stdio_output@@YAXAEBV?$string_output_adapter@D@0@DHQEAH@Z 0000000180044c50 f i libucrt:output.obj
 0001:00043cac       ??$write_multiple_characters@V?$string_output_adapter@_W@__crt_stdio_output@@D@__crt_stdio_output@@YAXAEBV?$string_output_adapter@_W@0@DHQEAH@Z 0000000180044cac f i libucrt:output.obj
 0001:00043d1c       ??0?$output_processor@DV?$stream_output_adapter@D@__crt_stdio_output@@V?$standard_base@DV?$stream_output_adapter@D@__crt_stdio_output@@@2@@__crt_stdio_output@@QEAA@AEBV?$stream_output_adapter@D@1@_KQEBDQEAU__crt_locale_pointers@@QEAD@Z 0000000180044d1c f i libucrt:output.obj
 0001:00043d1c       ??0?$output_processor@DV?$string_output_adapter@D@__crt_stdio_output@@V?$standard_base@DV?$string_output_adapter@D@__crt_stdio_output@@@2@@__crt_stdio_output@@QEAA@AEBV?$string_output_adapter@D@1@_KQEBDQEAU__crt_locale_pointers@@QEAD@Z 0000000180044d1c f i libucrt:output.obj
 0001:00043d98       ??0?$output_processor@_WV?$string_output_adapter@_W@__crt_stdio_output@@V?$standard_base@_WV?$string_output_adapter@_W@__crt_stdio_output@@@2@@__crt_stdio_output@@QEAA@AEBV?$string_output_adapter@_W@1@_KQEB_WQEAU__crt_locale_pointers@@QEAD@Z 0000000180044d98 f i libucrt:output.obj
 0001:00043d98       ??0?$output_processor@_WV?$stream_output_adapter@_W@__crt_stdio_output@@V?$standard_base@_WV?$stream_output_adapter@_W@__crt_stdio_output@@@2@@__crt_stdio_output@@QEAA@AEBV?$stream_output_adapter@_W@1@_KQEB_WQEAU__crt_locale_pointers@@QEAD@Z 0000000180044d98 f i libucrt:output.obj
 0001:00043e18       ??0_LocaleUpdate@@QEAA@QEAU__crt_locale_pointers@@@Z 0000000180044e18 f i libucrt:output.obj
 0001:00044088       ?force_decimal_point@__crt_stdio_output@@YAXPEADQEAU__crt_locale_pointers@@@Z 0000000180045088 f i libucrt:output.obj
 0001:000440f8       ?parse_int_from_format_string@?$output_processor@DV?$stream_output_adapter@D@__crt_stdio_output@@V?$standard_base@DV?$stream_output_adapter@D@__crt_stdio_output@@@2@@__crt_stdio_output@@AEAA_NQEAH@Z 00000001800450f8 f i libucrt:output.obj
 0001:000440f8       ?parse_int_from_format_string@?$output_processor@DV?$string_output_adapter@D@__crt_stdio_output@@V?$standard_base@DV?$string_output_adapter@D@__crt_stdio_output@@@2@@__crt_stdio_output@@AEAA_NQEAH@Z 00000001800450f8 f i libucrt:output.obj
 0001:0004417c       ?parse_int_from_format_string@?$output_processor@_WV?$stream_output_adapter@_W@__crt_stdio_output@@V?$standard_base@_WV?$stream_output_adapter@_W@__crt_stdio_output@@@2@@__crt_stdio_output@@AEAA_NQEAH@Z 000000018004517c f i libucrt:output.obj
 0001:0004417c       ?parse_int_from_format_string@?$output_processor@_WV?$string_output_adapter@_W@__crt_stdio_output@@V?$standard_base@_WV?$string_output_adapter@_W@__crt_stdio_output@@@2@@__crt_stdio_output@@AEAA_NQEAH@Z 000000018004517c f i libucrt:output.obj
 0001:000441fc       ?process@?$output_processor@DV?$stream_output_adapter@D@__crt_stdio_output@@V?$standard_base@DV?$stream_output_adapter@D@__crt_stdio_output@@@2@@__crt_stdio_output@@QEAAHXZ 00000001800451fc f i libucrt:output.obj
 0001:0004440c       ?process@?$output_processor@DV?$string_output_adapter@D@__crt_stdio_output@@V?$standard_base@DV?$string_output_adapter@D@__crt_stdio_output@@@2@@__crt_stdio_output@@QEAAHXZ 000000018004540c f i libucrt:output.obj
 0001:00044610       ?process@?$output_processor@_WV?$stream_output_adapter@_W@__crt_stdio_output@@V?$standard_base@_WV?$stream_output_adapter@_W@__crt_stdio_output@@@2@@__crt_stdio_output@@QEAAHXZ 0000000180045610 f i libucrt:output.obj
 0001:00044888       ?process@?$output_processor@_WV?$string_output_adapter@_W@__crt_stdio_output@@V?$standard_base@_WV?$string_output_adapter@_W@__crt_stdio_output@@@2@@__crt_stdio_output@@QEAAHXZ 0000000180045888 f i libucrt:output.obj
 0001:00044b04       ?state_case_normal@?$output_processor@DV?$stream_output_adapter@D@__crt_stdio_output@@V?$standard_base@DV?$stream_output_adapter@D@__crt_stdio_output@@@2@@__crt_stdio_output@@AEAA_NXZ 0000000180045b04 f i libucrt:output.obj
 0001:00044b74       ?state_case_normal@?$output_processor@DV?$string_output_adapter@D@__crt_stdio_output@@V?$standard_base@DV?$string_output_adapter@D@__crt_stdio_output@@@2@@__crt_stdio_output@@AEAA_NXZ 0000000180045b74 f i libucrt:output.obj
 0001:00044be8       ?state_case_normal_tchar@?$output_processor@DV?$stream_output_adapter@D@__crt_stdio_output@@V?$standard_base@DV?$stream_output_adapter@D@__crt_stdio_output@@@2@@__crt_stdio_output@@AEAA_ND@Z 0000000180045be8 f i libucrt:output.obj
 0001:00044c7c       ?state_case_normal_tchar@?$output_processor@DV?$string_output_adapter@D@__crt_stdio_output@@V?$standard_base@DV?$string_output_adapter@D@__crt_stdio_output@@@2@@__crt_stdio_output@@AEAA_ND@Z 0000000180045c7c f i libucrt:output.obj
 0001:00044d14       ?state_case_size@?$output_processor@DV?$stream_output_adapter@D@__crt_stdio_output@@V?$standard_base@DV?$stream_output_adapter@D@__crt_stdio_output@@@2@@__crt_stdio_output@@AEAA_NXZ 0000000180045d14 f i libucrt:output.obj
 0001:00044e90       ?state_case_size@?$output_processor@DV?$string_output_adapter@D@__crt_stdio_output@@V?$standard_base@DV?$string_output_adapter@D@__crt_stdio_output@@@2@@__crt_stdio_output@@AEAA_NXZ 0000000180045e90 f i libucrt:output.obj
 0001:0004500c       ?state_case_size@?$output_processor@_WV?$stream_output_adapter@_W@__crt_stdio_output@@V?$standard_base@_WV?$stream_output_adapter@_W@__crt_stdio_output@@@2@@__crt_stdio_output@@AEAA_NXZ 000000018004600c f i libucrt:output.obj
 0001:000451b0       ?state_case_size@?$output_processor@_WV?$string_output_adapter@_W@__crt_stdio_output@@V?$standard_base@_WV?$string_output_adapter@_W@__crt_stdio_output@@@2@@__crt_stdio_output@@AEAA_NXZ 00000001800461b0 f i libucrt:output.obj
 0001:00045354       ?state_case_type@?$output_processor@DV?$stream_output_adapter@D@__crt_stdio_output@@V?$standard_base@DV?$stream_output_adapter@D@__crt_stdio_output@@@2@@__crt_stdio_output@@AEAA_NXZ 0000000180046354 f i libucrt:output.obj
 0001:000455d0       ?state_case_type@?$output_processor@DV?$string_output_adapter@D@__crt_stdio_output@@V?$standard_base@DV?$string_output_adapter@D@__crt_stdio_output@@@2@@__crt_stdio_output@@AEAA_NXZ 00000001800465d0 f i libucrt:output.obj
 0001:0004584c       ?state_case_type@?$output_processor@_WV?$stream_output_adapter@_W@__crt_stdio_output@@V?$standard_base@_WV?$stream_output_adapter@_W@__crt_stdio_output@@@2@@__crt_stdio_output@@AEAA_NXZ 000000018004684c f i libucrt:output.obj
 0001:00045b18       ?state_case_type@?$output_processor@_WV?$string_output_adapter@_W@__crt_stdio_output@@V?$standard_base@_WV?$string_output_adapter@_W@__crt_stdio_output@@@2@@__crt_stdio_output@@AEAA_NXZ 0000000180046b18 f i libucrt:output.obj
 0001:00045de4       ?type_case_Z@?$output_processor@DV?$stream_output_adapter@D@__crt_stdio_output@@V?$standard_base@DV?$stream_output_adapter@D@__crt_stdio_output@@@2@@__crt_stdio_output@@AEAA_NXZ 0000000180046de4 f i libucrt:output.obj
 0001:00045de4       ?type_case_Z@?$output_processor@DV?$string_output_adapter@D@__crt_stdio_output@@V?$standard_base@DV?$string_output_adapter@D@__crt_stdio_output@@@2@@__crt_stdio_output@@AEAA_NXZ 0000000180046de4 f i libucrt:output.obj
 0001:00045e64       ?type_case_Z@?$output_processor@_WV?$stream_output_adapter@_W@__crt_stdio_output@@V?$standard_base@_WV?$stream_output_adapter@_W@__crt_stdio_output@@@2@@__crt_stdio_output@@AEAA_NXZ 0000000180046e64 f i libucrt:output.obj
 0001:00045e64       ?type_case_Z@?$output_processor@_WV?$string_output_adapter@_W@__crt_stdio_output@@V?$standard_base@_WV?$string_output_adapter@_W@__crt_stdio_output@@@2@@__crt_stdio_output@@AEAA_NXZ 0000000180046e64 f i libucrt:output.obj
 0001:00045ee4       ?type_case_a@?$output_processor@DV?$string_output_adapter@D@__crt_stdio_output@@V?$standard_base@DV?$string_output_adapter@D@__crt_stdio_output@@@2@@__crt_stdio_output@@AEAA_NXZ 0000000180046ee4 f i libucrt:output.obj
 0001:00045ee4       ?type_case_a@?$output_processor@DV?$stream_output_adapter@D@__crt_stdio_output@@V?$standard_base@DV?$stream_output_adapter@D@__crt_stdio_output@@@2@@__crt_stdio_output@@AEAA_NXZ 0000000180046ee4 f i libucrt:output.obj
 0001:00046100       ?type_case_a@?$output_processor@_WV?$stream_output_adapter@_W@__crt_stdio_output@@V?$standard_base@_WV?$stream_output_adapter@_W@__crt_stdio_output@@@2@@__crt_stdio_output@@AEAA_NXZ 0000000180047100 f i libucrt:output.obj
 0001:00046100       ?type_case_a@?$output_processor@_WV?$string_output_adapter@_W@__crt_stdio_output@@V?$standard_base@_WV?$string_output_adapter@_W@__crt_stdio_output@@@2@@__crt_stdio_output@@AEAA_NXZ 0000000180047100 f i libucrt:output.obj
 0001:00046344       ?type_case_c_tchar@?$output_processor@DV?$string_output_adapter@D@__crt_stdio_output@@V?$standard_base@DV?$string_output_adapter@D@__crt_stdio_output@@@2@@__crt_stdio_output@@AEAA_ND@Z 0000000180047344 f i libucrt:output.obj
 0001:00046344       ?type_case_c_tchar@?$output_processor@DV?$stream_output_adapter@D@__crt_stdio_output@@V?$standard_base@DV?$stream_output_adapter@D@__crt_stdio_output@@@2@@__crt_stdio_output@@AEAA_ND@Z 0000000180047344 f i libucrt:output.obj
 0001:000463f8       ?type_case_c_tchar@?$output_processor@_WV?$string_output_adapter@_W@__crt_stdio_output@@V?$standard_base@_WV?$string_output_adapter@_W@__crt_stdio_output@@@2@@__crt_stdio_output@@AEAA_N_W@Z 00000001800473f8 f i libucrt:output.obj
 0001:000463f8       ?type_case_c_tchar@?$output_processor@_WV?$stream_output_adapter@_W@__crt_stdio_output@@V?$standard_base@_WV?$stream_output_adapter@_W@__crt_stdio_output@@@2@@__crt_stdio_output@@AEAA_N_W@Z 00000001800473f8 f i libucrt:output.obj
 0001:000464a0       ?type_case_integer@?$output_processor@_WV?$string_output_adapter@_W@__crt_stdio_output@@V?$standard_base@_WV?$string_output_adapter@_W@__crt_stdio_output@@@2@@__crt_stdio_output@@AEAA_NI_N@Z 00000001800474a0 f i libucrt:output.obj
 0001:000464a0       ?type_case_integer@?$output_processor@DV?$stream_output_adapter@D@__crt_stdio_output@@V?$standard_base@DV?$stream_output_adapter@D@__crt_stdio_output@@@2@@__crt_stdio_output@@AEAA_NI_N@Z 00000001800474a0 f i libucrt:output.obj
 0001:000464a0       ?type_case_integer@?$output_processor@_WV?$stream_output_adapter@_W@__crt_stdio_output@@V?$standard_base@_WV?$stream_output_adapter@_W@__crt_stdio_output@@@2@@__crt_stdio_output@@AEAA_NI_N@Z 00000001800474a0 f i libucrt:output.obj
 0001:000464a0       ?type_case_integer@?$output_processor@DV?$string_output_adapter@D@__crt_stdio_output@@V?$standard_base@DV?$string_output_adapter@D@__crt_stdio_output@@@2@@__crt_stdio_output@@AEAA_NI_N@Z 00000001800474a0 f i libucrt:output.obj
 0001:00046640       ?type_case_n@?$output_processor@DV?$stream_output_adapter@D@__crt_stdio_output@@V?$standard_base@DV?$stream_output_adapter@D@__crt_stdio_output@@@2@@__crt_stdio_output@@AEAA_NXZ 0000000180047640 f i libucrt:output.obj
 0001:00046640       ?type_case_n@?$output_processor@_WV?$string_output_adapter@_W@__crt_stdio_output@@V?$standard_base@_WV?$string_output_adapter@_W@__crt_stdio_output@@@2@@__crt_stdio_output@@AEAA_NXZ 0000000180047640 f i libucrt:output.obj
 0001:00046640       ?type_case_n@?$output_processor@DV?$string_output_adapter@D@__crt_stdio_output@@V?$standard_base@DV?$string_output_adapter@D@__crt_stdio_output@@@2@@__crt_stdio_output@@AEAA_NXZ 0000000180047640 f i libucrt:output.obj
 0001:00046640       ?type_case_n@?$output_processor@_WV?$stream_output_adapter@_W@__crt_stdio_output@@V?$standard_base@_WV?$stream_output_adapter@_W@__crt_stdio_output@@@2@@__crt_stdio_output@@AEAA_NXZ 0000000180047640 f i libucrt:output.obj
 0001:0004671c       ?type_case_s@?$output_processor@DV?$stream_output_adapter@D@__crt_stdio_output@@V?$standard_base@DV?$stream_output_adapter@D@__crt_stdio_output@@@2@@__crt_stdio_output@@AEAA_NXZ 000000018004771c f i libucrt:output.obj
 0001:0004671c       ?type_case_s@?$output_processor@DV?$string_output_adapter@D@__crt_stdio_output@@V?$standard_base@DV?$string_output_adapter@D@__crt_stdio_output@@@2@@__crt_stdio_output@@AEAA_NXZ 000000018004771c f i libucrt:output.obj
 0001:000467ac       ?type_case_s@?$output_processor@_WV?$stream_output_adapter@_W@__crt_stdio_output@@V?$standard_base@_WV?$stream_output_adapter@_W@__crt_stdio_output@@@2@@__crt_stdio_output@@AEAA_NXZ 00000001800477ac f i libucrt:output.obj
 0001:000467ac       ?type_case_s@?$output_processor@_WV?$string_output_adapter@_W@__crt_stdio_output@@V?$standard_base@_WV?$string_output_adapter@_W@__crt_stdio_output@@@2@@__crt_stdio_output@@AEAA_NXZ 00000001800477ac f i libucrt:output.obj
 0001:00046874       ?validate_stream_is_ansi_if_required@?$__acrt_stdio_char_traits@D@@SA_NQEAU_iobuf@@@Z 0000000180047874 f i libucrt:output.obj
 0001:00046900       ?write_stored_string_tchar@?$output_processor@DV?$stream_output_adapter@D@__crt_stdio_output@@V?$standard_base@DV?$stream_output_adapter@D@__crt_stdio_output@@@2@@__crt_stdio_output@@AEAA_ND@Z 0000000180047900 f i libucrt:output.obj
 0001:000469d8       ?write_stored_string_tchar@?$output_processor@DV?$string_output_adapter@D@__crt_stdio_output@@V?$standard_base@DV?$string_output_adapter@D@__crt_stdio_output@@@2@@__crt_stdio_output@@AEAA_ND@Z 00000001800479d8 f i libucrt:output.obj
 0001:00046ab0       ?write_stored_string_tchar@?$output_processor@_WV?$stream_output_adapter@_W@__crt_stdio_output@@V?$standard_base@_WV?$stream_output_adapter@_W@__crt_stdio_output@@@2@@__crt_stdio_output@@AEAA_N_W@Z 0000000180047ab0 f i libucrt:output.obj
 0001:00046b9c       ?write_stored_string_tchar@?$output_processor@_WV?$string_output_adapter@_W@__crt_stdio_output@@V?$standard_base@_WV?$string_output_adapter@_W@__crt_stdio_output@@@2@@__crt_stdio_output@@AEAA_N_W@Z 0000000180047b9c f i libucrt:output.obj
 0001:00046c8c       ?write_string@?$stream_output_adapter@D@__crt_stdio_output@@QEBAXQEBDHQEAH1@Z 0000000180047c8c f i libucrt:output.obj
 0001:00046d84       ?write_string@?$stream_output_adapter@_W@__crt_stdio_output@@QEBAXQEB_WHQEAH1@Z 0000000180047d84 f i libucrt:output.obj
 0001:00046e90       ?write_string@?$string_output_adapter@D@__crt_stdio_output@@QEBAXQEBDHQEAH1@Z 0000000180047e90 f i libucrt:output.obj
 0001:00046f4c       ?write_string@?$string_output_adapter@_W@__crt_stdio_output@@QEBAXQEB_WHQEAH1@Z 0000000180047f4c f i libucrt:output.obj
 0001:0004700c       __stdio_common_vfprintf    000000018004800c f   libucrt:output.obj
 0001:00047098       __stdio_common_vfwprintf   0000000180048098 f   libucrt:output.obj
 0001:00047124       __stdio_common_vsprintf    0000000180048124 f   libucrt:output.obj
 0001:00047358       __stdio_common_vswprintf   0000000180048358 f   libucrt:output.obj
 0001:00047590       __ascii_stricmp            0000000180048590 f   libucrt:stricmp.obj
 0001:000475cc       _stricmp                   00000001800485cc f   libucrt:stricmp.obj
 0001:000475cc       stricmp                    00000001800485cc f   libucrt:stricmp.obj
 0001:00047614       _stricmp_l                 0000000180048614 f   libucrt:stricmp.obj
 0001:000476c8       free                       00000001800486c8 f   libucrt:free.obj
 0001:000480b8       ??$ftprintf@PEAU_iobuf@@PEB_WAEBQEB_WAEBQEB_WAEBI@?$__crt_char_traits@_W@@SAH$$QEAPEAU_iobuf@@$$QEAPEB_WAEBQEB_W2AEBI@Z 00000001800490b8 f i libucrt:assert.obj
 0001:000480e0       _wassert                   00000001800490e0 f   libucrt:assert.obj
 0001:00048164       fwprintf                   0000000180049164 f i libucrt:assert.obj
 0001:000481a8       swprintf                   00000001800491a8 f i libucrt:assert.obj
 0001:000481fc       malloc                     00000001800491fc f   libucrt:malloc.obj
 0001:00048204       __acrt_errno_from_os_error 0000000180049204 f   libucrt:errno.obj
 0001:0004824c       __acrt_errno_map_os_error  000000018004924c f   libucrt:errno.obj
 0001:0004829c       __doserrno                 000000018004929c f   libucrt:errno.obj
 0001:000482bc       _errno                     00000001800492bc f   libucrt:errno.obj
 0001:0004850c       __acrt_initialize_thread_local_exit_callback 000000018004950c f   libucrt:exit.obj
 0001:00048514       _cexit                     0000000180049514 f   libucrt:exit.obj
 0001:00048524       _exit                      0000000180049524 f   libucrt:exit.obj
 0001:00048530       _is_c_termination_complete 0000000180049530 f   libucrt:exit.obj
 0001:00048538       exit                       0000000180049538 f   libucrt:exit.obj
 0001:00048544       __acrt_initialize_stdio    0000000180049544 f   libucrt:_file.obj
 0001:00048664       __acrt_iob_func            0000000180049664 f   libucrt:_file.obj
 0001:00048678       __acrt_uninitialize_stdio  0000000180049678 f   libucrt:_file.obj
 0001:000486d4       _lock_file                 00000001800496d4 f   libucrt:_file.obj
 0001:000486e0       _unlock_file               00000001800496e0 f   libucrt:_file.obj
 0001:000486ec       ??$is_overflow_condition@K@__crt_strtox@@YA_NIK@Z 00000001800496ec f i libucrt:strtox.obj
 0001:00048718       ??$parse_integer@KV?$c_string_character_source@D@__crt_strtox@@@__crt_strtox@@YAKQEAU__crt_locale_pointers@@V?$c_string_character_source@D@0@H_N@Z 0000000180049718 f i libucrt:strtox.obj
 0001:00048a2c       ??$parse_integer@KV?$c_string_character_source@_W@__crt_strtox@@@__crt_strtox@@YAKQEAU__crt_locale_pointers@@V?$c_string_character_source@_W@0@H_N@Z 0000000180049a2c f i libucrt:strtox.obj
 0001:00049100       strtol                     000000018004a100 f   libucrt:strtox.obj
 0001:00049130       strtoul                    000000018004a130 f   libucrt:strtox.obj
 0001:00049160       wcstol                     000000018004a160 f   libucrt:strtox.obj
 0001:000491a0       strncmp                    000000018004a1a0 f   libucrt:strncmp.obj
 0001:00049220       ??$make_c_string_character_source@DPEAPEAD@__crt_strtox@@YA?AV?$c_string_character_source@D@0@QEBDQEAPEAD@Z 000000018004a220 f i libucrt:strtox.obj
 0001:00049220       ??$make_c_string_character_source@D$$T@__crt_strtox@@YA?AV?$c_string_character_source@D@0@QEBD$$T@Z 000000018004a220 f i libucrt:atox.obj
 0001:00049220       ??$make_c_string_character_source@_WPEAPEA_W@__crt_strtox@@YA?AV?$c_string_character_source@_W@0@QEB_WQEAPEA_W@Z 000000018004a220 f i libucrt:strtox.obj
 0001:00049234       atol                       000000018004a234 f   libucrt:atox.obj
 0001:00049234       atoi                       000000018004a234 f   libucrt:atox.obj
 0001:00049454       getenv                     000000018004a454 f   libucrt:getenv.obj
 0001:0004945c       getenv_s                   000000018004a45c f   libucrt:getenv.obj
 0001:00049464       ??$?RV<lambda_c36588078e9f5dfd39652860aa6b3aaf>@@AEAV<lambda_ec61778202f4f5fc7e7711acc23c3bca>@@V<lambda_dc9d2797ccde5d239b4a0efae8ebd7db>@@@?$__crt_seh_guarded_call@P6AXH@Z@@QEAAP6AXH@Z$$QEAV<lambda_c36588078e9f5dfd39652860aa6b3aaf>@@AEAV<lambda_ec61778202f4f5fc7e7711acc23c3bca>@@$$QEAV<lambda_dc9d2797ccde5d239b4a0efae8ebd7db>@@@Z 000000018004a464 f i libucrt:signal.obj
 0001:00049590       __acrt_get_sigabrt_handler 000000018004a590 f   libucrt:signal.obj
 0001:000495c0       __acrt_initialize_signal_handlers 000000018004a5c0 f   libucrt:signal.obj
 0001:000495e0       raise                      000000018004a5e0 f   libucrt:signal.obj
 0001:0004987c       signal                     000000018004a87c f   libucrt:signal.obj
 0001:00049a68       __ascii_strnicmp           000000018004aa68 f   libucrt:strnicmp.obj
 0001:00049ab0       _strnicmp                  000000018004aab0 f   libucrt:strnicmp.obj
 0001:00049b00       _strnicmp_l                000000018004ab00 f   libucrt:strnicmp.obj
 0001:00049bdc       realloc                    000000018004abdc f   libucrt:realloc.obj
 0001:00049be4       _fputc_nolock              000000018004abe4 f   libucrt:fputc.obj
 0001:00049bfc       fputc                      000000018004abfc f   libucrt:fputc.obj
 0001:00049d1c       ??$?RV<lambda_25e01c9ba3607ae47bf7ea803dd53646>@@AEAV<lambda_55f9cbce55698c0319f95c01c080475b>@@V<lambda_1e572b46264c157efb34a6cfecbbfc9c>@@@?$__crt_seh_guarded_call@H@@QEAAH$$QEAV<lambda_25e01c9ba3607ae47bf7ea803dd53646>@@AEAV<lambda_55f9cbce55698c0319f95c01c080475b>@@$$QEAV<lambda_1e572b46264c157efb34a6cfecbbfc9c>@@@Z 000000018004ad1c f i libucrt:puts.obj
 0001:00049de4       puts                       000000018004ade4 f   libucrt:puts.obj
 0001:00049fc4       fgets                      000000018004afc4 f   libucrt:fgets.obj
 0001:00049fcc       ??$?RV<lambda_a81aa23bb2c9577c1e55b9d0b57d9de4>@@AEAV<lambda_9a20e10065b92b5193c3597a66cba9d4>@@V<lambda_cb3a421ff86d8a5f008440ee6b28fa9c>@@@?$__crt_seh_guarded_call@H@@QEAAH$$QEAV<lambda_a81aa23bb2c9577c1e55b9d0b57d9de4>@@AEAV<lambda_9a20e10065b92b5193c3597a66cba9d4>@@$$QEAV<lambda_cb3a421ff86d8a5f008440ee6b28fa9c>@@@Z 000000018004afcc f i libucrt:fputs.obj
 0001:0004a078       fputs                      000000018004b078 f   libucrt:fputs.obj
 0001:0004a178       ??$__crt_time_is_leap_year@H@@YA_NH@Z 000000018004b178 f i libucrt:tzset.obj
 0001:0004ac10       __tzset                    000000018004bc10 f   libucrt:tzset.obj
 0001:0004ac4c       _isindst                   000000018004bc4c f   libucrt:tzset.obj
 0001:0004ac7c       _tzset                     000000018004bc7c f   libucrt:tzset.obj
 0001:0004aca0       __acrt_call_reportfault    000000018004bca0 f   libucrt:invalid_parameter.obj
 0001:0004adfc       __acrt_initialize_invalid_parameter_handler 000000018004bdfc f   libucrt:invalid_parameter.obj
 0001:0004ae04       _invalid_parameter         000000018004be04 f   libucrt:invalid_parameter.obj
 0001:0004aeac       _invalid_parameter_noinfo  000000018004beac f   libucrt:invalid_parameter.obj
 0001:0004aecc       _invoke_watson             000000018004becc f   libucrt:invalid_parameter.obj
 0001:0004af14       _set_invalid_parameter_handler 000000018004bf14 f   libucrt:invalid_parameter.obj
 0001:0004af48       calloc                     000000018004bf48 f   libucrt:calloc.obj
 0001:0004af50       _set_abort_behavior        000000018004bf50 f   libucrt:abort.obj
 0001:0004af6c       abort                      000000018004bf6c f   libucrt:abort.obj
 0001:0004b354       _findclose                 000000018004c354 f   libucrt:findfile.obj
 0001:0004b37c       _findfirst64i32            000000018004c37c f   libucrt:findfile.obj
 0001:0004b448       _findnext64i32             000000018004c448 f   libucrt:findfile.obj
 0001:0004b4c0       iscntrl                    000000018004c4c0 f i libucrt:_ctype.obj
 0001:0004b534       isdigit                    000000018004c534 f i libucrt:_ctype.obj
 0001:0004b5a8       isspace                    000000018004c5a8 f i libucrt:_ctype.obj
 0001:0004b61c       ??$?RV<lambda_bfedae4ebbf01fab1bb6dcc6a9e276e0>@@AEAV<lambda_2fe9b910cf3cbf4a0ab98a02ba45b3ec>@@V<lambda_237c231691f317818eb88cc1d5d642d6>@@@?$__crt_seh_guarded_call@H@@QEAAH$$QEAV<lambda_bfedae4ebbf01fab1bb6dcc6a9e276e0>@@AEAV<lambda_2fe9b910cf3cbf4a0ab98a02ba45b3ec>@@$$QEAV<lambda_237c231691f317818eb88cc1d5d642d6>@@@Z 000000018004c61c f i libucrt:close.obj
 0001:0004b690       _close                     000000018004c690 f   libucrt:close.obj
 0001:0004b734       _close_nolock              000000018004c734 f   libucrt:close.obj
 0001:0004b7f0       fileno                     000000018004c7f0 f   libucrt:fileno.obj
 0001:0004b7f0       _fileno                    000000018004c7f0 f   libucrt:fileno.obj
 0001:0004b818       __acrt_lowio_create_handle_array 000000018004c818 f   libucrt:osfinfo.obj
 0001:0004b8b0       __acrt_lowio_destroy_handle_array 000000018004c8b0 f   libucrt:osfinfo.obj
 0001:0004b900       __acrt_lowio_ensure_fh_exists 000000018004c900 f   libucrt:osfinfo.obj
 0001:0004b9b8       __acrt_lowio_lock_fh       000000018004c9b8 f   libucrt:osfinfo.obj
 0001:0004b9dc       __acrt_lowio_set_os_handle 000000018004c9dc f   libucrt:osfinfo.obj
 0001:0004ba9c       __acrt_lowio_unlock_fh     000000018004ca9c f   libucrt:osfinfo.obj
 0001:0004bac0       _alloc_osfhnd              000000018004cac0 f   libucrt:osfinfo.obj
 0001:0004bbf0       _free_osfhnd               000000018004cbf0 f   libucrt:osfinfo.obj
 0001:0004bcac       _get_osfhandle             000000018004ccac f   libucrt:osfinfo.obj
 0001:0004bd24       __acrt_stdio_flush_nolock  000000018004cd24 f   libucrt:fflush.obj
 0001:0004bd9c       _fflush_nolock             000000018004cd9c f   libucrt:fflush.obj
 0001:0004bde8       _flushall                  000000018004cde8 f   libucrt:fflush.obj
 0001:0004bed8       fflush                     000000018004ced8 f   libucrt:fflush.obj
 0001:0004bfec       fopen                      000000018004cfec f   libucrt:fopen.obj
 0001:0004bff8       _fclose_nolock             000000018004cff8 f   libucrt:fclose.obj
 0001:0004c07c       fclose                     000000018004d07c f   libucrt:fclose.obj
 0001:0004c8b0       _stat64                    000000018004d8b0 f   libucrt:stat.obj
 0001:0004c9a8       _tolower_l                 000000018004d9a8 f   libucrt:tolower_toupper.obj
 0001:0004cae8       _toupper_l                 000000018004dae8 f   libucrt:tolower_toupper.obj
 0001:0004cc28       tolower                    000000018004dc28 f   libucrt:tolower_toupper.obj
 0001:0004cc54       toupper                    000000018004dc54 f   libucrt:tolower_toupper.obj
 0001:0004cc80       _fwrite_nolock             000000018004dc80 f   libucrt:fwrite.obj
 0001:0004ce1c       strnlen                    000000018004de1c f   libucrt:strnlen.obj
 0001:0004cf78       wcsnlen                    000000018004df78 f   libucrt:strnlen.obj
 0001:0004d168       strerror_s                 000000018004e168 f   libucrt:strerror.obj
 0001:0004d214       __fpe_flt_rounds           000000018004e214 f   libucrt:fegetround.obj
 0001:0004d330       qsort                      000000018004e330 f   libucrt:qsort.obj
 0001:0004d664       __acrt_initialize_new_handler 000000018004e664 f   libucrt:new_handler.obj
 0001:0004d66c       _callnewh                  000000018004e66c f   libucrt:new_handler.obj
 0001:0004d6ac       _query_new_handler         000000018004e6ac f   libucrt:new_handler.obj
 0001:0004d6e0       _seh_filter_dll            000000018004e6e0 f   libucrt:exception_filter.obj
 0001:0004d6f4       _seh_filter_exe            000000018004e6f4 f   libucrt:exception_filter.obj
 0001:0004da40       __acrt_allocate_buffer_for_argv 000000018004ea40 f   libucrt:argv_parsing.obj
 0001:0004daa4       _configure_narrow_argv     000000018004eaa4 f   libucrt:argv_parsing.obj
 0001:0004e180       __dcrt_get_or_create_narrow_environment_nolock 000000018004f180 f   libucrt:environment_initialization.obj
 0001:0004e188       __dcrt_get_or_create_wide_environment_nolock 000000018004f188 f   libucrt:environment_initialization.obj
 0001:0004e190       __dcrt_uninitialize_environments_nolock 000000018004f190 f   libucrt:environment_initialization.obj
 0001:0004e1c8       _initialize_narrow_environment 000000018004f1c8 f   libucrt:environment_initialization.obj
 0001:0004e1d0       ??$?RV<lambda_b8c45f8f788dd370798f47cfe8ac3a86>@@AEAV<lambda_4e60a939b0d047cfe11ddc22648dfba9>@@V<lambda_332c3edc96d0294ec56c57d38c1cdfd5>@@@?$__crt_seh_guarded_call@H@@QEAAH$$QEAV<lambda_b8c45f8f788dd370798f47cfe8ac3a86>@@AEAV<lambda_4e60a939b0d047cfe11ddc22648dfba9>@@$$QEAV<lambda_332c3edc96d0294ec56c57d38c1cdfd5>@@@Z 000000018004f1d0 f i libucrt:onexit.obj
 0001:0004e20c       ??$?RV<lambda_e24bbb7b643b32fcea6fa61b31d4c984>@@AEAV<lambda_275893d493268fdec8709772e3fcec0e>@@V<lambda_9d71df4d7cf3f480f8d633942495c3b0>@@@?$__crt_seh_guarded_call@H@@QEAAH$$QEAV<lambda_e24bbb7b643b32fcea6fa61b31d4c984>@@AEAV<lambda_275893d493268fdec8709772e3fcec0e>@@$$QEAV<lambda_9d71df4d7cf3f480f8d633942495c3b0>@@@Z 000000018004f20c f i libucrt:onexit.obj
 0001:0004e588       _crt_atexit                000000018004f588 f   libucrt:onexit.obj
 0001:0004e598       _execute_onexit_table      000000018004f598 f   libucrt:onexit.obj
 0001:0004e5d4       _initialize_onexit_table   000000018004f5d4 f   libucrt:onexit.obj
 0001:0004e614       _register_onexit_function  000000018004f614 f   libucrt:onexit.obj
 0001:0004e790       __acrt_initialize          000000018004f790 f   libucrt:initialization.obj
 0001:0004e7a4       __acrt_thread_attach       000000018004f7a4 f   libucrt:initialization.obj
 0001:0004e7b8       __acrt_thread_detach       000000018004f7b8 f   libucrt:initialization.obj
 0001:0004e7c8       __acrt_uninitialize        000000018004f7c8 f   libucrt:initialization.obj
 0001:0004e7dc       __acrt_uninitialize_critical 000000018004f7dc f   libucrt:initialization.obj
 0001:0004e7ec       _initterm                  000000018004f7ec f   libucrt:initterm.obj
 0001:0004e864       _initterm_e                000000018004f864 f   libucrt:initterm.obj
 0001:0004e8b0       terminate                  000000018004f8b0 f   libucrt:terminate.obj
 0001:0004e8d8       _strdup                    000000018004f8d8 f   libucrt:strdup.obj
 0001:0004e8d8       strdup                     000000018004f8d8 f   libucrt:strdup.obj
 0001:0004ec8c       putenv                     000000018004fc8c f   libucrt:putenv.obj
 0001:0004ec8c       _putenv                    000000018004fc8c f   libucrt:putenv.obj
 0001:0004f084       getcwd                     0000000180050084 f   libucrt:getcwd.obj
 0001:0004f084       _getcwd                    0000000180050084 f   libucrt:getcwd.obj
 0001:0004f0ac       _wgetcwd                   00000001800500ac f   libucrt:getcwd.obj
 0001:0004f0d4       ??$__acrt_stdio_parse_mode@D@@YA?AU__acrt_stdio_stream_mode@@QEBD@Z 00000001800500d4 f i libucrt:fdopen.obj
 0001:0004f370       strcpy_s                   0000000180050370 f   libucrt:strcpy_s.obj
 0001:0004f3d0       _free_base                 00000001800503d0 f   libucrt:free_base.obj
 0001:0004f410       _malloc_base               0000000180050410 f   libucrt:malloc_base.obj
 0001:0004f470       _calloc_base               0000000180050470 f   libucrt:calloc_base.obj
 0001:0004f4e8       _mbtowc_l                  00000001800504e8 f   libucrt:mbtowc.obj
 0001:0004f630       mbtowc                     0000000180050630 f   libucrt:mbtowc.obj
 0001:0004f638       _wctomb_s_l                0000000180050638 f   libucrt:wctomb.obj
 0001:0004f7bc       wctomb_s                   00000001800507bc f   libucrt:wctomb.obj
 0001:0004f7d0       ??$?RV<lambda_46352004c1216016012b18bd6f87e700>@@AEAV<lambda_3bd07e1a1191394380780325891bf33f>@@V<lambda_334532d3f185bcaa59b5be82d7d22bff>@@@?$__crt_seh_guarded_call@X@@QEAAX$$QEAV<lambda_46352004c1216016012b18bd6f87e700>@@AEAV<lambda_3bd07e1a1191394380780325891bf33f>@@$$QEAV<lambda_334532d3f185bcaa59b5be82d7d22bff>@@@Z 00000001800507d0 f i libucrt:per_thread_data.obj
 0001:0004f830       ??$?RV<lambda_5e887d1dcbef67a5eb4283622ba103bf>@@AEAV<lambda_4466841279450cc726390878d4a41900>@@V<lambda_341c25c0346d94847f1f3c463c57e077>@@@?$__crt_seh_guarded_call@X@@QEAAX$$QEAV<lambda_5e887d1dcbef67a5eb4283622ba103bf>@@AEAV<lambda_4466841279450cc726390878d4a41900>@@$$QEAV<lambda_341c25c0346d94847f1f3c463c57e077>@@@Z 0000000180050830 f i libucrt:per_thread_data.obj
 0001:0004f878       ??$?RV<lambda_72d1df2b273a38828b1ce30cbf4cdab5>@@AEAV<lambda_876a65b173b8412d3a47c70a915b0cf4>@@V<lambda_41932305e351933ebe8f8be3ed8bb5dc>@@@?$__crt_seh_guarded_call@X@@QEAAX$$QEAV<lambda_72d1df2b273a38828b1ce30cbf4cdab5>@@AEAV<lambda_876a65b173b8412d3a47c70a915b0cf4>@@$$QEAV<lambda_41932305e351933ebe8f8be3ed8bb5dc>@@@Z 0000000180050878 f i libucrt:per_thread_data.obj
 0001:0004f8b8       ??$?RV<lambda_fb3a7dec4e47f37f22dae91bb15c9095>@@AEAV<lambda_698284760c8add0bfb0756c19673e34b>@@V<lambda_dfb8eca1e75fef3034a8fb18dd509707>@@@?$__crt_seh_guarded_call@X@@QEAAX$$QEAV<lambda_fb3a7dec4e47f37f22dae91bb15c9095>@@AEAV<lambda_698284760c8add0bfb0756c19673e34b>@@$$QEAV<lambda_dfb8eca1e75fef3034a8fb18dd509707>@@@Z 00000001800508b8 f i libucrt:per_thread_data.obj
 0001:0004fb48       __acrt_freeptd             0000000180050b48 f   libucrt:per_thread_data.obj
 0001:0004fb8c       __acrt_getptd              0000000180050b8c f   libucrt:per_thread_data.obj
 0001:0004fc20       __acrt_getptd_noexit       0000000180050c20 f   libucrt:per_thread_data.obj
 0001:0004fcc0       __acrt_initialize_ptd      0000000180050cc0 f   libucrt:per_thread_data.obj
 0001:0004fcfc       __acrt_uninitialize_ptd    0000000180050cfc f   libucrt:per_thread_data.obj
 0001:0004fd20       __acrt_update_locale_info  0000000180050d20 f   libucrt:locale_update.obj
 0001:0004fd54       __acrt_update_multibyte_info 0000000180050d54 f   libucrt:locale_update.obj
 0001:0004fd88       ?__acrt_fp_classify@@YA?AW4__acrt_fp_class@@AEBN@Z 0000000180050d88 f i libucrt:cvt.obj
 0001:000507c0       __acrt_fp_format           00000001800517c0 f   libucrt:cvt.obj
 0001:00050a04       _fputwc_nolock             0000000180051a04 f   libucrt:fputwc.obj
 0001:00050b80       _get_printf_count_output   0000000180051b80 f   libucrt:printf_count_output.obj
 0001:00050b98       __acrt_stdio_begin_temporary_buffering_nolock 0000000180051b98 f   libucrt:_sftbuf.obj
 0001:00050c68       __acrt_stdio_end_temporary_buffering_nolock 0000000180051c68 f   libucrt:_sftbuf.obj
 0001:00050ca4       __acrt_set_locale_changed  0000000180051ca4 f   libucrt:wsetlocale.obj
 0001:00050cb0       __acrt_uninitialize_locale 0000000180051cb0 f   libucrt:wsetlocale.obj
 0001:00050ee0       __acrt_initialize_lowio    0000000180051ee0 f   libucrt:ioinit.obj
 0001:00050f1c       __acrt_uninitialize_lowio  0000000180051f1c f   libucrt:ioinit.obj
 0001:00050f5c       _query_app_type            0000000180051f5c f   libucrt:report_runtime_error.obj
 0001:0005108c       _itow_s                    000000018005208c f   libucrt:xtoa.obj
 0001:000510ac       _set_error_mode            00000001800520ac f   libucrt:set_error_mode.obj
 0001:000510ec       wcscat_s                   00000001800520ec f   libucrt:wcscat_s.obj
 0001:0005116c       wcscpy_s                   000000018005216c f   libucrt:wcscpy_s.obj
 0001:000511d4       wcsncat_s                  00000001800521d4 f   libucrt:wcsncat_s.obj
 0001:000512fc       __acrt_show_wide_message_box 00000001800522fc f   libucrt:crtmbox.obj
 0001:00051418       ??$?RV<lambda_7a5ef57ff966f610505f1d28a3d40618>@@AEAV<lambda_b721fa326cdb32351d23dfa67958c160>@@V<lambda_5e0fb27672408a07956fe59e48ccb2aa>@@@?$__crt_seh_guarded_call@H@@QEAAH$$QEAV<lambda_7a5ef57ff966f610505f1d28a3d40618>@@AEAV<lambda_b721fa326cdb32351d23dfa67958c160>@@$$QEAV<lambda_5e0fb27672408a07956fe59e48ccb2aa>@@@Z 0000000180052418 f i libucrt:setvbuf.obj
 0001:00051548       setvbuf                    0000000180052548 f   libucrt:setvbuf.obj
 0001:000515e8       __acrt_initialize_locks    00000001800525e8 f   libucrt:locks.obj
 0001:00051630       __acrt_lock                0000000180052630 f   libucrt:locks.obj
 0001:0005164c       __acrt_uninitialize_locks  000000018005264c f   libucrt:locks.obj
 0001:00051684       __acrt_unlock              0000000180052684 f   libucrt:locks.obj
 0001:00051840       __acrt_AreFileApisANSI     0000000180052840 f   libucrt:winapi_thunks.obj
 0001:0005188c       __acrt_CompareStringEx     000000018005288c f   libucrt:winapi_thunks.obj
 0001:0005197c       __acrt_FlsAlloc            000000018005297c f   libucrt:winapi_thunks.obj
 0001:000519d4       __acrt_FlsFree             00000001800529d4 f   libucrt:winapi_thunks.obj
 0001:00051a2c       __acrt_FlsGetValue         0000000180052a2c f   libucrt:winapi_thunks.obj
 0001:00051a84       __acrt_FlsSetValue         0000000180052a84 f   libucrt:winapi_thunks.obj
 0001:00051aec       __acrt_GetFileInformationByHandleEx 0000000180052aec f   libucrt:winapi_thunks.obj
 0001:00051b78       __acrt_InitializeCriticalSectionEx 0000000180052b78 f   libucrt:winapi_thunks.obj
 0001:00051bf0       __acrt_LCMapStringEx       0000000180052bf0 f   libucrt:winapi_thunks.obj
 0001:00051ce0       __acrt_LocaleNameToLCID    0000000180052ce0 f   libucrt:winapi_thunks.obj
 0001:00051d48       __acrt_MessageBoxW         0000000180052d48 f   libucrt:winapi_thunks.obj
 0001:00051dd0       __acrt_can_show_message_box 0000000180052dd0 f   libucrt:winapi_thunks.obj
 0001:00051e2c       __acrt_get_parent_window   0000000180052e2c f   libucrt:winapi_thunks.obj
 0001:00051ebc       __acrt_initialize_winapi_thunks 0000000180052ebc f   libucrt:winapi_thunks.obj
 0001:00051ef4       __acrt_is_interactive      0000000180052ef4 f   libucrt:winapi_thunks.obj
 0001:00051fc8       __acrt_is_packaged_app     0000000180052fc8 f   libucrt:winapi_thunks.obj
 0001:00052050       __acrt_uninitialize_winapi_thunks 0000000180053050 f   libucrt:winapi_thunks.obj
 0001:00052094       _fcloseall                 0000000180053094 f   libucrt:closeall.obj
 0001:00052148       __acrt_stdio_free_buffer_nolock 0000000180053148 f   libucrt:_freebuf.obj
 0001:00052188       __pctype_func              0000000180053188 f   libucrt:ctype.obj
 0001:000521b8       iswctype                   00000001800531b8 f   libucrt:iswctype.obj
 0001:00052228       _isctype_l                 0000000180053228 f   libucrt:isctype.obj
 0001:00052338       _wcsnicoll                 0000000180053338 f   libucrt:wcsnicol.obj
 0001:000523cc       _wcsnicoll_l               00000001800533cc f   libucrt:wcsnicol.obj
 0001:00052500       _strnicoll                 0000000180053500 f   libucrt:strnicol.obj
 0001:00052518       _strnicoll_l               0000000180053518 f   libucrt:strnicol.obj
 0001:00052618       __acrt_initialize_timeset  0000000180053618 f   libucrt:timeset.obj
 0001:00052648       __daylight                 0000000180053648 f   libucrt:timeset.obj
 0001:00052650       __dstbias                  0000000180053650 f   libucrt:timeset.obj
 0001:00052658       __timezone                 0000000180053658 f   libucrt:timeset.obj
 0001:00052660       __tzname                   0000000180053660 f   libucrt:timeset.obj
 0001:00052668       _get_daylight              0000000180053668 f   libucrt:timeset.obj
 0001:00052698       _get_dstbias               0000000180053698 f   libucrt:timeset.obj
 0001:000526c8       _get_timezone              00000001800536c8 f   libucrt:timeset.obj
 0001:000526f8       _realloc_base              00000001800536f8 f   libucrt:realloc_base.obj
 0001:0005298c       __acrt_stdio_flush_and_write_narrow_nolock 000000018005398c f   libucrt:_flsbuf.obj
 0001:00052a74       __acrt_stdio_flush_and_write_wide_nolock 0000000180053a74 f   libucrt:_flsbuf.obj
 0001:00052b60       _fgetc_nolock              0000000180053b60 f   libucrt:fgetc.obj
 0001:00052ba4       _getc_nolock               0000000180053ba4 f   libucrt:fgetc.obj
 0001:00052bac       strncpy_s                  0000000180053bac f   libucrt:strncpy_s.obj
 0001:00052c80       ___lc_codepage_func        0000000180053c80 f   libucrt:initctype.obj
 0001:00052cb0       __acrt_copy_path_to_wide_string 0000000180053cb0 f   libucrt:string_utilities.obj
 0001:00052da8       __acrt_copy_to_char        0000000180053da8 f   libucrt:string_utilities.obj
 0001:0005311c       __loctotime64_t            000000018005411c f   libucrt:loctotime.obj
 0001:00053124       _openfile                  0000000180054124 f   libucrt:openfile.obj
 0001:000531c0       ??$?RV<lambda_b521505b218e5242e90febf6bfebc422>@@AEAV<lambda_6978c1fb23f02e42e1d9e99668cc68aa>@@V<lambda_314360699dd331753a4119843814e9a7>@@@?$__crt_seh_guarded_call@H@@QEAAH$$QEAV<lambda_b521505b218e5242e90febf6bfebc422>@@AEAV<lambda_6978c1fb23f02e42e1d9e99668cc68aa>@@$$QEAV<lambda_314360699dd331753a4119843814e9a7>@@@Z 00000001800541c0 f i libucrt:commit.obj
 0001:0005324c       _commit                    000000018005424c f   libucrt:commit.obj
 0001:00053880       _write                     0000000180054880 f   libucrt:write.obj
 0001:0005396c       _write_nolock              000000018005496c f   libucrt:write.obj
 0001:00053c50       ?__acrt_stdio_allocate_stream@@YA?AV__crt_stdio_stream@@XZ 0000000180054c50 f   libucrt:stream.obj
 0001:00053cac       ?__acrt_stdio_free_stream@@YAXV__crt_stdio_stream@@@Z 0000000180054cac f   libucrt:stream.obj
 0001:00053ddc       _getdrive                  0000000180054ddc f   libucrt:drive.obj
 0001:00053f58       _wfullpath                 0000000180054f58 f   libucrt:fullpath.obj
 0001:0005403c       wcspbrk                    000000018005503c f   libucrt:wcspbrk.obj
 0001:00054074       _wcsicmp                   0000000180055074 f   libucrt:wcsicmp.obj
 0001:000540fc       _wcsicmp_l                 00000001800550fc f   libucrt:wcsicmp.obj
 0001:000541ec       _isleadbyte_l              00000001800551ec f i libucrt:_wctype.obj
 0001:00054588       __acrt_LCMapStringA        0000000180055588 f   libucrt:lcmapstringa.obj
 0001:000547ac       _lseeki64                  00000001800557ac f   libucrt:lseek.obj
 0001:000547b4       _lseeki64_nolock           00000001800557b4 f   libucrt:lseek.obj
 0001:00054cec       _read                      0000000180055cec f   libucrt:read.obj
 0001:00054e04       _read_nolock               0000000180055e04 f   libucrt:read.obj
 0001:00055414       __acrt_stdio_refill_and_read_narrow_nolock 0000000180056414 f   libucrt:_filbuf.obj
 0001:0005541c       __sys_errlist              000000018005641c f   libucrt:syserr.obj
 0001:00055424       __sys_nerr                 0000000180056424 f   libucrt:syserr.obj
 0001:0005542c       _getfpcontrolword          000000018005642c f   libucrt:_fenvutils.obj
 0001:00055444       _getfpstatusword           0000000180056444 f   libucrt:_fenvutils.obj
 0001:00055458       _setfpcontrolword          0000000180056458 f   libucrt:_fenvutils.obj
 0001:00055464       _setfpstatusword           0000000180056464 f   libucrt:_fenvutils.obj
 0001:00055990       ?expand_if_necessary@?$argument_list@D@?A0xca0879c4@@AEAAHXZ 0000000180056990 f i libucrt:argv_wildcards.obj
 0001:00055a58       __acrt_expand_narrow_argv_wildcards 0000000180056a58 f   libucrt:argv_wildcards.obj
 0001:00055a60       ??$?RV<lambda_99476a1ad63dd22509b5d3e65b0ffc95>@@AEAV<lambda_ad1ced32f4ac17aa236e5ef05d6b3b7c>@@V<lambda_f7424dd8d45958661754dc4f2697e9c3>@@@?$__crt_seh_guarded_call@X@@QEAAX$$QEAV<lambda_99476a1ad63dd22509b5d3e65b0ffc95>@@AEAV<lambda_ad1ced32f4ac17aa236e5ef05d6b3b7c>@@$$QEAV<lambda_f7424dd8d45958661754dc4f2697e9c3>@@@Z 0000000180056a60 f i libucrt:mbctype.obj
 0001:0005615c       __acrt_initialize_multibyte 000000018005715c f   libucrt:mbctype.obj
 0001:00056184       __acrt_update_thread_multibyte_data 0000000180057184 f   libucrt:mbctype.obj
 0001:00056244       _setmbcp_nolock            0000000180057244 f   libucrt:mbctype.obj
 0001:00056564       _ismbblead                 0000000180057564 f   libucrt:ismbbyte.obj
 0001:00056578       __acrt_initialize_command_line 0000000180057578 f   libucrt:argv_data.obj
 0001:000565a0       __dcrt_get_narrow_environment_from_os 00000001800575a0 f   libucrt:get_environment_from_os.obj
 0001:000566a4       __dcrt_get_wide_environment_from_os 00000001800576a4 f   libucrt:get_environment_from_os.obj
 0001:00056efc       __dcrt_set_variable_in_narrow_environment_nolock 0000000180057efc f   libucrt:setenv.obj
 0001:00056f04       __dcrt_set_variable_in_wide_environment_nolock 0000000180057f04 f   libucrt:setenv.obj
 0001:00056f0c       _recalloc                  0000000180057f0c f   libucrt:recalloc.obj
 0001:00056f14       _recalloc_base             0000000180057f14 f   libucrt:recalloc.obj
 0001:00056fac       __acrt_initialize_heap     0000000180057fac f   libucrt:heap_handle.obj
 0001:00056fc8       __acrt_uninitialize_heap   0000000180057fc8 f   libucrt:heap_handle.obj
 0001:00056fd4       __acrt_execute_initializers 0000000180057fd4 f   libucrt:shared_initialization.obj
 0001:00057068       __acrt_execute_uninitializers 0000000180058068 f   libucrt:shared_initialization.obj
 0001:000570b8       __acrt_has_user_matherr    00000001800580b8 f   libucrt:matherr.obj
 0001:000570d8       __acrt_initialize_user_matherr 00000001800580d8 f   libucrt:matherr.obj
 0001:000570e0       __acrt_invoke_user_matherr 00000001800580e0 f   libucrt:matherr.obj
 0001:00057128       _query_new_mode            0000000180058128 f   libucrt:new_mode.obj
 0001:00057130       __acrt_add_locale_ref      0000000180058130 f   libucrt:locale_refcounting.obj
 0001:000571bc       __acrt_free_locale         00000001800581bc f   libucrt:locale_refcounting.obj
 0001:00057334       __acrt_locale_add_lc_time_reference 0000000180058334 f   libucrt:locale_refcounting.obj
 0001:0005735c       __acrt_locale_free_lc_time_if_unreferenced 000000018005835c f   libucrt:locale_refcounting.obj
 0001:00057394       __acrt_locale_release_lc_time_reference 0000000180058394 f   libucrt:locale_refcounting.obj
 0001:000573bc       __acrt_release_locale_ref  00000001800583bc f   libucrt:locale_refcounting.obj
 0001:00057464       __acrt_update_thread_locale_data 0000000180058464 f   libucrt:locale_refcounting.obj
 0001:000574d4       _updatetlocinfoEx_nolock   00000001800584d4 f   libucrt:locale_refcounting.obj
 0001:0005753c       __acrt_fp_strflt_to_string 000000018005853c f   libucrt:_fptostr.obj
 0001:00057600       ?divide@__crt_strtox@@YA_KAEAUbig_integer@1@AEBU21@@Z 0000000180058600 f i libucrt:cfout.obj
 0001:00057ad0       __acrt_fltout              0000000180058ad0 f   libucrt:cfout.obj
 0001:00058ec4       _isatty                    0000000180059ec4 f   libucrt:isatty.obj
 0001:00058f24       __acrt_locale_free_monetary 0000000180059f24 f   libucrt:initmon.obj
 0001:00059030       __acrt_locale_free_numeric 000000018005a030 f   libucrt:initnum.obj
 0001:000590f4       __acrt_locale_free_time    000000018005a0f4 f   libucrt:inittime.obj
 0001:000591fc       __acrt_GetStringTypeA      000000018005a1fc f   libucrt:getstringtypea.obj
 0001:00059478       __acrt_DownlevelLocaleNameToLCID 000000018005a478 f   libucrt:lcidtoname_downlevel.obj
 0001:000594ac       __acrt_CompareStringW      000000018005a4ac f   libucrt:comparestringw.obj
 0001:00059900       __acrt_CompareStringA      000000018005a900 f   libucrt:comparestringa.obj
 0001:0005998c       __acrt_stdio_allocate_buffer_nolock 000000018005a98c f   libucrt:_getbuf.obj
 0001:0005a034       _sopen_nolock              000000018005b034 f   libucrt:open.obj
 0001:0005a0c4       _sopen_s                   000000018005b0c4 f   libucrt:open.obj
 0001:0005a0f8       _wsopen_nolock             000000018005b0f8 f   libucrt:open.obj
 0001:0005a4e8       _putwch_nolock             000000018005b4e8 f   libucrt:putwch.obj
 0001:0005a544       _towlower_l                000000018005b544 f   libucrt:towlower.obj
 0001:0005a608       __strncnt                  000000018005b608 f   libucrt:strncnt.obj
 0001:0005a620       _clearfp                   000000018005b620 f   libucrt:ieee.obj
 0001:0005a674       _controlfp                 000000018005b674 f   libucrt:ieee.obj
 0001:0005a680       _statusfp                  000000018005b680 f   libucrt:ieee.obj
 0001:0005a970       _get_fpsr                  000000018005b970 f   libucrt:fpsr.obj
 0001:0005a980       _set_fpsr                  000000018005b980 f   libucrt:fpsr.obj
 0001:0005a98a       _fclrf                     000000018005b98a f   libucrt:fpsr.obj
 0001:0005a99e       _frnd                      000000018005b99e f   libucrt:fpsr.obj
 0001:0005a9c0       strpbrk                    000000018005b9c0 f   libucrt:strpbrk.obj
 0001:0005aa60       _mbsdec                    000000018005ba60 f   libucrt:mbsdec.obj
 0001:0005aa68       _mbsdec_l                  000000018005ba68 f   libucrt:mbsdec.obj
 0001:0005ab18       _msize                     000000018005bb18 f   libucrt:msize.obj
 0001:0005ab54       fegetenv                   000000018005bb54 f   libucrt:fegetenv.obj
 0001:0005ab74       fesetenv                   000000018005bb74 f   libucrt:fesetenv.obj
 0001:0005abc0       feholdexcept               000000018005bbc0 f   libucrt:feholdexcept.obj
 0001:0005ac10       ceil                       000000018005bc10 f   libucrt:ceil.obj
 0001:0005ace0       log10                      000000018005bce0 f   libucrt:log10.obj
 0001:0005b28c       _get_fmode                 000000018005c28c f   libucrt:setmode.obj
 0001:0005b2bc       _setmode_nolock            000000018005c2bc f   libucrt:setmode.obj
 0001:0005b39c       _chsize_nolock             000000018005c39c f   libucrt:chsize.obj
 0001:0005b518       __dcrt_lowio_initialize_console_output 000000018005c518 f   libucrt:initcon.obj
 0001:0005b554       __dcrt_terminate_console_output 000000018005c554 f   libucrt:initcon.obj
 0001:0005b574       __acrt_LCMapStringW        000000018005c574 f   libucrt:lcmapstringw.obj
 0001:0005b720       _handle_error              000000018005c720 f   libucrt:libm_error.obj
 0001:0005b848       _handle_nan                000000018005c848 f   libucrt:libm_error.obj
 0001:0005b870       __acrt_initialize_fma3     000000018005c870 f   libucrt:fma3_available.obj
 0001:0005b8e0       _log10_special             000000018005c8e0 f   libucrt:log_special.obj
 0001:0005b900       _log_special               000000018005c900 f   libucrt:log_special.obj
 0001:0005b9b8       _raise_exc                 000000018005c9b8 f   libucrt:fpexcept.obj
 0001:0005b9e0       _raise_exc_ex              000000018005c9e0 f   libucrt:fpexcept.obj
 0001:0005bce8       _set_errno_from_matherr    000000018005cce8 f   libucrt:fpexcept.obj
 0001:0005bd18       _clrfp                     000000018005cd18 f   libucrt:fpctrl.obj
 0001:0005bd38       _ctrlfp                    000000018005cd38 f   libucrt:fpctrl.obj
 0001:0005bdb4       _set_statfp                000000018005cdb4 f   libucrt:fpctrl.obj
 0001:0005bdd4       _statfp                    000000018005cdd4 f   libucrt:fpctrl.obj
 0001:0005bde6       IsProcessorFeaturePresent  000000018005cde6 f   kernel32:KERNEL32.dll
 0001:0005bdec       RtlUnwindEx                000000018005cdec f   kernel32:KERNEL32.dll
 0001:0005bdf4       ?DloadAcquireSectionWriteAccess@@YAXXZ 000000018005cdf4 f i DelayImp:delayhlp.obj
 0001:0005beb0       ?DloadGetSRWLockFunctionPointers@@YAEXZ 000000018005ceb0 f i DelayImp:delayhlp.obj
 0001:0005bf4c       ?DloadMakePermanentImageCommit@@YAXPEAX_K@Z 000000018005cf4c f i DelayImp:delayhlp.obj
 0001:0005bfe4       ?DloadObtainSection@@YAPEAXPEAK0@Z 000000018005cfe4 f i DelayImp:delayhlp.obj
 0001:0005c07c       ?DloadProtectSection@@YAXKPEAK@Z 000000018005d07c f i DelayImp:delayhlp.obj
 0001:0005c10c       ?DloadReleaseSectionWriteAccess@@YAXXZ 000000018005d10c f i DelayImp:delayhlp.obj
 0001:0005c1b0       __delayLoadHelper2         000000018005d1b0 f   DelayImp:delayhlp.obj
 0001:0005c4b0       _FindPESection             000000018005d4b0 f   LIBCMT:pesect.obj
 0001:0005c500       _IsNonwritableInCurrentImage 000000018005d500 f   LIBCMT:pesect.obj
 0001:0005c550       _ValidateImageBase         000000018005d550 f   LIBCMT:pesect.obj
 0001:0005c580       __GSHandlerCheck           000000018005d580 f   LIBCMT:_gshandler_.obj
 0001:0005c5a0       __GSHandlerCheckCommon     000000018005d5a0 f   LIBCMT:_gshandler_.obj
 0001:0005c610       __chkstk                   000000018005d610 f   LIBCMT:_chkstk_.obj
 0001:0005c610       _alloca_probe              000000018005d610 f   LIBCMT:_chkstk_.obj
 0001:0005c664       wcsrchr                    000000018005d664 f   libvcruntime:wcsrchr.obj
 0001:0005c714       wcschr                     000000018005d714 f   libvcruntime:wcschr.obj
 0001:0005c7c0       memcmp                     000000018005d7c0 f   libvcruntime:memcmp.obj
 0001:0005c8a0       strncpy                    000000018005d8a0 f   libucrt:strncpy.obj
 0001:0005ca04       floor                      000000018005da04 f   libucrt:floor.obj
 0001:0005cac0       log                        000000018005dac0 f   libucrt:log.obj
 0001:0005cff0       pow                        000000018005dff0 f   libucrt:pow.obj
 0001:0005e6a0       strcmp                     000000018005f6a0 f   libucrt:strcmp.obj
 0001:0005e710       _pow_special               000000018005f710 f   libucrt:pow_special.obj
 0001:0005e850       _guard_dispatch_icall_nop  000000018005f850 f   LIBCMT:_guard_dispatch_.obj
 0002:00000000       __imp_RegCloseKey          0000000180060000     advapi32:ADVAPI32.dll
 0002:00000008       __imp_RegOpenKeyExA        0000000180060008     advapi32:ADVAPI32.dll
 0002:00000010       __imp_RegEnumValueA        0000000180060010     advapi32:ADVAPI32.dll
 0002:00000018       \177ADVAPI32_NULL_THUNK_DATA 0000000180060018     advapi32:ADVAPI32.dll
 0002:00000020       __imp_SetNamedPipeHandleState 0000000180060020     kernel32:KERNEL32.dll
 0002:00000028       __imp_WaitNamedPipeA       0000000180060028     kernel32:KERNEL32.dll
 0002:00000030       __imp_GetConsoleCP         0000000180060030     kernel32:KERNEL32.dll
 0002:00000038       __imp_WaitForSingleObject  0000000180060038     kernel32:KERNEL32.dll
 0002:00000040       __imp_GetCurrentThreadId   0000000180060040     kernel32:KERNEL32.dll
 0002:00000048       __imp_UnmapViewOfFile      0000000180060048     kernel32:KERNEL32.dll
 0002:00000050       __imp_GetACP               0000000180060050     kernel32:KERNEL32.dll
 0002:00000058       __imp_GetLastError         0000000180060058     kernel32:KERNEL32.dll
 0002:00000060       __imp_CreateFileA          0000000180060060     kernel32:KERNEL32.dll
 0002:00000068       __imp_SetEvent             0000000180060068     kernel32:KERNEL32.dll
 0002:00000070       __imp_CloseHandle          0000000180060070     kernel32:KERNEL32.dll
 0002:00000078       __imp_GetCurrentProcessId  0000000180060078     kernel32:KERNEL32.dll
 0002:00000080       __imp_OpenFileMappingA     0000000180060080     kernel32:KERNEL32.dll
 0002:00000088       __imp_MapViewOfFile        0000000180060088     kernel32:KERNEL32.dll
 0002:00000090       __imp_EnterCriticalSection 0000000180060090     kernel32:KERNEL32.dll
 0002:00000098       __imp_LoadLibraryExA       0000000180060098     kernel32:KERNEL32.dll
 0002:000000a0       __imp_LeaveCriticalSection 00000001800600a0     kernel32:KERNEL32.dll
 0002:000000a8       __imp_InitializeCriticalSection 00000001800600a8     kernel32:KERNEL32.dll
 0002:000000b0       __imp_GetProcAddress       00000001800600b0     kernel32:KERNEL32.dll
 0002:000000b8       __imp_DeleteCriticalSection 00000001800600b8     kernel32:KERNEL32.dll
 0002:000000c0       __imp_FreeLibrary          00000001800600c0     kernel32:KERNEL32.dll
 0002:000000c8       __imp_FormatMessageA       00000001800600c8     kernel32:KERNEL32.dll
 0002:000000d0       __imp_DeleteFiber          00000001800600d0     kernel32:KERNEL32.dll
 0002:000000d8       __imp_SwitchToFiber        00000001800600d8     kernel32:KERNEL32.dll
 0002:000000e0       __imp_ConvertThreadToFiber 00000001800600e0     kernel32:KERNEL32.dll
 0002:000000e8       __imp_CreateFiber          00000001800600e8     kernel32:KERNEL32.dll
 0002:000000f0       __imp_GetLocaleInfoA       00000001800600f0     kernel32:KERNEL32.dll
 0002:000000f8       __imp_GetModuleFileNameA   00000001800600f8     kernel32:KERNEL32.dll
 0002:00000100       __imp_GetSystemDirectoryA  0000000180060100     kernel32:KERNEL32.dll
 0002:00000108       __imp_GetWindowsDirectoryA 0000000180060108     kernel32:KERNEL32.dll
 0002:00000110       __imp_TlsFree              0000000180060110     kernel32:KERNEL32.dll
 0002:00000118       __imp_GetFullPathNameA     0000000180060118     kernel32:KERNEL32.dll
 0002:00000120       __imp_GetFileAttributesA   0000000180060120     kernel32:KERNEL32.dll
 0002:00000128       __imp_TlsSetValue          0000000180060128     kernel32:KERNEL32.dll
 0002:00000130       __imp_TlsAlloc             0000000180060130     kernel32:KERNEL32.dll
 0002:00000138       __imp_TlsGetValue          0000000180060138     kernel32:KERNEL32.dll
 0002:00000140       __imp_Sleep                0000000180060140     kernel32:KERNEL32.dll
 0002:00000148       __imp_OpenThread           0000000180060148     kernel32:KERNEL32.dll
 0002:00000150       __imp_QueryPerformanceFrequency 0000000180060150     kernel32:KERNEL32.dll
 0002:00000158       __imp_GetSystemTimeAsFileTime 0000000180060158     kernel32:KERNEL32.dll
 0002:00000160       __imp_QueryPerformanceCounter 0000000180060160     kernel32:KERNEL32.dll
 0002:00000168       __imp_WaitForMultipleObjects 0000000180060168     kernel32:KERNEL32.dll
 0002:00000170       __imp_CreateEventA         0000000180060170     kernel32:KERNEL32.dll
 0002:00000178       __imp_ReadFile             0000000180060178     kernel32:KERNEL32.dll
 0002:00000180       __imp_GetFileAttributesExA 0000000180060180     kernel32:KERNEL32.dll
 0002:00000188       __imp_GetCurrentProcess    0000000180060188     kernel32:KERNEL32.dll
 0002:00000190       __imp_GetStdHandle         0000000180060190     kernel32:KERNEL32.dll
 0002:00000198       __imp_WriteFile            0000000180060198     kernel32:KERNEL32.dll
 0002:000001a0       __imp_SetEndOfFile         00000001800601a0     kernel32:KERNEL32.dll
 0002:000001a8       __imp_SetFilePointerEx     00000001800601a8     kernel32:KERNEL32.dll
 0002:000001b0       __imp_FlushFileBuffers     00000001800601b0     kernel32:KERNEL32.dll
 0002:000001b8       __imp_GetLogicalDrives     00000001800601b8     kernel32:KERNEL32.dll
 0002:000001c0       __imp_CancelIo             00000001800601c0     kernel32:KERNEL32.dll
 0002:000001c8       __imp_QueueUserAPC         00000001800601c8     kernel32:KERNEL32.dll
 0002:000001d0       __imp_SetLastError         00000001800601d0     kernel32:KERNEL32.dll
 0002:000001d8       __imp_PeekNamedPipe        00000001800601d8     kernel32:KERNEL32.dll
 0002:000001e0       __imp_DisconnectNamedPipe  00000001800601e0     kernel32:KERNEL32.dll
 0002:000001e8       __imp_GetOverlappedResult  00000001800601e8     kernel32:KERNEL32.dll
 0002:000001f0       __imp_RtlCaptureContext    00000001800601f0     kernel32:KERNEL32.dll
 0002:000001f8       __imp_RtlLookupFunctionEntry 00000001800601f8     kernel32:KERNEL32.dll
 0002:00000200       __imp_RtlVirtualUnwind     0000000180060200     kernel32:KERNEL32.dll
 0002:00000208       __imp_UnhandledExceptionFilter 0000000180060208     kernel32:KERNEL32.dll
 0002:00000210       __imp_OpenEventA           0000000180060210     kernel32:KERNEL32.dll
 0002:00000218       __imp_TerminateProcess     0000000180060218     kernel32:KERNEL32.dll
 0002:00000220       __imp_IsProcessorFeaturePresent 0000000180060220     kernel32:KERNEL32.dll
 0002:00000228       __imp_IsDebuggerPresent    0000000180060228     kernel32:KERNEL32.dll
 0002:00000230       __imp_GetStartupInfoW      0000000180060230     kernel32:KERNEL32.dll
 0002:00000238       __imp_GetModuleHandleW     0000000180060238     kernel32:KERNEL32.dll
 0002:00000240       __imp_InitializeSListHead  0000000180060240     kernel32:KERNEL32.dll
 0002:00000248       __imp_RtlUnwindEx          0000000180060248     kernel32:KERNEL32.dll
 0002:00000250       __imp_RtlPcToFileHeader    0000000180060250     kernel32:KERNEL32.dll
 0002:00000258       __imp_RaiseException       0000000180060258     kernel32:KERNEL32.dll
 0002:00000260       __imp_InterlockedFlushSList 0000000180060260     kernel32:KERNEL32.dll
 0002:00000268       __imp_InitializeCriticalSectionAndSpinCount 0000000180060268     kernel32:KERNEL32.dll
 0002:00000270       __imp_LoadLibraryExW       0000000180060270     kernel32:KERNEL32.dll
 0002:00000278       __imp_GetFileType          0000000180060278     kernel32:KERNEL32.dll
 0002:00000280       __imp_GetModuleFileNameW   0000000180060280     kernel32:KERNEL32.dll
 0002:00000288       __imp_GetModuleHandleExW   0000000180060288     kernel32:KERNEL32.dll
 0002:00000290       __imp_WriteConsoleW        0000000180060290     kernel32:KERNEL32.dll
 0002:00000298       __imp_ExitProcess          0000000180060298     kernel32:KERNEL32.dll
 0002:000002a0       __imp_SetConsoleCtrlHandler 00000001800602a0     kernel32:KERNEL32.dll
 0002:000002a8       __imp_GetTimeZoneInformation 00000001800602a8     kernel32:KERNEL32.dll
 0002:000002b0       __imp_WideCharToMultiByte  00000001800602b0     kernel32:KERNEL32.dll
 0002:000002b8       __imp_CreateThread         00000001800602b8     kernel32:KERNEL32.dll
 0002:000002c0       __imp_FindClose            00000001800602c0     kernel32:KERNEL32.dll
 0002:000002c8       __imp_FindFirstFileExW     00000001800602c8     kernel32:KERNEL32.dll
 0002:000002d0       __imp_FindNextFileW        00000001800602d0     kernel32:KERNEL32.dll
 0002:000002d8       __imp_SystemTimeToTzSpecificLocalTime 00000001800602d8     kernel32:KERNEL32.dll
 0002:000002e0       __imp_FileTimeToSystemTime 00000001800602e0     kernel32:KERNEL32.dll
 0002:000002e8       __imp_SetStdHandle         00000001800602e8     kernel32:KERNEL32.dll
 0002:000002f0       __imp_CreateFileW          00000001800602f0     kernel32:KERNEL32.dll
 0002:000002f8       __imp_GetDriveTypeW        00000001800602f8     kernel32:KERNEL32.dll
 0002:00000300       __imp_MultiByteToWideChar  0000000180060300     kernel32:KERNEL32.dll
 0002:00000308       __imp_GetFullPathNameW     0000000180060308     kernel32:KERNEL32.dll
 0002:00000310       __imp_SetEnvironmentVariableA 0000000180060310     kernel32:KERNEL32.dll
 0002:00000318       __imp_SetEnvironmentVariableW 0000000180060318     kernel32:KERNEL32.dll
 0002:00000320       __imp_GetCurrentDirectoryW 0000000180060320     kernel32:KERNEL32.dll
 0002:00000328       __imp_HeapFree             0000000180060328     kernel32:KERNEL32.dll
 0002:00000330       __imp_HeapAlloc            0000000180060330     kernel32:KERNEL32.dll
 0002:00000338       __imp_OutputDebugStringW   0000000180060338     kernel32:KERNEL32.dll
 0002:00000340       __imp_WaitForSingleObjectEx 0000000180060340     kernel32:KERNEL32.dll
 0002:00000348       __imp_CompareStringW       0000000180060348     kernel32:KERNEL32.dll
 0002:00000350       __imp_LCMapStringW         0000000180060350     kernel32:KERNEL32.dll
 0002:00000358       __imp_GetStringTypeW       0000000180060358     kernel32:KERNEL32.dll
 0002:00000360       __imp_HeapReAlloc          0000000180060360     kernel32:KERNEL32.dll
 0002:00000368       __imp_GetCPInfo            0000000180060368     kernel32:KERNEL32.dll
 0002:00000370       __imp_GetConsoleMode       0000000180060370     kernel32:KERNEL32.dll
 0002:00000378       __imp_ReadConsoleW         0000000180060378     kernel32:KERNEL32.dll
 0002:00000380       __imp_FindFirstFileExA     0000000180060380     kernel32:KERNEL32.dll
 0002:00000388       __imp_FindNextFileA        0000000180060388     kernel32:KERNEL32.dll
 0002:00000390       __imp_IsValidCodePage      0000000180060390     kernel32:KERNEL32.dll
 0002:00000398       __imp_GetOEMCP             0000000180060398     kernel32:KERNEL32.dll
 0002:000003a0       __imp_GetCommandLineA      00000001800603a0     kernel32:KERNEL32.dll
 0002:000003a8       __imp_GetCommandLineW      00000001800603a8     kernel32:KERNEL32.dll
 0002:000003b0       __imp_GetEnvironmentStringsW 00000001800603b0     kernel32:KERNEL32.dll
 0002:000003b8       __imp_FreeEnvironmentStringsW 00000001800603b8     kernel32:KERNEL32.dll
 0002:000003c0       __imp_GetProcessHeap       00000001800603c0     kernel32:KERNEL32.dll
 0002:000003c8       __imp_HeapSize             00000001800603c8     kernel32:KERNEL32.dll
 0002:000003d0       __imp_VirtualProtect       00000001800603d0     kernel32:KERNEL32.dll
 0002:000003d8       __imp_VirtualQuery         00000001800603d8     kernel32:KERNEL32.dll
 0002:000003e0       __imp_SetUnhandledExceptionFilter 00000001800603e0     kernel32:KERNEL32.dll
 0002:000003e8       __imp_GetSystemInfo        00000001800603e8     kernel32:KERNEL32.dll
 0002:000003f0       __imp_GetModuleHandleA     00000001800603f0     kernel32:KERNEL32.dll
 0002:000003f8       \177KERNEL32_NULL_THUNK_DATA 00000001800603f8     kernel32:KERNEL32.dll
 0002:00000400       __imp_connect              0000000180060400     ws2_32:WS2_32.dll
 0002:00000408       __imp_send                 0000000180060408     ws2_32:WS2_32.dll
 0002:00000410       __imp_freeaddrinfo         0000000180060410     ws2_32:WS2_32.dll
 0002:00000418       __imp_socket               0000000180060418     ws2_32:WS2_32.dll
 0002:00000420       __imp_getsockname          0000000180060420     ws2_32:WS2_32.dll
 0002:00000428       __imp_getaddrinfo          0000000180060428     ws2_32:WS2_32.dll
 0002:00000430       __imp_closesocket          0000000180060430     ws2_32:WS2_32.dll
 0002:00000438       __imp_getservbyname        0000000180060438     ws2_32:WS2_32.dll
 0002:00000440       __imp_ntohs                0000000180060440     ws2_32:WS2_32.dll
 0002:00000448       __imp_select               0000000180060448     ws2_32:WS2_32.dll
 0002:00000450       __imp___WSAFDIsSet         0000000180060450     ws2_32:WS2_32.dll
 0002:00000458       __imp_WSAStartup           0000000180060458     ws2_32:WS2_32.dll
 0002:00000460       __imp_WSACleanup           0000000180060460     ws2_32:WS2_32.dll
 0002:00000468       __imp_getnameinfo          0000000180060468     ws2_32:WS2_32.dll
 0002:00000470       __imp_htonl                0000000180060470     ws2_32:WS2_32.dll
 0002:00000478       __imp_getpeername          0000000180060478     ws2_32:WS2_32.dll
 0002:00000480       __imp_WSASetLastError      0000000180060480     ws2_32:WS2_32.dll
 0002:00000488       __imp_shutdown             0000000180060488     ws2_32:WS2_32.dll
 0002:00000490       __imp_WSAIoctl             0000000180060490     ws2_32:WS2_32.dll
 0002:00000498       __imp_ioctlsocket          0000000180060498     ws2_32:WS2_32.dll
 0002:000004a0       __imp_recv                 00000001800604a0     ws2_32:WS2_32.dll
 0002:000004a8       __imp_setsockopt           00000001800604a8     ws2_32:WS2_32.dll
 0002:000004b0       __imp_WSAGetLastError      00000001800604b0     ws2_32:WS2_32.dll
 0002:000004b8       __imp_getsockopt           00000001800604b8     ws2_32:WS2_32.dll
 0002:000004c0       \177WS2_32_NULL_THUNK_DATA 00000001800604c0     ws2_32:WS2_32.dll
 0002:000004c8       __guard_check_icall_fptr   00000001800604c8     LIBCMT:guard_support.obj
 0002:000004d0       __guard_dispatch_icall_fptr 00000001800604d0     LIBCMT:guard_support.obj
 0002:000004d8       __xc_a                     00000001800604d8     LIBCMT:initializers.obj
 0002:000004e0       _register_sqlclient_       00000001800604e0     binding.obj
 0002:000006f0       __xc_z                     00000001800606f0     LIBCMT:initializers.obj
 0002:000006f8       __xi_a                     00000001800606f8     LIBCMT:initializers.obj
 0002:00000700       __acrt_stdio_initializer   0000000180060700     libucrt:stdio_initializer.obj
 0002:00000708       __acrt_timeset_initializer 0000000180060708     libucrt:timeset_initializer.obj
 0002:00000710       __acrt_multibyte_initializer 0000000180060710     libucrt:multibyte_initializer.obj
 0002:00000718       __acrt_tran_fma3_initializer 0000000180060718     libucrt:fma3_initializer.obj
 0002:00000720       __xi_z                     0000000180060720     LIBCMT:initializers.obj
 0002:00000728       __xp_a                     0000000180060728     LIBCMT:initializers.obj
 0002:00000730       __acrt_locale_terminator   0000000180060730     libucrt:locale_initializer.obj
 0002:00000738       __dcrt_console_output_terminator 0000000180060738     libucrt:console_output_initializer.obj
 0002:00000740       __acrt_stdio_terminator    0000000180060740     libucrt:stdio_initializer.obj
 0002:00000748       __xp_z                     0000000180060748     LIBCMT:initializers.obj
 0002:00000750       __xt_a                     0000000180060750     LIBCMT:initializers.obj
 0002:00000758       __xt_z                     0000000180060758     LIBCMT:initializers.obj
 0002:00000760       __sz_node_exe              0000000180060760     node:node.exe
 0002:00000770       _pDefaultRawDllMain        0000000180060770     LIBCMT:dll_dllmain.obj
 0002:00000770       _pRawDllMain               0000000180060770     LIBCMT:dll_dllmain.obj
 0002:00000790       ??_7exception@std@@6B@     0000000180060790     LIBCMT:throw_bad_alloc.obj
 0002:000007a0       ??_C@_0BC@EOODALEL@Unknown?5exception?$AA@ 00000001800607a0     LIBCMT:throw_bad_alloc.obj
 0002:000007c0       ??_7bad_alloc@std@@6B@     00000001800607c0     LIBCMT:throw_bad_alloc.obj
 0002:000007d0       ??_C@_0P@GHFPNOJB@bad?5allocation?$AA@ 00000001800607d0     LIBCMT:throw_bad_alloc.obj
 0002:000007e8       ??_7bad_array_new_length@std@@6B@ 00000001800607e8     LIBCMT:throw_bad_alloc.obj
 0002:000007f8       ??_C@_0BF@KINCDENJ@bad?5array?5new?5length?$AA@ 00000001800607f8     LIBCMT:throw_bad_alloc.obj
 0002:00000818       ??_7type_info@@6B@         0000000180060818     LIBCMT:std_type_info_static.obj
 0002:00000880       ??_C@_1BC@DNHGCMLG@?$AAa?$AAd?$AAv?$AAa?$AAp?$AAi?$AA3?$AA2?$AA?$AA@ 0000000180060880     libvcruntime:winapi_downlevel.obj
 0002:00000898       ??_C@_1DM@KHCHBNEB@?$AAa?$AAp?$AAi?$AA?9?$AAm?$AAs?$AA?9?$AAw?$AAi?$AAn?$AA?9?$AAc?$AAo?$AAr?$AAe?$AA?9?$AAf?$AAi?$AAb?$AAe?$AAr?$AAs?$AA?9?$AAl?$AA1?$AA?9?$AA1?$AA?9?$AA1?$AA?$AA@ 0000000180060898     libvcruntime:winapi_downlevel.obj
 0002:000008d8       ??_C@_1DK@LPPGFMPP@?$AAa?$AAp?$AAi?$AA?9?$AAm?$AAs?$AA?9?$AAw?$AAi?$AAn?$AA?9?$AAc?$AAo?$AAr?$AAe?$AA?9?$AAs?$AAy?$AAn?$AAc?$AAh?$AA?9?$AAl?$AA1?$AA?9?$AA2?$AA?9?$AA0?$AA?$AA@ 00000001800608d8     libvcruntime:winapi_downlevel.obj
 0002:00000918       ??_C@_1BC@GDMECMAK@?$AAk?$AAe?$AAr?$AAn?$AAe?$AAl?$AA3?$AA2?$AA?$AA@ 0000000180060918     libvcruntime:winapi_downlevel.obj
 0002:00000938       ??_C@_08KNHFBNJ@FlsAlloc?$AA@ 0000000180060938     libvcruntime:winapi_downlevel.obj
 0002:00000950       ??_C@_07PEJMOBNF@FlsFree?$AA@ 0000000180060950     libvcruntime:winapi_downlevel.obj
 0002:00000960       ??_C@_0M@GDNOONDI@FlsGetValue?$AA@ 0000000180060960     libvcruntime:winapi_downlevel.obj
 0002:00000978       ??_C@_0M@JCPCPOEF@FlsSetValue?$AA@ 0000000180060978     libvcruntime:winapi_downlevel.obj
 0002:00000990       ??_C@_0BM@HCFOFFN@InitializeCriticalSectionEx?$AA@ 0000000180060990     libvcruntime:winapi_downlevel.obj
 0002:00000cd0       ??_C@_08EHJDFFNH@__based?$CI?$AA@ 0000000180060cd0     libvcruntime:undname.obj
 0002:00000ce0       ??_C@_07KOLFKCDI@__cdecl?$AA@ 0000000180060ce0     libvcruntime:undname.obj
 0002:00000ce8       ??_C@_08GHMPAG@__pascal?$AA@ 0000000180060ce8     libvcruntime:undname.obj
 0002:00000cf8       ??_C@_09IFJBGAPI@__stdcall?$AA@ 0000000180060cf8     libvcruntime:undname.obj
 0002:00000d08       ??_C@_0L@NPHFGOKO@__thiscall?$AA@ 0000000180060d08     libvcruntime:undname.obj
 0002:00000d18       ??_C@_0L@JMKHOMEK@__fastcall?$AA@ 0000000180060d18     libvcruntime:undname.obj
 0002:00000d28       ??_C@_0N@BCKKPABJ@__vectorcall?$AA@ 0000000180060d28     libvcruntime:undname.obj
 0002:00000d38       ??_C@_09HIJEGCPM@__clrcall?$AA@ 0000000180060d38     libvcruntime:undname.obj
 0002:00000d44       ??_C@_06GHPCKEAG@__eabi?$AA@ 0000000180060d44     libvcruntime:undname.obj
 0002:00000d50       ??_C@_07JOMMBBKO@__ptr64?$AA@ 0000000180060d50     libvcruntime:undname.obj
 0002:00000d58       ??_C@_0L@PILCLIHE@__restrict?$AA@ 0000000180060d58     libvcruntime:undname.obj
 0002:00000d68       ??_C@_0M@GFIIJFMG@__unaligned?$AA@ 0000000180060d68     libvcruntime:undname.obj
 0002:00000d78       ??_C@_09DHDLOLLB@restrict?$CI?$AA@ 0000000180060d78     libvcruntime:undname.obj
 0002:00000d84       ??_C@_04NIHEBCM@?5new?$AA@ 0000000180060d84     libvcruntime:undname.obj
 0002:00000d90       ??_C@_07FPCDHGMM@?5delete?$AA@ 0000000180060d90     libvcruntime:undname.obj
 0002:00000d98       ??_C@_02GPIOPFAK@?$DO?$DO?$AA@ 0000000180060d98     libvcruntime:undname.obj
 0002:00000d9c       ??_C@_02FODMEDOG@?$DM?$DM?$AA@ 0000000180060d9c     libvcruntime:undname.obj
 0002:00000da0       ??_C@_01DCLJPIOD@?$CB?$AA@ 0000000180060da0     libvcruntime:undname.obj
 0002:00000da4       ??_C@_02EGOFBIJA@?$DN?$DN?$AA@ 0000000180060da4     libvcruntime:undname.obj
 0002:00000da8       ??_C@_02FDNJECIE@?$CB?$DN?$AA@ 0000000180060da8     libvcruntime:undname.obj
 0002:00000dac       ??_C@_02GPECMEKF@?$FL?$FN?$AA@ 0000000180060dac     libvcruntime:undname.obj
 0002:00000db0       ??_C@_08LHJFAFGD@operator?$AA@ 0000000180060db0     libvcruntime:undname.obj
 0002:00000dbc       ??_C@_02HBOOOICD@?9?$DO?$AA@ 0000000180060dbc     libvcruntime:undname.obj
 0002:00000dc0       ??_C@_01NBENCBCI@?$CK?$AA@ 0000000180060dc0     libvcruntime:undname.obj
 0002:00000dc4       ??_C@_02ECNGHCIF@?$CL?$CL?$AA@ 0000000180060dc4     libvcruntime:undname.obj
 0002:00000dc8       ??_C@_01JOAMLHOP@?9?$AA@   0000000180060dc8     libvcruntime:undname.obj
 0002:00000dcc       ??_C@_01MIFGBAGJ@?$CL?$AA@ 0000000180060dcc     libvcruntime:undname.obj
 0002:00000dd0       ??_C@_03MNHNFDLC@?9?$DO?$CK?$AA@ 0000000180060dd0     libvcruntime:undname.obj
 0002:00000dd4       ??_C@_01FGNFDNOH@?$CF?$AA@ 0000000180060dd4     libvcruntime:undname.obj
 0002:00000dd8       ??_C@_01MNNFJEPP@?$DM?$AA@ 0000000180060dd8     libvcruntime:undname.obj
 0002:00000ddc       ??_C@_02EHCHHCKH@?$DM?$DN?$AA@ 0000000180060ddc     libvcruntime:undname.obj
 0002:00000de0       ??_C@_01PPODPGHN@?$DO?$AA@ 0000000180060de0     libvcruntime:undname.obj
 0002:00000de4       ??_C@_02EEKDKGMJ@?$DO?$DN?$AA@ 0000000180060de4     libvcruntime:undname.obj
 0002:00000de8       ??_C@_02HCKGKOFO@?$CI?$CJ?$AA@ 0000000180060de8     libvcruntime:undname.obj
 0002:00000dec       ??_C@_01PJKLJHI@?$HO?$AA@  0000000180060dec     libvcruntime:undname.obj
 0002:00000df0       ??_C@_01JKBOJNNK@?$FO?$AA@ 0000000180060df0     libvcruntime:undname.obj
 0002:00000df4       ??_C@_02PPKAJPJL@?$CG?$CG?$AA@ 0000000180060df4     libvcruntime:undname.obj
 0002:00000df8       ??_C@_02NONPIBCD@?$HM?$HM?$AA@ 0000000180060df8     libvcruntime:undname.obj
 0002:00000dfc       ??_C@_02FPIMKNGF@?$CK?$DN?$AA@ 0000000180060dfc     libvcruntime:undname.obj
 0002:00000e00       ??_C@_02FOEOMHFC@?$CL?$DN?$AA@ 0000000180060e00     libvcruntime:undname.obj
 0002:00000e04       ??_C@_02FKMDLLOA@?9?$DN?$AA@ 0000000180060e04     libvcruntime:undname.obj
 0002:00000e08       ??_C@_02FJEHGPIO@?1?$DN?$AA@ 0000000180060e08     libvcruntime:undname.obj
 0002:00000e0c       ??_C@_02FENAOKFI@?$CF?$DN?$AA@ 0000000180060e0c     libvcruntime:undname.obj
 0002:00000e10       ??_C@_03IKFCCPFF@?$DO?$DO?$DN?$AA@ 0000000180060e10     libvcruntime:undname.obj
 0002:00000e14       ??_C@_03CDNPDDLA@?$DM?$DM?$DN?$AA@ 0000000180060e14     libvcruntime:undname.obj
 0002:00000e18       ??_C@_02FGJGFEAB@?$CG?$DN?$AA@ 0000000180060e18     libvcruntime:undname.obj
 0002:00000e1c       ??_C@_02DHLNPPGH@?$HM?$DN?$AA@ 0000000180060e1c     libvcruntime:undname.obj
 0002:00000e20       ??_C@_02MHEGNOJ@?$FO?$DN?$AA@ 0000000180060e20     libvcruntime:undname.obj
 0002:00000e28       ??_C@_09IFPLHPGF@?$GAvftable?8?$AA@ 0000000180060e28     libvcruntime:undname.obj
 0002:00000e38       ??_C@_09BLBHBJP@?$GAvbtable?8?$AA@ 0000000180060e38     libvcruntime:undname.obj
 0002:00000e48       ??_C@_07FEEIOKP@?$GAvcall?8?$AA@ 0000000180060e48     libvcruntime:undname.obj
 0002:00000e50       ??_C@_08LLFFHHDJ@?$GAtypeof?8?$AA@ 0000000180060e50     libvcruntime:undname.obj
 0002:00000e60       ??_C@_0BF@KDPPACIK@?$GAlocal?5static?5guard?8?$AA@ 0000000180060e60     libvcruntime:undname.obj
 0002:00000e78       ??_C@_08OBABFOLI@?$GAstring?8?$AA@ 0000000180060e78     libvcruntime:undname.obj
 0002:00000e88       ??_C@_0BD@JDLKDPAB@?$GAvbase?5destructor?8?$AA@ 0000000180060e88     libvcruntime:undname.obj
 0002:00000ea0       ??_C@_0BN@DEGPLNFK@?$GAvector?5deleting?5destructor?8?$AA@ 0000000180060ea0     libvcruntime:undname.obj
 0002:00000ec0       ??_C@_0BO@OBMKPJIG@?$GAdefault?5constructor?5closure?8?$AA@ 0000000180060ec0     libvcruntime:undname.obj
 0002:00000ee0       ??_C@_0BN@IMDCHIKM@?$GAscalar?5deleting?5destructor?8?$AA@ 0000000180060ee0     libvcruntime:undname.obj
 0002:00000f00       ??_C@_0BO@PFGOCPJJ@?$GAvector?5constructor?5iterator?8?$AA@ 0000000180060f00     libvcruntime:undname.obj
 0002:00000f20       ??_C@_0BN@LFPFMEDL@?$GAvector?5destructor?5iterator?8?$AA@ 0000000180060f20     libvcruntime:undname.obj
 0002:00000f40       ??_C@_0CE@IKBNEHA@?$GAvector?5vbase?5constructor?5iterat@ 0000000180060f40     libvcruntime:undname.obj
 0002:00000f68       ??_C@_0BL@NILFHHPC@?$GAvirtual?5displacement?5map?8?$AA@ 0000000180060f68     libvcruntime:undname.obj
 0002:00000f88       ??_C@_0CB@JONCMFFK@?$GAeh?5vector?5constructor?5iterator?8@ 0000000180060f88     libvcruntime:undname.obj
 0002:00000fb0       ??_C@_0CA@GCEOPDGL@?$GAeh?5vector?5destructor?5iterator?8?$AA@ 0000000180060fb0     libvcruntime:undname.obj
 0002:00000fd0       ??_C@_0CH@OOJPLCPH@?$GAeh?5vector?5vbase?5constructor?5ite@ 0000000180060fd0     libvcruntime:undname.obj
 0002:00000ff8       ??_C@_0BL@LLKPOHJI@?$GAcopy?5constructor?5closure?8?$AA@ 0000000180060ff8     libvcruntime:undname.obj
 0002:00001018       ??_C@_0BA@KBCDOMBN@?$GAudt?5returning?8?$AA@ 0000000180061018     libvcruntime:undname.obj
 0002:00001028       ??_C@_03KLGMFNMG@?$GAEH?$AA@ 0000000180061028     libvcruntime:undname.obj
 0002:0000102c       ??_C@_05KHLCHHI@?$GARTTI?$AA@ 000000018006102c     libvcruntime:undname.obj
 0002:00001038       ??_C@_0BA@KKLDJDLB@?$GAlocal?5vftable?8?$AA@ 0000000180061038     libvcruntime:undname.obj
 0002:00001048       ??_C@_0CE@IIHCMGGL@?$GAlocal?5vftable?5constructor?5closu@ 0000000180061048     libvcruntime:undname.obj
 0002:0000106c       ??_C@_06FHBGPFGH@?5new?$FL?$FN?$AA@ 000000018006106c     libvcruntime:undname.obj
 0002:00001078       ??_C@_09LBNFPBCA@?5delete?$FL?$FN?$AA@ 0000000180061078     libvcruntime:undname.obj
 0002:00001088       ??_C@_0P@HJKNJFNN@?$GAomni?5callsig?8?$AA@ 0000000180061088     libvcruntime:undname.obj
 0002:00001098       ??_C@_0BL@CNOONJFP@?$GAplacement?5delete?5closure?8?$AA@ 0000000180061098     libvcruntime:undname.obj
 0002:000010b8       ??_C@_0BN@CKNJLHMB@?$GAplacement?5delete?$FL?$FN?5closure?8?$AA@ 00000001800610b8     libvcruntime:undname.obj
 0002:000010d8       ??_C@_0CG@CFDHKGGD@?$GAmanaged?5vector?5constructor?5iter@ 00000001800610d8     libvcruntime:undname.obj
 0002:00001100       ??_C@_0CF@IMGKMJNO@?$GAmanaged?5vector?5destructor?5itera@ 0000000180061100     libvcruntime:undname.obj
 0002:00001128       ??_C@_0CG@HLDDJMAG@?$GAeh?5vector?5copy?5constructor?5iter@ 0000000180061128     libvcruntime:undname.obj
 0002:00001150       ??_C@_0CM@FCBBDIGB@?$GAeh?5vector?5vbase?5copy?5constructo@ 0000000180061150     libvcruntime:undname.obj
 0002:00001180       ??_C@_0BL@CLIPGLGB@?$GAdynamic?5initializer?5for?5?8?$AA@ 0000000180061180     libvcruntime:undname.obj
 0002:000011a0       ??_C@_0CB@PDBIFEP@?$GAdynamic?5atexit?5destructor?5for?5?8@ 00000001800611a0     libvcruntime:undname.obj
 0002:000011c8       ??_C@_0CD@CGAJBKEJ@?$GAvector?5copy?5constructor?5iterato@ 00000001800611c8     libvcruntime:undname.obj
 0002:000011f0       ??_C@_0CJ@GJELGAMM@?$GAvector?5vbase?5copy?5constructor?5i@ 00000001800611f0     libvcruntime:undname.obj
 0002:00001220       ??_C@_0CL@FGIJHLCE@?$GAmanaged?5vector?5copy?5constructor@ 0000000180061220     libvcruntime:undname.obj
 0002:00001250       ??_C@_0BM@PMGGMLDN@?$GAlocal?5static?5thread?5guard?8?$AA@ 0000000180061250     libvcruntime:undname.obj
 0002:00001270       ??_C@_0N@BDNMDMOL@operator?5?$CC?$CC?5?$AA@ 0000000180061270     libvcruntime:undname.obj
 0002:00001280       ??_C@_0BC@DAFEJGAK@?5Type?5Descriptor?8?$AA@ 0000000180061280     libvcruntime:undname.obj
 0002:00001298       ??_C@_0BM@LDKODKLH@?5Base?5Class?5Descriptor?5at?5?$CI?$AA@ 0000000180061298     libvcruntime:undname.obj
 0002:000012b8       ??_C@_0BD@LGICGFMM@?5Base?5Class?5Array?8?$AA@ 00000001800612b8     libvcruntime:undname.obj
 0002:000012d0       ??_C@_0BN@MECKDCOJ@?5Class?5Hierarchy?5Descriptor?8?$AA@ 00000001800612d0     libvcruntime:undname.obj
 0002:000012f0       ??_C@_0BK@CFCOFLF@?5Complete?5Object?5Locator?8?$AA@ 00000001800612f0     libvcruntime:undname.obj
 0002:00001310       standard_lookup_table      0000000180061310     libucrt:output.obj
 0002:00001370       ??_C@_1O@CEDCILHN@?$AA?$CI?$AAn?$AAu?$AAl?$AAl?$AA?$CJ?$AA?$AA@ 0000000180061370     libucrt:output.obj
 0002:00001380       ??_C@_1EK@MBDPDCGA@?$AAM?$AAi?$AAc?$AAr?$AAo?$AAs?$AAo?$AAf?$AAt?$AA?5?$AAV?$AAi?$AAs?$AAu?$AAa?$AAl?$AA?5?$AAC?$AA?$CL?$AA?$CL?$AA?5?$AAR?$AAu?$AAn?$AAt?$AAi?$AAm?$AAe?$AA?5?$AAL?$AAi?$AAb@ 0000000180061380     libucrt:assert.obj
 0002:000013d0       ??_C@_1FE@LHBLIKM@?$AAA?$AAs?$AAs?$AAe?$AAr?$AAt?$AAi?$AAo?$AAn?$AA?5?$AAf?$AAa?$AAi?$AAl?$AAe?$AAd?$AA?3?$AA?5?$AA?$CF?$AAT?$AAs?$AA?0?$AA?5?$AAf?$AAi?$AAl?$AAe?$AA?5?$AA?$CF?$AAT?$AAs?$AA?0@ 00000001800613d0     libucrt:assert.obj
 0002:00001428       ??_C@_1CE@OJBNHDMO@?$AAA?$AAs?$AAs?$AAe?$AAr?$AAt?$AAi?$AAo?$AAn?$AA?5?$AAf?$AAa?$AAi?$AAl?$AAe?$AAd?$AA?$CB?$AA?$AA@ 0000000180061428     libucrt:assert.obj
 0002:00001450       ??_C@_1BE@PHKBBGE@?$AAP?$AAr?$AAo?$AAg?$AAr?$AAa?$AAm?$AA?3?$AA?5?$AA?$AA@ 0000000180061450     libucrt:assert.obj
 0002:00001468       ??_C@_1O@HEMHKNDC@?$AAF?$AAi?$AAl?$AAe?$AA?3?$AA?5?$AA?$AA@ 0000000180061468     libucrt:assert.obj
 0002:00001478       ??_C@_1O@KCAFKHJE@?$AAL?$AAi?$AAn?$AAe?$AA?3?$AA?5?$AA?$AA@ 0000000180061478     libucrt:assert.obj
 0002:00001488       ??_C@_1BK@PEDCIPMA@?$AAE?$AAx?$AAp?$AAr?$AAe?$AAs?$AAs?$AAi?$AAo?$AAn?$AA?3?$AA?5?$AA?$AA@ 0000000180061488     libucrt:assert.obj
 0002:000014b0       ??_C@_1OA@EGMLFBHJ@?$AAF?$AAo?$AAr?$AA?5?$AAi?$AAn?$AAf?$AAo?$AAr?$AAm?$AAa?$AAt?$AAi?$AAo?$AAn?$AA?5?$AAo?$AAn?$AA?5?$AAh?$AAo?$AAw?$AA?5?$AAy?$AAo?$AAu?$AAr?$AA?5?$AAp?$AAr?$AAo?$AAg@ 00000001800614b0     libucrt:assert.obj
 0002:00001590       ??_C@_1HK@POCJMFGK@?$AA?$CI?$AAP?$AAr?$AAe?$AAs?$AAs?$AA?5?$AAR?$AAe?$AAt?$AAr?$AAy?$AA?5?$AAt?$AAo?$AA?5?$AAd?$AAe?$AAb?$AAu?$AAg?$AA?5?$AAt?$AAh?$AAe?$AA?5?$AAa?$AAp?$AAp?$AAl?$AAi?$AAc@ 0000000180061590     libucrt:assert.obj
 0002:00001610       ??_C@_17LGKOMLJ@?$AA?4?$AA?4?$AA?4?$AA?$AA@ 0000000180061610     libucrt:assert.obj
 0002:00001618       ??_C@_13LBAGMAIH@?$AA?6?$AA?$AA@ 0000000180061618     libucrt:assert.obj
 0002:0000161c       ??_C@_15IABLJNFO@?$AA?6?$AA?6?$AA?$AA@ 000000018006161c     libucrt:assert.obj
 0002:00001628       ??_C@_1CO@EAEJAADC@?$AA?$DM?$AAp?$AAr?$AAo?$AAg?$AAr?$AAa?$AAm?$AA?5?$AAn?$AAa?$AAm?$AAe?$AA?5?$AAu?$AAn?$AAk?$AAn?$AAo?$AAw?$AAn?$AA?$DO?$AA?$AA@ 0000000180061628     libucrt:assert.obj
 0002:000017c8       ??_C@_1BI@BGOHAHKC@?$AAm?$AAs?$AAc?$AAo?$AAr?$AAe?$AAe?$AA?4?$AAd?$AAl?$AAl?$AA?$AA@ 00000001800617c8     libucrt:exit.obj
 0002:000017e0       ??_C@_0P@MIGLKIOC@CorExitProcess?$AA@ 00000001800617e0     libucrt:exit.obj
 0002:000017f0       ??_C@_02CLFPBFFP@TZ?$AA@   00000001800617f0     libucrt:tzset.obj
 0002:000017f8       ??_C@_19DOGDICKI@?$AA?4?$AAe?$AAx?$AAe?$AA?$AA@ 00000001800617f8     libucrt:stat.obj
 0002:00001808       ??_C@_19BDKLHPGC@?$AA?4?$AAc?$AAm?$AAd?$AA?$AA@ 0000000180061808     libucrt:stat.obj
 0002:00001818       ??_C@_19PINKOIBI@?$AA?4?$AAb?$AAa?$AAt?$AA?$AA@ 0000000180061818     libucrt:stat.obj
 0002:00001828       ??_C@_19CDGLJBOD@?$AA?4?$AAc?$AAo?$AAm?$AA?$AA@ 0000000180061828     libucrt:stat.obj
 0002:00001838       ??_C@_17BAAFHAL@?$AA?4?$AA?1?$AA?2?$AA?$AA@ 0000000180061838     libucrt:stat.obj
 0002:00001840       ??_C@_15HEJOKEHO@?$AA?$DP?$AA?$CK?$AA?$AA@ 0000000180061840     libucrt:stat.obj
 0002:00001850       __acrt_exception_action_table 0000000180061850     libucrt:exception_filter.obj
 0002:00001910       __acrt_signal_action_table_count 0000000180061910     libucrt:exception_filter.obj
 0002:00001918       __acrt_signal_action_table_size 0000000180061918     libucrt:exception_filter.obj
 0002:00001920       __acrt_signal_action_first_fpe_index 0000000180061920     libucrt:exception_filter.obj
 0002:00001928       __acrt_signal_action_fpe_count 0000000180061928     libucrt:exception_filter.obj
 0002:00001a20       ?ccs@?BL@???$__acrt_stdio_parse_mode@D@@YA?AU__acrt_stdio_stream_mode@@QEBD@Z@4QBDB 0000000180061a20     libucrt:fdopen.obj
 0002:00001a24       ?utf8_encoding@?BL@???$__acrt_stdio_parse_mode@D@@YA?AU__acrt_stdio_stream_mode@@QEBD@Z@4QBDB 0000000180061a24     libucrt:fdopen.obj
 0002:00001a30       ?utf16_encoding@?BL@???$__acrt_stdio_parse_mode@D@@YA?AU__acrt_stdio_stream_mode@@QEBD@Z@4QBDB 0000000180061a30     libucrt:fdopen.obj
 0002:00001a38       ?unicode_encoding@?BL@???$__acrt_stdio_parse_mode@D@@YA?AU__acrt_stdio_stream_mode@@QEBD@Z@4QBDB 0000000180061a38     libucrt:fdopen.obj
 0002:00001a40       ??_C@_03OEIAHPBN@INF?$AA@  0000000180061a40     libucrt:cvt.obj
 0002:00001a44       ??_C@_03OJHLLCGB@inf?$AA@  0000000180061a44     libucrt:cvt.obj
 0002:00001a48       ??_C@_03LKNCIKJB@NAN?$AA@  0000000180061a48     libucrt:cvt.obj
 0002:00001a4c       ??_C@_03LHCJEHON@nan?$AA@  0000000180061a4c     libucrt:cvt.obj
 0002:00001a50       ??_C@_09OFJJIMPC@NAN?$CISNAN?$CJ?$AA@ 0000000180061a50     libucrt:cvt.obj
 0002:00001a60       ??_C@_09IPFBKMDL@nan?$CIsnan?$CJ?$AA@ 0000000180061a60     libucrt:cvt.obj
 0002:00001a70       ??_C@_08IKHNHAJ@NAN?$CIIND?$CJ?$AA@ 0000000180061a70     libucrt:cvt.obj
 0002:00001a80       ??_C@_08OFCDMILK@nan?$CIind?$CJ?$AA@ 0000000180061a80     libucrt:cvt.obj
 0002:00001a8c       ??_C@_05KLBDPFGC@e?$CL000?$AA@ 0000000180061a8c     libucrt:cvt.obj
 0002:00001aa0       __lc_time_c                0000000180061aa0     libucrt:nlsdata.obj
 0002:00001d60       ??_C@_03KOEHGMDN@Sun?$AA@  0000000180061d60     libucrt:nlsdata.obj
 0002:00001d64       ??_C@_03PDAGKDH@Mon?$AA@   0000000180061d64     libucrt:nlsdata.obj
 0002:00001d68       ??_C@_03NAGEINEP@Tue?$AA@  0000000180061d68     libucrt:nlsdata.obj
 0002:00001d6c       ??_C@_03MHOMLAJA@Wed?$AA@  0000000180061d6c     libucrt:nlsdata.obj
 0002:00001d70       ??_C@_03IOFIKPDN@Thu?$AA@  0000000180061d70     libucrt:nlsdata.obj
 0002:00001d74       ??_C@_03IDIOELNC@Fri?$AA@  0000000180061d74     libucrt:nlsdata.obj
 0002:00001d78       ??_C@_03FEFJNEK@Sat?$AA@   0000000180061d78     libucrt:nlsdata.obj
 0002:00001d7c       ??_C@_06OOPIFAJ@Sunday?$AA@ 0000000180061d7c     libucrt:nlsdata.obj
 0002:00001d84       ??_C@_06JLEDEDGH@Monday?$AA@ 0000000180061d84     libucrt:nlsdata.obj
 0002:00001d90       ??_C@_07BAAGCFCM@Tuesday?$AA@ 0000000180061d90     libucrt:nlsdata.obj
 0002:00001d98       ??_C@_09DLIGFAKA@Wednesday?$AA@ 0000000180061d98     libucrt:nlsdata.obj
 0002:00001da8       ??_C@_08HACCIKIA@Thursday?$AA@ 0000000180061da8     libucrt:nlsdata.obj
 0002:00001db4       ??_C@_06JECMNKMI@Friday?$AA@ 0000000180061db4     libucrt:nlsdata.obj
 0002:00001dc0       ??_C@_08INBOOONO@Saturday?$AA@ 0000000180061dc0     libucrt:nlsdata.obj
 0002:00001dcc       ??_C@_03JIHJHPIE@Jan?$AA@  0000000180061dcc     libucrt:nlsdata.obj
 0002:00001dd0       ??_C@_03HJBDCHOM@Feb?$AA@  0000000180061dd0     libucrt:nlsdata.obj
 0002:00001dd4       ??_C@_03ODNJBKGA@Mar?$AA@  0000000180061dd4     libucrt:nlsdata.obj
 0002:00001dd8       ??_C@_03LEOLGMJP@Apr?$AA@  0000000180061dd8     libucrt:nlsdata.obj
 0002:00001ddc       ??_C@_03CNMDKL@May?$AA@    0000000180061ddc     libucrt:nlsdata.obj
 0002:00001de0       ??_C@_03IDFGHECI@Jun?$AA@  0000000180061de0     libucrt:nlsdata.obj
 0002:00001de4       ??_C@_03LBGABGKK@Jul?$AA@  0000000180061de4     libucrt:nlsdata.obj
 0002:00001de8       ??_C@_03IFJFEIGA@Aug?$AA@  0000000180061de8     libucrt:nlsdata.obj
 0002:00001dec       ??_C@_03GGCAPAJC@Sep?$AA@  0000000180061dec     libucrt:nlsdata.obj
 0002:00001df0       ??_C@_03BMAOKBAD@Oct?$AA@  0000000180061df0     libucrt:nlsdata.obj
 0002:00001df4       ??_C@_03JPJOFNIA@Nov?$AA@  0000000180061df4     libucrt:nlsdata.obj
 0002:00001df8       ??_C@_03MKABNOCG@Dec?$AA@  0000000180061df8     libucrt:nlsdata.obj
 0002:00001e00       ??_C@_07CGJPFGJA@January?$AA@ 0000000180061e00     libucrt:nlsdata.obj
 0002:00001e08       ??_C@_08GNJGEPFN@February?$AA@ 0000000180061e08     libucrt:nlsdata.obj
 0002:00001e14       ??_C@_05HPCKOFNC@March?$AA@ 0000000180061e14     libucrt:nlsdata.obj
 0002:00001e1c       ??_C@_05DMJDNLEJ@April?$AA@ 0000000180061e1c     libucrt:nlsdata.obj
 0002:00001e24       ??_C@_04CNLMGBGM@June?$AA@ 0000000180061e24     libucrt:nlsdata.obj
 0002:00001e2c       ??_C@_04MIEPOIFP@July?$AA@ 0000000180061e2c     libucrt:nlsdata.obj
 0002:00001e34       ??_C@_06LBBHFDDG@August?$AA@ 0000000180061e34     libucrt:nlsdata.obj
 0002:00001e40       ??_C@_09BHHEALKD@September?$AA@ 0000000180061e40     libucrt:nlsdata.obj
 0002:00001e50       ??_C@_07JJNFCEND@October?$AA@ 0000000180061e50     libucrt:nlsdata.obj
 0002:00001e58       ??_C@_08HCHEGEOA@November?$AA@ 0000000180061e58     libucrt:nlsdata.obj
 0002:00001e68       ??_C@_08EDHMEBNP@December?$AA@ 0000000180061e68     libucrt:nlsdata.obj
 0002:00001e74       ??_C@_02DEDBPAFC@AM?$AA@   0000000180061e74     libucrt:nlsdata.obj
 0002:00001e78       ??_C@_02CJNFDJBF@PM?$AA@   0000000180061e78     libucrt:nlsdata.obj
 0002:00001e80       ??_C@_08BPBNCDIB@MM?1dd?1yy?$AA@ 0000000180061e80     libucrt:nlsdata.obj
 0002:00001e90       ??_C@_0BE@CKGJFCPC@dddd?0?5MMMM?5dd?0?5yyyy?$AA@ 0000000180061e90     libucrt:nlsdata.obj
 0002:00001ea8       ??_C@_08JCCMCCIL@HH?3mm?3ss?$AA@ 0000000180061ea8     libucrt:nlsdata.obj
 0002:00001eb8       ??_C@_17MBGCMIPB@?$AAS?$AAu?$AAn?$AA?$AA@ 0000000180061eb8     libucrt:nlsdata.obj
 0002:00001ec0       ??_C@_17KBOMKBF@?$AAM?$AAo?$AAn?$AA?$AA@ 0000000180061ec0     libucrt:nlsdata.obj
 0002:00001ec8       ??_C@_17BMKGEGOJ@?$AAT?$AAu?$AAe?$AA?$AA@ 0000000180061ec8     libucrt:nlsdata.obj
 0002:00001ed0       ??_C@_17CJEDCEPE@?$AAW?$AAe?$AAd?$AA?$AA@ 0000000180061ed0     libucrt:nlsdata.obj
 0002:00001ed8       ??_C@_17PDPHAADD@?$AAT?$AAh?$AAu?$AA?$AA@ 0000000180061ed8     libucrt:nlsdata.obj
 0002:00001ee0       ??_C@_17HFOLPPLP@?$AAF?$AAr?$AAi?$AA?$AA@ 0000000180061ee0     libucrt:nlsdata.obj
 0002:00001ee8       ??_C@_17GGIBDPIH@?$AAS?$AAa?$AAt?$AA?$AA@ 0000000180061ee8     libucrt:nlsdata.obj
 0002:00001ef0       ??_C@_1O@IHNHDHPB@?$AAS?$AAu?$AAn?$AAd?$AAa?$AAy?$AA?$AA@ 0000000180061ef0     libucrt:nlsdata.obj
 0002:00001f00       ??_C@_1O@MMNBFLIA@?$AAM?$AAo?$AAn?$AAd?$AAa?$AAy?$AA?$AA@ 0000000180061f00     libucrt:nlsdata.obj
 0002:00001f10       ??_C@_1BA@ENFBFFEK@?$AAT?$AAu?$AAe?$AAs?$AAd?$AAa?$AAy?$AA?$AA@ 0000000180061f10     libucrt:nlsdata.obj
 0002:00001f20       ??_C@_1BE@EBOGMDOH@?$AAW?$AAe?$AAd?$AAn?$AAe?$AAs?$AAd?$AAa?$AAy?$AA?$AA@ 0000000180061f20     libucrt:nlsdata.obj
 0002:00001f38       ??_C@_1BC@HHMNLIHE@?$AAT?$AAh?$AAu?$AAr?$AAs?$AAd?$AAa?$AAy?$AA?$AA@ 0000000180061f38     libucrt:nlsdata.obj
 0002:00001f50       ??_C@_1O@PDICJHAG@?$AAF?$AAr?$AAi?$AAd?$AAa?$AAy?$AA?$AA@ 0000000180061f50     libucrt:nlsdata.obj
 0002:00001f60       ??_C@_1BC@ENMNNPAJ@?$AAS?$AAa?$AAt?$AAu?$AAr?$AAd?$AAa?$AAy?$AA?$AA@ 0000000180061f60     libucrt:nlsdata.obj
 0002:00001f78       ??_C@_17DKNBKCHM@?$AAJ?$AAa?$AAn?$AA?$AA@ 0000000180061f78     libucrt:nlsdata.obj
 0002:00001f80       ??_C@_17LMDJEKJN@?$AAF?$AAe?$AAb?$AA?$AA@ 0000000180061f80     libucrt:nlsdata.obj
 0002:00001f88       ??_C@_17CKNLEDEC@?$AAM?$AAa?$AAr?$AA?$AA@ 0000000180061f88     libucrt:nlsdata.obj
 0002:00001f90       ??_C@_17LFPOIHDD@?$AAA?$AAp?$AAr?$AA?$AA@ 0000000180061f90     libucrt:nlsdata.obj
 0002:00001f98       ??_C@_17PNNKMEED@?$AAM?$AAa?$AAy?$AA?$AA@ 0000000180061f98     libucrt:nlsdata.obj
 0002:00001fa0       ??_C@_17KCJGOCPB@?$AAJ?$AAu?$AAn?$AA?$AA@ 0000000180061fa0     libucrt:nlsdata.obj
 0002:00001fa8       ??_C@_17IJPCKHK@?$AAJ?$AAu?$AAl?$AA?$AA@ 0000000180061fa8     libucrt:nlsdata.obj
 0002:00001fb0       ??_C@_17ICPELBCN@?$AAA?$AAu?$AAg?$AA?$AA@ 0000000180061fb0     libucrt:nlsdata.obj
 0002:00001fb8       ??_C@_17HCHCOKMG@?$AAS?$AAe?$AAp?$AA?$AA@ 0000000180061fb8     libucrt:nlsdata.obj
 0002:00001fc0       ??_C@_17FNLKOI@?$AAO?$AAc?$AAt?$AA?$AA@ 0000000180061fc0     libucrt:nlsdata.obj
 0002:00001fc8       ??_C@_17BBDMLCIG@?$AAN?$AAo?$AAv?$AA?$AA@ 0000000180061fc8     libucrt:nlsdata.obj
 0002:00001fd0       ??_C@_17EGKACKIF@?$AAD?$AAe?$AAc?$AA?$AA@ 0000000180061fd0     libucrt:nlsdata.obj
 0002:00001fd8       ??_C@_1BA@EFMEIEBA@?$AAJ?$AAa?$AAn?$AAu?$AAa?$AAr?$AAy?$AA?$AA@ 0000000180061fd8     libucrt:nlsdata.obj
 0002:00001fe8       ??_C@_1BC@JGDDFFAM@?$AAF?$AAe?$AAb?$AAr?$AAu?$AAa?$AAr?$AAy?$AA?$AA@ 0000000180061fe8     libucrt:nlsdata.obj
 0002:00002000       ??_C@_1M@IKEENEDF@?$AAM?$AAa?$AAr?$AAc?$AAh?$AA?$AA@ 0000000180062000     libucrt:nlsdata.obj
 0002:00002010       ??_C@_1M@GJNLMHFD@?$AAA?$AAp?$AAr?$AAi?$AAl?$AA?$AA@ 0000000180062010     libucrt:nlsdata.obj
 0002:00002020       ??_C@_19EPFLPGAP@?$AAJ?$AAu?$AAn?$AAe?$AA?$AA@ 0000000180062020     libucrt:nlsdata.obj
 0002:00002030       ??_C@_19BIFMLPCD@?$AAJ?$AAu?$AAl?$AAy?$AA?$AA@ 0000000180062030     libucrt:nlsdata.obj
 0002:00002040       ??_C@_1O@PAHLKOAC@?$AAA?$AAu?$AAg?$AAu?$AAs?$AAt?$AA?$AA@ 0000000180062040     libucrt:nlsdata.obj
 0002:00002050       ??_C@_1BE@DKAAMBJL@?$AAS?$AAe?$AAp?$AAt?$AAe?$AAm?$AAb?$AAe?$AAr?$AA?$AA@ 0000000180062050     libucrt:nlsdata.obj
 0002:00002068       ??_C@_1BA@EPANDLNG@?$AAO?$AAc?$AAt?$AAo?$AAb?$AAe?$AAr?$AA?$AA@ 0000000180062068     libucrt:nlsdata.obj
 0002:00002078       ??_C@_1BC@BGLIFPF@?$AAN?$AAo?$AAv?$AAe?$AAm?$AAb?$AAe?$AAr?$AA?$AA@ 0000000180062078     libucrt:nlsdata.obj
 0002:00002090       ??_C@_1BC@FEMKIFH@?$AAD?$AAe?$AAc?$AAe?$AAm?$AAb?$AAe?$AAr?$AA?$AA@ 0000000180062090     libucrt:nlsdata.obj
 0002:000020a4       ??_C@_15ODEHAHHF@?$AAA?$AAM?$AA?$AA@ 00000001800620a4     libucrt:nlsdata.obj
 0002:000020ac       ??_C@_15CLMNNGEL@?$AAP?$AAM?$AA?$AA@ 00000001800620ac     libucrt:nlsdata.obj
 0002:000020b8       ??_C@_1BC@IEBCMHCM@?$AAM?$AAM?$AA?1?$AAd?$AAd?$AA?1?$AAy?$AAy?$AA?$AA@ 00000001800620b8     libucrt:nlsdata.obj
 0002:000020d0       ??_C@_1CI@KNAKOEBC@?$AAd?$AAd?$AAd?$AAd?$AA?0?$AA?5?$AAM?$AAM?$AAM?$AAM?$AA?5?$AAd?$AAd?$AA?0?$AA?5?$AAy?$AAy?$AAy?$AAy?$AA?$AA@ 00000001800620d0     libucrt:nlsdata.obj
 0002:000020f8       ??_C@_1BC@GDGBMEMK@?$AAH?$AAH?$AA?3?$AAm?$AAm?$AA?3?$AAs?$AAs?$AA?$AA@ 00000001800620f8     libucrt:nlsdata.obj
 0002:00002110       ??_C@_1M@BMHNFIME@?$AAe?$AAn?$AA?9?$AAU?$AAS?$AA?$AA@ 0000000180062110     libucrt:nlsdata.obj
 0002:000021c0       ??_C@_1EG@CNNIPFIM@?$AAa?$AAp?$AAi?$AA?9?$AAm?$AAs?$AA?9?$AAw?$AAi?$AAn?$AA?9?$AAa?$AAp?$AAp?$AAm?$AAo?$AAd?$AAe?$AAl?$AA?9?$AAr?$AAu?$AAn?$AAt?$AAi?$AAm?$AAe?$AA?9?$AAl?$AA1?$AA?9?$AA1@ 00000001800621c0     libucrt:winapi_thunks.obj
 0002:00002210       ??_C@_1EA@JGEFHKEI@?$AAa?$AAp?$AAi?$AA?9?$AAm?$AAs?$AA?9?$AAw?$AAi?$AAn?$AA?9?$AAc?$AAo?$AAr?$AAe?$AA?9?$AAd?$AAa?$AAt?$AAe?$AAt?$AAi?$AAm?$AAe?$AA?9?$AAl?$AA1?$AA?9?$AA1?$AA?9?$AA1?$AA?$AA@ 0000000180062210     libucrt:winapi_thunks.obj
 0002:00002250       ??_C@_1DI@GCIAAENM@?$AAa?$AAp?$AAi?$AA?9?$AAm?$AAs?$AA?9?$AAw?$AAi?$AAn?$AA?9?$AAc?$AAo?$AAr?$AAe?$AA?9?$AAf?$AAi?$AAl?$AAe?$AA?9?$AAl?$AA2?$AA?9?$AA1?$AA?9?$AA1?$AA?$AA@ 0000000180062250     libucrt:winapi_thunks.obj
 0002:00002290       ??_C@_1EI@MPIAOHOC@?$AAa?$AAp?$AAi?$AA?9?$AAm?$AAs?$AA?9?$AAw?$AAi?$AAn?$AA?9?$AAc?$AAo?$AAr?$AAe?$AA?9?$AAl?$AAo?$AAc?$AAa?$AAl?$AAi?$AAz?$AAa?$AAt?$AAi?$AAo?$AAn?$AA?9?$AAl?$AA1?$AA?9@ 0000000180062290     libucrt:winapi_thunks.obj
 0002:000022e0       ??_C@_1FK@FPHCKFIE@?$AAa?$AAp?$AAi?$AA?9?$AAm?$AAs?$AA?9?$AAw?$AAi?$AAn?$AA?9?$AAc?$AAo?$AAr?$AAe?$AA?9?$AAl?$AAo?$AAc?$AAa?$AAl?$AAi?$AAz?$AAa?$AAt?$AAi?$AAo?$AAn?$AA?9?$AAo?$AAb?$AAs@ 00000001800622e0     libucrt:winapi_thunks.obj
 0002:00002340       ??_C@_1EM@DILCGIIO@?$AAa?$AAp?$AAi?$AA?9?$AAm?$AAs?$AA?9?$AAw?$AAi?$AAn?$AA?9?$AAc?$AAo?$AAr?$AAe?$AA?9?$AAp?$AAr?$AAo?$AAc?$AAe?$AAs?$AAs?$AAt?$AAh?$AAr?$AAe?$AAa?$AAd?$AAs?$AA?9?$AAl@ 0000000180062340     libucrt:winapi_thunks.obj
 0002:00002390       ??_C@_1DM@LNCGDDPN@?$AAa?$AAp?$AAi?$AA?9?$AAm?$AAs?$AA?9?$AAw?$AAi?$AAn?$AA?9?$AAc?$AAo?$AAr?$AAe?$AA?9?$AAs?$AAt?$AAr?$AAi?$AAn?$AAg?$AA?9?$AAl?$AA1?$AA?9?$AA1?$AA?9?$AA0?$AA?$AA@ 0000000180062390     libucrt:winapi_thunks.obj
 0002:000023d0       ??_C@_1DO@FPAPJEMD@?$AAa?$AAp?$AAi?$AA?9?$AAm?$AAs?$AA?9?$AAw?$AAi?$AAn?$AA?9?$AAc?$AAo?$AAr?$AAe?$AA?9?$AAs?$AAy?$AAs?$AAi?$AAn?$AAf?$AAo?$AA?9?$AAl?$AA1?$AA?9?$AA2?$AA?9?$AA1?$AA?$AA@ 00000001800623d0     libucrt:winapi_thunks.obj
 0002:00002410       ??_C@_1DK@NDHNAHIO@?$AAa?$AAp?$AAi?$AA?9?$AAm?$AAs?$AA?9?$AAw?$AAi?$AAn?$AA?9?$AAc?$AAo?$AAr?$AAe?$AA?9?$AAw?$AAi?$AAn?$AAr?$AAt?$AA?9?$AAl?$AA1?$AA?9?$AA1?$AA?9?$AA0?$AA?$AA@ 0000000180062410     libucrt:winapi_thunks.obj
 0002:00002450       ??_C@_1DM@KGHDGBCM@?$AAa?$AAp?$AAi?$AA?9?$AAm?$AAs?$AA?9?$AAw?$AAi?$AAn?$AA?9?$AAc?$AAo?$AAr?$AAe?$AA?9?$AAx?$AAs?$AAt?$AAa?$AAt?$AAe?$AA?9?$AAl?$AA2?$AA?9?$AA1?$AA?9?$AA0?$AA?$AA@ 0000000180062450     libucrt:winapi_thunks.obj
 0002:00002490       ??_C@_1EO@IJIOEFOH@?$AAa?$AAp?$AAi?$AA?9?$AAm?$AAs?$AA?9?$AAw?$AAi?$AAn?$AA?9?$AAr?$AAt?$AAc?$AAo?$AAr?$AAe?$AA?9?$AAn?$AAt?$AAu?$AAs?$AAe?$AAr?$AA?9?$AAw?$AAi?$AAn?$AAd?$AAo?$AAw?$AA?9@ 0000000180062490     libucrt:winapi_thunks.obj
 0002:000024e0       ??_C@_1FG@HHGEKANL@?$AAa?$AAp?$AAi?$AA?9?$AAm?$AAs?$AA?9?$AAw?$AAi?$AAn?$AA?9?$AAs?$AAe?$AAc?$AAu?$AAr?$AAi?$AAt?$AAy?$AA?9?$AAs?$AAy?$AAs?$AAt?$AAe?$AAm?$AAf?$AAu?$AAn?$AAc?$AAt?$AAi@ 00000001800624e0     libucrt:winapi_thunks.obj
 0002:00002540       ??_C@_1FG@NCKKOLKO@?$AAe?$AAx?$AAt?$AA?9?$AAm?$AAs?$AA?9?$AAw?$AAi?$AAn?$AA?9?$AAk?$AAe?$AAr?$AAn?$AAe?$AAl?$AA3?$AA2?$AA?9?$AAp?$AAa?$AAc?$AAk?$AAa?$AAg?$AAe?$AA?9?$AAc?$AAu?$AAr?$AAr@ 0000000180062540     libucrt:winapi_thunks.obj
 0002:000025a0       ??_C@_1EG@DBIOJECG@?$AAe?$AAx?$AAt?$AA?9?$AAm?$AAs?$AA?9?$AAw?$AAi?$AAn?$AA?9?$AAn?$AAt?$AAu?$AAs?$AAe?$AAr?$AA?9?$AAd?$AAi?$AAa?$AAl?$AAo?$AAg?$AAb?$AAo?$AAx?$AA?9?$AAl?$AA1?$AA?9?$AA1@ 00000001800625a0     libucrt:winapi_thunks.obj
 0002:000025f0       ??_C@_1EO@FIHMJCLF@?$AAe?$AAx?$AAt?$AA?9?$AAm?$AAs?$AA?9?$AAw?$AAi?$AAn?$AA?9?$AAn?$AAt?$AAu?$AAs?$AAe?$AAr?$AA?9?$AAw?$AAi?$AAn?$AAd?$AAo?$AAw?$AAs?$AAt?$AAa?$AAt?$AAi?$AAo?$AAn?$AA?9@ 00000001800625f0     libucrt:winapi_thunks.obj
 0002:00002640       ??_C@_1O@BCCLBEOE@?$AAu?$AAs?$AAe?$AAr?$AA3?$AA2?$AA?$AA@ 0000000180062640     libucrt:winapi_thunks.obj
 0002:00002658       ??_C@_0BA@FHFNEAED@AreFileApisANSI?$AA@ 0000000180062658     libucrt:winapi_thunks.obj
 0002:00002670       ??_C@_0BA@IHGNDAEB@CompareStringEx?$AA@ 0000000180062670     libucrt:winapi_thunks.obj
 0002:000026a8       ??_C@_0BA@HNOPNCHB@GetActiveWindow?$AA@ 00000001800626a8     libucrt:winapi_thunks.obj
 0002:000026c0       ??_C@_0BE@JOGNEJCI@GetCurrentPackageId?$AA@ 00000001800626c0     libucrt:winapi_thunks.obj
 0002:000026e0       ??_C@_0BN@NEEHBBPO@GetFileInformationByHandleEx?$AA@ 00000001800626e0     libucrt:winapi_thunks.obj
 0002:00002708       ??_C@_0BD@HHGDFDBJ@GetLastActivePopup?$AA@ 0000000180062708     libucrt:winapi_thunks.obj
 0002:00002728       ??_C@_0BI@DFKBFLJE@GetProcessWindowStation?$AA@ 0000000180062728     libucrt:winapi_thunks.obj
 0002:00002748       ??_C@_0BK@DEKFELLI@GetUserObjectInformationW?$AA@ 0000000180062748     libucrt:winapi_thunks.obj
 0002:00002778       ??_C@_0O@KKBNKAPF@LCMapStringEx?$AA@ 0000000180062778     libucrt:winapi_thunks.obj
 0002:00002790       ??_C@_0BB@HBDEELFH@LocaleNameToLCID?$AA@ 0000000180062790     libucrt:winapi_thunks.obj
 0002:000027b0       ??_C@_0M@CHKKJDAI@MessageBoxA?$AA@ 00000001800627b0     libucrt:winapi_thunks.obj
 0002:000027c8       ??_C@_0M@DLDCCGNP@MessageBoxW?$AA@ 00000001800627c8     libucrt:winapi_thunks.obj
 0002:000027e0       __newctype                 00000001800627e0     libucrt:ctype.obj
 0002:00002ae0       __newclmap                 0000000180062ae0     libucrt:ctype.obj
 0002:00002c60       __newcumap                 0000000180062c60     libucrt:ctype.obj
 0002:00002de0       _wctype                    0000000180062de0     libucrt:ctype.obj
 0002:00002fe8       _days                      0000000180062fe8     libucrt:days.obj
 0002:00003020       _lpdays                    0000000180063020     libucrt:days.obj
 0002:00003060       _sys_errlist               0000000180063060     libucrt:syserr.obj
 0002:000031c0       ??_C@_08INEPGKHH@No?5error?$AA@ 00000001800631c0     libucrt:syserr.obj
 0002:000031d0       ??_C@_0BI@BJFCGOHL@Operation?5not?5permitted?$AA@ 00000001800631d0     libucrt:syserr.obj
 0002:000031e8       ??_C@_0BK@FMDHKPNF@No?5such?5file?5or?5directory?$AA@ 00000001800631e8     libucrt:syserr.obj
 0002:00003208       ??_C@_0BA@FKIAIBGA@No?5such?5process?$AA@ 0000000180063208     libucrt:syserr.obj
 0002:00003218       ??_C@_0BK@FJBOAFDK@Interrupted?5function?5call?$AA@ 0000000180063218     libucrt:syserr.obj
 0002:00003238       ??_C@_0BD@KKNFOBBD@Input?1output?5error?$AA@ 0000000180063238     libucrt:syserr.obj
 0002:00003250       ??_C@_0BK@DPKMCKJ@No?5such?5device?5or?5address?$AA@ 0000000180063250     libucrt:syserr.obj
 0002:00003270       ??_C@_0BC@MFFGCDFL@Arg?5list?5too?5long?$AA@ 0000000180063270     libucrt:syserr.obj
 0002:00003288       ??_C@_0BC@HKPNECK@Exec?5format?5error?$AA@ 0000000180063288     libucrt:syserr.obj
 0002:000032a0       ??_C@_0BE@NFGDDCEF@Bad?5file?5descriptor?$AA@ 00000001800632a0     libucrt:syserr.obj
 0002:000032b8       ??_C@_0BD@LOHELEP@No?5child?5processes?$AA@ 00000001800632b8     libucrt:syserr.obj
 0002:000032d0       ??_C@_0CB@EPFKGNAK@Resource?5temporarily?5unavailable@ 00000001800632d0     libucrt:syserr.obj
 0002:000032f8       ??_C@_0BB@IMDKMPFB@Not?5enough?5space?$AA@ 00000001800632f8     libucrt:syserr.obj
 0002:00003310       ??_C@_0BC@HFNFNKAI@Permission?5denied?$AA@ 0000000180063310     libucrt:syserr.obj
 0002:00003328       ??_C@_0M@LOEHLCJD@Bad?5address?$AA@ 0000000180063328     libucrt:syserr.obj
 0002:00003338       ??_C@_0O@NIPGCINC@Unknown?5error?$AA@ 0000000180063338     libucrt:syserr.obj
 0002:00003348       ??_C@_0BA@BIBLIOEK@Resource?5device?$AA@ 0000000180063348     libucrt:syserr.obj
 0002:00003358       ??_C@_0M@NAAJNNGH@File?5exists?$AA@ 0000000180063358     libucrt:syserr.obj
 0002:00003368       ??_C@_0O@OAMDNOCP@Improper?5link?$AA@ 0000000180063368     libucrt:syserr.obj
 0002:00003378       ??_C@_0P@NLEIANHE@No?5such?5device?$AA@ 0000000180063378     libucrt:syserr.obj
 0002:00003388       ??_C@_0BA@CJBACOOL@Not?5a?5directory?$AA@ 0000000180063388     libucrt:syserr.obj
 0002:00003398       ??_C@_0P@NDHGCGKE@Is?5a?5directory?$AA@ 0000000180063398     libucrt:syserr.obj
 0002:000033a8       ??_C@_0BB@HMGGCEBG@Invalid?5argument?$AA@ 00000001800633a8     libucrt:syserr.obj
 0002:000033c0       ??_C@_0BO@IIFBODJE@Too?5many?5open?5files?5in?5system?$AA@ 00000001800633c0     libucrt:syserr.obj
 0002:000033e0       ??_C@_0BE@INBJMKGG@Too?5many?5open?5files?$AA@ 00000001800633e0     libucrt:syserr.obj
 0002:000033f8       ??_C@_0CE@ONOKNLPF@Inappropriate?5I?1O?5control?5operat@ 00000001800633f8     libucrt:syserr.obj
 0002:00003420       ??_C@_0P@LFMMIPAE@File?5too?5large?$AA@ 0000000180063420     libucrt:syserr.obj
 0002:00003430       ??_C@_0BI@FEALHKLD@No?5space?5left?5on?5device?$AA@ 0000000180063430     libucrt:syserr.obj
 0002:00003448       ??_C@_0N@FEHLOILP@Invalid?5seek?$AA@ 0000000180063448     libucrt:syserr.obj
 0002:00003458       ??_C@_0BG@DDBFNKBH@Read?9only?5file?5system?$AA@ 0000000180063458     libucrt:syserr.obj
 0002:00003470       ??_C@_0P@PKCJJLLM@Too?5many?5links?$AA@ 0000000180063470     libucrt:syserr.obj
 0002:00003480       ??_C@_0M@LHEPIIOM@Broken?5pipe?$AA@ 0000000180063480     libucrt:syserr.obj
 0002:00003490       ??_C@_0N@MMJPGLJK@Domain?5error?$AA@ 0000000180063490     libucrt:syserr.obj
 0002:000034a0       ??_C@_0BB@FCBJFCAJ@Result?5too?5large?$AA@ 00000001800634a0     libucrt:syserr.obj
 0002:000034b8       ??_C@_0BK@JAEBMJJM@Resource?5deadlock?5avoided?$AA@ 00000001800634b8     libucrt:syserr.obj
 0002:000034d8       ??_C@_0BC@BEDIHIDK@Filename?5too?5long?$AA@ 00000001800634d8     libucrt:syserr.obj
 0002:000034f0       ??_C@_0BD@CLHBCGPB@No?5locks?5available?$AA@ 00000001800634f0     libucrt:syserr.obj
 0002:00003508       ??_C@_0BJ@IHEHINLI@Function?5not?5implemented?$AA@ 0000000180063508     libucrt:syserr.obj
 0002:00003528       ??_C@_0BE@ICMCHPHH@Directory?5not?5empty?$AA@ 0000000180063528     libucrt:syserr.obj
 0002:00003540       ??_C@_0BG@KLEAJEFJ@Illegal?5byte?5sequence?$AA@ 0000000180063540     libucrt:syserr.obj
 0002:00003558       _sys_nerr                  0000000180063558     libucrt:syserr.obj
 0002:00003580       ??_C@_1M@HPNHIDJI@?$AAj?$AAa?$AA?9?$AAJ?$AAP?$AA?$AA@ 0000000180063580     libucrt:mbctype.obj
 0002:00003590       ??_C@_1M@BIBDDEMK@?$AAz?$AAh?$AA?9?$AAC?$AAN?$AA?$AA@ 0000000180063590     libucrt:mbctype.obj
 0002:000035a0       ??_C@_1M@JLOOOEGK@?$AAk?$AAo?$AA?9?$AAK?$AAR?$AA?$AA@ 00000001800635a0     libucrt:mbctype.obj
 0002:000035b0       ??_C@_1M@CLNBBOPM@?$AAz?$AAh?$AA?9?$AAT?$AAW?$AA?$AA@ 00000001800635b0     libucrt:mbctype.obj
 0002:000035c0       ?large_power_data@?1??multiply_by_power_of_ten@__crt_strtox@@YA_NAEAUbig_integer@2@I@Z@4QBIB 00000001800635c0     libucrt:cfout.obj
 0002:00003ed0       ?large_power_indices@?1??multiply_by_power_of_ten@__crt_strtox@@YA_NAEAUbig_integer@2@I@Z@4QBUunpack_index@?1??12@YA_N0I@Z@B 0000000180063ed0     libucrt:cfout.obj
 0002:00003f68       ?small_powers_of_ten@?6??multiply_by_power_of_ten@__crt_strtox@@YA_NAEAUbig_integer@2@I@Z@4QBIB 0000000180063f68     libucrt:cfout.obj
 0002:00003f8c       ??_C@_01GBGANLPD@0?$AA@    0000000180063f8c     libucrt:cfout.obj
 0002:00003f90       ??_C@_05DNEBIAHO@1?$CDINF?$AA@ 0000000180063f90     libucrt:cfout.obj
 0002:00003f98       ??_C@_06IMKFLFPG@1?$CDQNAN?$AA@ 0000000180063f98     libucrt:cfout.obj
 0002:00003fa0       ??_C@_06PGGFOGJG@1?$CDSNAN?$AA@ 0000000180063fa0     libucrt:cfout.obj
 0002:00003fa8       ??_C@_05PHHOCPM@1?$CDIND?$AA@ 0000000180063fa8     libucrt:cfout.obj
 0002:00003fb0       ??_C@_15PJPFLCCM@?$AAu?$AAk?$AA?$AA@ 0000000180063fb0     libucrt:get_qualified_locale.obj
 0002:00004e00       ??_C@_15EMKDOKLE@?$AAa?$AAr?$AA?$AA@ 0000000180064e00     libucrt:lcidtoname_downlevel.obj
 0002:00004e08       ??_C@_15KNPADPLH@?$AAb?$AAg?$AA?$AA@ 0000000180064e08     libucrt:lcidtoname_downlevel.obj
 0002:00004e10       ??_C@_15EDMHLDMO@?$AAc?$AAa?$AA?$AA@ 0000000180064e10     libucrt:lcidtoname_downlevel.obj
 0002:00004e18       ??_C@_1O@BPEAJADD@?$AAz?$AAh?$AA?9?$AAC?$AAH?$AAS?$AA?$AA@ 0000000180064e18     libucrt:lcidtoname_downlevel.obj
 0002:00004e28       ??_C@_15LJNHCMNK@?$AAc?$AAs?$AA?$AA@ 0000000180064e28     libucrt:lcidtoname_downlevel.obj
 0002:00004e30       ??_C@_15FOMCIDHG@?$AAd?$AAa?$AA?$AA@ 0000000180064e30     libucrt:lcidtoname_downlevel.obj
 0002:00004e38       ??_C@_15NBKABECB@?$AAd?$AAe?$AA?$AA@ 0000000180064e38     libucrt:lcidtoname_downlevel.obj
 0002:00004e40       ??_C@_15GHPEIIAO@?$AAe?$AAl?$AA?$AA@ 0000000180064e40     libucrt:lcidtoname_downlevel.obj
 0002:00004e48       ??_C@_15MNPNEAIF@?$AAe?$AAn?$AA?$AA@ 0000000180064e48     libucrt:lcidtoname_downlevel.obj
 0002:00004e50       ??_C@_15GPIOMPMH@?$AAe?$AAs?$AA?$AA@ 0000000180064e50     libucrt:lcidtoname_downlevel.obj
 0002:00004e58       ??_C@_15NGLOAKJC@?$AAf?$AAi?$AA?$AA@ 0000000180064e58     libucrt:lcidtoname_downlevel.obj
 0002:00004e60       ??_C@_15FBKGNKAM@?$AAf?$AAr?$AA?$AA@ 0000000180064e60     libucrt:lcidtoname_downlevel.obj
 0002:00004e68       ??_C@_15KGGCNEFK@?$AAh?$AAe?$AA?$AA@ 0000000180064e68     libucrt:lcidtoname_downlevel.obj
 0002:00004e70       ??_C@_15PGHLIDMF@?$AAh?$AAu?$AA?$AA@ 0000000180064e70     libucrt:lcidtoname_downlevel.obj
 0002:00004e78       ??_C@_15BIEMAPLM@?$AAi?$AAs?$AA?$AA@ 0000000180064e78     libucrt:lcidtoname_downlevel.obj
 0002:00004e80       ??_C@_15IFJLDHAF@?$AAi?$AAt?$AA?$AA@ 0000000180064e80     libucrt:lcidtoname_downlevel.obj
 0002:00004e88       ??_C@_15GEMIOCAG@?$AAj?$AAa?$AA?$AA@ 0000000180064e88     libucrt:lcidtoname_downlevel.obj
 0002:00004e90       ??_C@_15EPELEGJA@?$AAk?$AAo?$AA?$AA@ 0000000180064e90     libucrt:lcidtoname_downlevel.obj
 0002:00004e98       ??_C@_15NDDHIMN@?$AAn?$AAl?$AA?$AA@ 0000000180064e98     libucrt:lcidtoname_downlevel.obj
 0002:00004ea0       ??_C@_15BPIGNHCD@?$AAn?$AAo?$AA?$AA@ 0000000180064ea0     libucrt:lcidtoname_downlevel.obj
 0002:00004ea8       ??_C@_15DEOPBLCG@?$AAp?$AAl?$AA?$AA@ 0000000180064ea8     libucrt:lcidtoname_downlevel.obj
 0002:00004eb0       ??_C@_15KBECGEFG@?$AAp?$AAt?$AA?$AA@ 0000000180064eb0     libucrt:lcidtoname_downlevel.obj
 0002:00004eb8       ??_C@_15GLJCBFMD@?$AAr?$AAo?$AA?$AA@ 0000000180064eb8     libucrt:lcidtoname_downlevel.obj
 0002:00004ec0       ??_C@_15FEDGKCDI@?$AAr?$AAu?$AA?$AA@ 0000000180064ec0     libucrt:lcidtoname_downlevel.obj
 0002:00004ec8       ??_C@_15GLKMLLHM@?$AAh?$AAr?$AA?$AA@ 0000000180064ec8     libucrt:lcidtoname_downlevel.obj
 0002:00004ed0       ??_C@_15CPKMFBDB@?$AAs?$AAk?$AA?$AA@ 0000000180064ed0     libucrt:lcidtoname_downlevel.obj
 0002:00004ed8       ??_C@_15BAAIOGMK@?$AAs?$AAq?$AA?$AA@ 0000000180064ed8     libucrt:lcidtoname_downlevel.obj
 0002:00004ee0       ??_C@_15INNPNOHD@?$AAs?$AAv?$AA?$AA@ 0000000180064ee0     libucrt:lcidtoname_downlevel.obj
 0002:00004ee8       ??_C@_15CABMMOGH@?$AAt?$AAh?$AA?$AA@ 0000000180064ee8     libucrt:lcidtoname_downlevel.obj
 0002:00004ef0       ??_C@_15BPLIHJJM@?$AAt?$AAr?$AA?$AA@ 0000000180064ef0     libucrt:lcidtoname_downlevel.obj
 0002:00004ef8       ??_C@_15NEOEKKDJ@?$AAu?$AAr?$AA?$AA@ 0000000180064ef8     libucrt:lcidtoname_downlevel.obj
 0002:00004f00       ??_C@_15NFICGAJK@?$AAi?$AAd?$AA?$AA@ 0000000180064f00     libucrt:lcidtoname_downlevel.obj
 0002:00004f08       ??_C@_15HPJPHDM@?$AAb?$AAe?$AA?$AA@ 0000000180064f08     libucrt:lcidtoname_downlevel.obj
 0002:00004f10       ??_C@_15LCHLGJII@?$AAs?$AAl?$AA?$AA@ 0000000180064f10     libucrt:lcidtoname_downlevel.obj
 0002:00004f18       ??_C@_15PCFJPHHO@?$AAe?$AAt?$AA?$AA@ 0000000180064f18     libucrt:lcidtoname_downlevel.obj
 0002:00004f20       ??_C@_15HPFPGODN@?$AAl?$AAv?$AA?$AA@ 0000000180064f20     libucrt:lcidtoname_downlevel.obj
 0002:00004f28       ??_C@_15NFFGKGLG@?$AAl?$AAt?$AA?$AA@ 0000000180064f28     libucrt:lcidtoname_downlevel.obj
 0002:00004f30       ??_C@_15BDAKCCHN@?$AAf?$AAa?$AA?$AA@ 0000000180064f30     libucrt:lcidtoname_downlevel.obj
 0002:00004f38       ??_C@_15NFGIAIAJ@?$AAv?$AAi?$AA?$AA@ 0000000180064f38     libucrt:lcidtoname_downlevel.obj
 0002:00004f40       ??_C@_15LMKNDMHN@?$AAh?$AAy?$AA?$AA@ 0000000180064f40     libucrt:lcidtoname_downlevel.obj
 0002:00004f48       ??_C@_15IJBHMCFL@?$AAa?$AAz?$AA?$AA@ 0000000180064f48     libucrt:lcidtoname_downlevel.obj
 0002:00004f50       ??_C@_15EKOFJABL@?$AAe?$AAu?$AA?$AA@ 0000000180064f50     libucrt:lcidtoname_downlevel.obj
 0002:00004f58       ??_C@_15BGHADCNK@?$AAm?$AAk?$AA?$AA@ 0000000180064f58     libucrt:lcidtoname_downlevel.obj
 0002:00004f60       ??_C@_15JDNICKHM@?$AAa?$AAf?$AA?$AA@ 0000000180064f60     libucrt:lcidtoname_downlevel.obj
 0002:00004f68       ??_C@_15KPJEDBKD@?$AAk?$AAa?$AA?$AA@ 0000000180064f68     libucrt:lcidtoname_downlevel.obj
 0002:00004f70       ??_C@_15PDNFFFEO@?$AAf?$AAo?$AA?$AA@ 0000000180064f70     libucrt:lcidtoname_downlevel.obj
 0002:00004f78       ??_C@_15OMLEGLOC@?$AAh?$AAi?$AA?$AA@ 0000000180064f78     libucrt:lcidtoname_downlevel.obj
 0002:00004f80       ??_C@_15IDNNENKK@?$AAm?$AAs?$AA?$AA@ 0000000180064f80     libucrt:lcidtoname_downlevel.obj
 0002:00004f88       ??_C@_15MACJNBMH@?$AAk?$AAk?$AA?$AA@ 0000000180064f88     libucrt:lcidtoname_downlevel.obj
 0002:00004f90       ??_C@_15DKDJEOND@?$AAk?$AAy?$AA?$AA@ 0000000180064f90     libucrt:lcidtoname_downlevel.obj
 0002:00004f98       ??_C@_15DFGDLJBG@?$AAs?$AAw?$AA?$AA@ 0000000180064f98     libucrt:lcidtoname_downlevel.obj
 0002:00004fa0       ??_C@_15BBFAICNG@?$AAu?$AAz?$AA?$AA@ 0000000180064fa0     libucrt:lcidtoname_downlevel.obj
 0002:00004fa8       ??_C@_15DKNDCGEA@?$AAt?$AAt?$AA?$AA@ 0000000180064fa8     libucrt:lcidtoname_downlevel.obj
 0002:00004fb0       ??_C@_15MGIFMDPL@?$AAp?$AAa?$AA?$AA@ 0000000180064fb0     libucrt:lcidtoname_downlevel.obj
 0002:00004fb8       ??_C@_15HCNDBBA@?$AAg?$AAu?$AA?$AA@ 0000000180064fb8     libucrt:lcidtoname_downlevel.obj
 0002:00004fc0       ??_C@_15FNBEIBON@?$AAt?$AAa?$AA?$AA@ 0000000180064fc0     libucrt:lcidtoname_downlevel.obj
 0002:00004fc8       ??_C@_15NCHGBGLK@?$AAt?$AAe?$AA?$AA@ 0000000180064fc8     libucrt:lcidtoname_downlevel.obj
 0002:00004fd0       ??_C@_15PHPHCBPF@?$AAk?$AAn?$AA?$AA@ 0000000180064fd0     libucrt:lcidtoname_downlevel.obj
 0002:00004fd8       ??_C@_15DLGBCKMP@?$AAm?$AAr?$AA?$AA@ 0000000180064fd8     libucrt:lcidtoname_downlevel.obj
 0002:00004fe0       ??_C@_15EABBLBFF@?$AAs?$AAa?$AA?$AA@ 0000000180064fe0     libucrt:lcidtoname_downlevel.obj
 0002:00004fe8       ??_C@_15CBKOMCOI@?$AAm?$AAn?$AA?$AA@ 0000000180064fe8     libucrt:lcidtoname_downlevel.obj
 0002:00004ff0       ??_C@_15CKDMCJAF@?$AAg?$AAl?$AA?$AA@ 0000000180064ff0     libucrt:lcidtoname_downlevel.obj
 0002:00004ff8       ??_C@_17CNJFBPG@?$AAk?$AAo?$AAk?$AA?$AA@ 0000000180064ff8     libucrt:lcidtoname_downlevel.obj
 0002:00005000       ??_C@_17FFBJICPL@?$AAs?$AAy?$AAr?$AA?$AA@ 0000000180065000     libucrt:lcidtoname_downlevel.obj
 0002:00005008       ??_C@_17KPNDCPAF@?$AAd?$AAi?$AAv?$AA?$AA@ 0000000180065008     libucrt:lcidtoname_downlevel.obj
 0002:00005010       ??_C@_11LOCGONAA@?$AA?$AA@ 0000000180065010     libucrt:lcidtoname_downlevel.obj
 0002:00005018       ??_C@_1M@OKAHONE@?$AAa?$AAr?$AA?9?$AAS?$AAA?$AA?$AA@ 0000000180065018     libucrt:lcidtoname_downlevel.obj
 0002:00005028       ??_C@_1M@FFFIGIGK@?$AAb?$AAg?$AA?9?$AAB?$AAG?$AA?$AA@ 0000000180065028     libucrt:lcidtoname_downlevel.obj
 0002:00005038       ??_C@_1M@BJNKEDC@?$AAc?$AAa?$AA?9?$AAE?$AAS?$AA?$AA@ 0000000180065038     libucrt:lcidtoname_downlevel.obj
 0002:00005048       ??_C@_1M@IJJHFJHA@?$AAc?$AAs?$AA?9?$AAC?$AAZ?$AA?$AA@ 0000000180065048     libucrt:lcidtoname_downlevel.obj
 0002:00005058       ??_C@_1M@CLPEOBGI@?$AAd?$AAa?$AA?9?$AAD?$AAK?$AA?$AA@ 0000000180065058     libucrt:lcidtoname_downlevel.obj
 0002:00005068       ??_C@_1M@MCMADGCB@?$AAd?$AAe?$AA?9?$AAD?$AAE?$AA?$AA@ 0000000180065068     libucrt:lcidtoname_downlevel.obj
 0002:00005078       ??_C@_1M@OOCKEMAM@?$AAe?$AAl?$AA?9?$AAG?$AAR?$AA?$AA@ 0000000180065078     libucrt:lcidtoname_downlevel.obj
 0002:00005088       ??_C@_1M@DDNJFGID@?$AAf?$AAi?$AA?9?$AAF?$AAI?$AA?$AA@ 0000000180065088     libucrt:lcidtoname_downlevel.obj
 0002:00005098       ??_C@_1M@GLIPPMAC@?$AAf?$AAr?$AA?9?$AAF?$AAR?$AA?$AA@ 0000000180065098     libucrt:lcidtoname_downlevel.obj
 0002:000050a8       ??_C@_1M@GFMCHPE@?$AAh?$AAe?$AA?9?$AAI?$AAL?$AA?$AA@ 00000001800650a8     libucrt:lcidtoname_downlevel.obj
 0002:000050b8       ??_C@_1M@MHLPGNKM@?$AAh?$AAu?$AA?9?$AAH?$AAU?$AA?$AA@ 00000001800650b8     libucrt:lcidtoname_downlevel.obj
 0002:000050c8       ??_C@_1M@LPDDNNPN@?$AAi?$AAs?$AA?9?$AAI?$AAS?$AA?$AA@ 00000001800650c8     libucrt:lcidtoname_downlevel.obj
 0002:000050d8       ??_C@_1M@MADIPODN@?$AAi?$AAt?$AA?9?$AAI?$AAT?$AA?$AA@ 00000001800650d8     libucrt:lcidtoname_downlevel.obj
 0002:000050e8       ??_C@_1M@IHBJJGG@?$AAn?$AAl?$AA?9?$AAN?$AAL?$AA?$AA@ 00000001800650e8     libucrt:lcidtoname_downlevel.obj
 0002:000050f8       ??_C@_1M@EANAGDL@?$AAn?$AAb?$AA?9?$AAN?$AAO?$AA?$AA@ 00000001800650f8     libucrt:lcidtoname_downlevel.obj
 0002:00005108       ??_C@_1M@NEIEMEGP@?$AAp?$AAl?$AA?9?$AAP?$AAL?$AA?$AA@ 0000000180065108     libucrt:lcidtoname_downlevel.obj
 0002:00005118       ??_C@_1M@BOCFIGEP@?$AAp?$AAt?$AA?9?$AAB?$AAR?$AA?$AA@ 0000000180065118     libucrt:lcidtoname_downlevel.obj
 0002:00005128       ??_C@_1M@IMPFOPBG@?$AAr?$AAo?$AA?9?$AAR?$AAO?$AA?$AA@ 0000000180065128     libucrt:lcidtoname_downlevel.obj
 0002:00005138       ??_C@_1M@IDNNEJMM@?$AAr?$AAu?$AA?9?$AAR?$AAU?$AA?$AA@ 0000000180065138     libucrt:lcidtoname_downlevel.obj
 0002:00005148       ??_C@_1M@LILEEOGM@?$AAh?$AAr?$AA?9?$AAH?$AAR?$AA?$AA@ 0000000180065148     libucrt:lcidtoname_downlevel.obj
 0002:00005158       ??_C@_1M@FKIFEHPB@?$AAs?$AAk?$AA?9?$AAS?$AAK?$AA?$AA@ 0000000180065158     libucrt:lcidtoname_downlevel.obj
 0002:00005168       ??_C@_1M@LJMAMNPJ@?$AAs?$AAq?$AA?9?$AAA?$AAL?$AA?$AA@ 0000000180065168     libucrt:lcidtoname_downlevel.obj
 0002:00005178       ??_C@_1M@GIAKDKJK@?$AAs?$AAv?$AA?9?$AAS?$AAE?$AA?$AA@ 0000000180065178     libucrt:lcidtoname_downlevel.obj
 0002:00005188       ??_C@_1M@MKJKIKCL@?$AAt?$AAh?$AA?9?$AAT?$AAH?$AA?$AA@ 0000000180065188     libucrt:lcidtoname_downlevel.obj
 0002:00005198       ??_C@_1M@MFLCCMPB@?$AAt?$AAr?$AA?9?$AAT?$AAR?$AA?$AA@ 0000000180065198     libucrt:lcidtoname_downlevel.obj
 0002:000051a8       ??_C@_1M@OIJHDKJN@?$AAu?$AAr?$AA?9?$AAP?$AAK?$AA?$AA@ 00000001800651a8     libucrt:lcidtoname_downlevel.obj
 0002:000051b8       ??_C@_1M@LHIPCIEK@?$AAi?$AAd?$AA?9?$AAI?$AAD?$AA?$AA@ 00000001800651b8     libucrt:lcidtoname_downlevel.obj
 0002:000051c8       ??_C@_1M@MFMOBGI@?$AAu?$AAk?$AA?9?$AAU?$AAA?$AA?$AA@ 00000001800651c8     libucrt:lcidtoname_downlevel.obj
 0002:000051d8       ??_C@_1M@OBGLJIPL@?$AAb?$AAe?$AA?9?$AAB?$AAY?$AA?$AA@ 00000001800651d8     libucrt:lcidtoname_downlevel.obj
 0002:000051e8       ??_C@_1M@BCFAJEAD@?$AAs?$AAl?$AA?9?$AAS?$AAI?$AA?$AA@ 00000001800651e8     libucrt:lcidtoname_downlevel.obj
 0002:000051f8       ??_C@_1M@FKFFEDDN@?$AAe?$AAt?$AA?9?$AAE?$AAE?$AA?$AA@ 00000001800651f8     libucrt:lcidtoname_downlevel.obj
 0002:00005208       ??_C@_1M@KGKKAACI@?$AAl?$AAv?$AA?9?$AAL?$AAV?$AA?$AA@ 0000000180065208     libucrt:lcidtoname_downlevel.obj
 0002:00005218       ??_C@_1M@IFGBIJO@?$AAl?$AAt?$AA?9?$AAL?$AAT?$AA?$AA@ 0000000180065218     libucrt:lcidtoname_downlevel.obj
 0002:00005228       ??_C@_1M@FGEAHEDM@?$AAf?$AAa?$AA?9?$AAI?$AAR?$AA?$AA@ 0000000180065228     libucrt:lcidtoname_downlevel.obj
 0002:00005238       ??_C@_1M@KBMAIBFN@?$AAv?$AAi?$AA?9?$AAV?$AAN?$AA?$AA@ 0000000180065238     libucrt:lcidtoname_downlevel.obj
 0002:00005248       ??_C@_1M@GPCBKDJK@?$AAh?$AAy?$AA?9?$AAA?$AAM?$AA?$AA@ 0000000180065248     libucrt:lcidtoname_downlevel.obj
 0002:00005258       ??_C@_1BG@BECMDDJB@?$AAa?$AAz?$AA?9?$AAA?$AAZ?$AA?9?$AAL?$AAa?$AAt?$AAn?$AA?$AA@ 0000000180065258     libucrt:lcidtoname_downlevel.obj
 0002:00005270       ??_C@_1M@MAOFCAEA@?$AAe?$AAu?$AA?9?$AAE?$AAS?$AA?$AA@ 0000000180065270     libucrt:lcidtoname_downlevel.obj
 0002:00005280       ??_C@_1M@IGHABKPI@?$AAm?$AAk?$AA?9?$AAM?$AAK?$AA?$AA@ 0000000180065280     libucrt:lcidtoname_downlevel.obj
 0002:00005290       ??_C@_1M@IAIGNEJG@?$AAt?$AAn?$AA?9?$AAZ?$AAA?$AA?$AA@ 0000000180065290     libucrt:lcidtoname_downlevel.obj
 0002:000052a0       ??_C@_1M@IIJCOJFA@?$AAx?$AAh?$AA?9?$AAZ?$AAA?$AA?$AA@ 00000001800652a0     libucrt:lcidtoname_downlevel.obj
 0002:000052b0       ??_C@_1M@LGPJHNJH@?$AAz?$AAu?$AA?9?$AAZ?$AAA?$AA?$AA@ 00000001800652b0     libucrt:lcidtoname_downlevel.obj
 0002:000052c0       ??_C@_1M@HOKAOIO@?$AAa?$AAf?$AA?9?$AAZ?$AAA?$AA?$AA@ 00000001800652c0     libucrt:lcidtoname_downlevel.obj
 0002:000052d0       ??_C@_1M@DPCLHLIE@?$AAk?$AAa?$AA?9?$AAG?$AAE?$AA?$AA@ 00000001800652d0     libucrt:lcidtoname_downlevel.obj
 0002:000052e0       ??_C@_1M@BLKMHJBI@?$AAf?$AAo?$AA?9?$AAF?$AAO?$AA?$AA@ 00000001800652e0     libucrt:lcidtoname_downlevel.obj
 0002:000052f0       ??_C@_1M@LGGJAPPB@?$AAh?$AAi?$AA?9?$AAI?$AAN?$AA?$AA@ 00000001800652f0     libucrt:lcidtoname_downlevel.obj
 0002:00005300       ??_C@_1M@FIKPIHFE@?$AAm?$AAt?$AA?9?$AAM?$AAT?$AA?$AA@ 0000000180065300     libucrt:lcidtoname_downlevel.obj
 0002:00005310       ??_C@_1M@HEGGPBFA@?$AAs?$AAe?$AA?9?$AAN?$AAO?$AA?$AA@ 0000000180065310     libucrt:lcidtoname_downlevel.obj
 0002:00005320       ??_C@_1M@EIBJEEPA@?$AAm?$AAs?$AA?9?$AAM?$AAY?$AA?$AA@ 0000000180065320     libucrt:lcidtoname_downlevel.obj
 0002:00005330       ??_C@_1M@FHLBGMPP@?$AAk?$AAk?$AA?9?$AAK?$AAZ?$AA?$AA@ 0000000180065330     libucrt:lcidtoname_downlevel.obj
 0002:00005340       ??_C@_1M@NGJJLCGI@?$AAk?$AAy?$AA?9?$AAK?$AAG?$AA?$AA@ 0000000180065340     libucrt:lcidtoname_downlevel.obj
 0002:00005350       ??_C@_1M@GIENNBFC@?$AAs?$AAw?$AA?9?$AAK?$AAE?$AA?$AA@ 0000000180065350     libucrt:lcidtoname_downlevel.obj
 0002:00005360       ??_C@_1BG@NDGMJIMJ@?$AAu?$AAz?$AA?9?$AAU?$AAZ?$AA?9?$AAL?$AAa?$AAt?$AAn?$AA?$AA@ 0000000180065360     libucrt:lcidtoname_downlevel.obj
 0002:00005378       ??_C@_1M@IDCCIHBC@?$AAt?$AAt?$AA?9?$AAR?$AAU?$AA?$AA@ 0000000180065378     libucrt:lcidtoname_downlevel.obj
 0002:00005388       ??_C@_1M@LOICPMOJ@?$AAb?$AAn?$AA?9?$AAI?$AAN?$AA?$AA@ 0000000180065388     libucrt:lcidtoname_downlevel.obj
 0002:00005398       ??_C@_1M@KPKKNEAH@?$AAp?$AAa?$AA?9?$AAI?$AAN?$AA?$AA@ 0000000180065398     libucrt:lcidtoname_downlevel.obj
 0002:000053a8       ??_C@_1M@PJGPPBOG@?$AAg?$AAu?$AA?9?$AAI?$AAN?$AA?$AA@ 00000001800653a8     libucrt:lcidtoname_downlevel.obj
 0002:000053b8       ??_C@_1M@KMKMOPHI@?$AAt?$AAa?$AA?9?$AAI?$AAN?$AA?$AA@ 00000001800653b8     libucrt:lcidtoname_downlevel.obj
 0002:000053c8       ??_C@_1M@KFEHEPAC@?$AAt?$AAe?$AA?9?$AAI?$AAN?$AA?$AA@ 00000001800653c8     libucrt:lcidtoname_downlevel.obj
 0002:000053d8       ??_C@_1M@CDCLMGHI@?$AAk?$AAn?$AA?9?$AAI?$AAN?$AA?$AA@ 00000001800653d8     libucrt:lcidtoname_downlevel.obj
 0002:000053e8       ??_C@_1M@MIODLDKF@?$AAm?$AAl?$AA?9?$AAI?$AAN?$AA?$AA@ 00000001800653e8     libucrt:lcidtoname_downlevel.obj
 0002:000053f8       ??_C@_1M@PBIEACPO@?$AAm?$AAr?$AA?9?$AAI?$AAN?$AA?$AA@ 00000001800653f8     libucrt:lcidtoname_downlevel.obj
 0002:00005408       ??_C@_1M@NIDEAGPH@?$AAs?$AAa?$AA?9?$AAI?$AAN?$AA?$AA@ 0000000180065408     libucrt:lcidtoname_downlevel.obj
 0002:00005418       ??_C@_1M@FHIHCBIO@?$AAm?$AAn?$AA?9?$AAM?$AAN?$AA?$AA@ 0000000180065418     libucrt:lcidtoname_downlevel.obj
 0002:00005428       ??_C@_1M@JAIJPENP@?$AAc?$AAy?$AA?9?$AAG?$AAB?$AA?$AA@ 0000000180065428     libucrt:lcidtoname_downlevel.obj
 0002:00005438       ??_C@_1M@PHGFBEPN@?$AAg?$AAl?$AA?9?$AAE?$AAS?$AA?$AA@ 0000000180065438     libucrt:lcidtoname_downlevel.obj
 0002:00005448       ??_C@_1O@KPIPDNCP@?$AAk?$AAo?$AAk?$AA?9?$AAI?$AAN?$AA?$AA@ 0000000180065448     libucrt:lcidtoname_downlevel.obj
 0002:00005458       ??_C@_1O@KNHJLDJA@?$AAs?$AAy?$AAr?$AA?9?$AAS?$AAY?$AA?$AA@ 0000000180065458     libucrt:lcidtoname_downlevel.obj
 0002:00005468       ??_C@_1O@MKEKBLAH@?$AAd?$AAi?$AAv?$AA?9?$AAM?$AAV?$AA?$AA@ 0000000180065468     libucrt:lcidtoname_downlevel.obj
 0002:00005478       ??_C@_1O@OHDCKDDF@?$AAq?$AAu?$AAz?$AA?9?$AAB?$AAO?$AA?$AA@ 0000000180065478     libucrt:lcidtoname_downlevel.obj
 0002:00005488       ??_C@_1M@LEPJNLFD@?$AAn?$AAs?$AA?9?$AAZ?$AAA?$AA?$AA@ 0000000180065488     libucrt:lcidtoname_downlevel.obj
 0002:00005498       ??_C@_1M@OMLEIIJB@?$AAm?$AAi?$AA?9?$AAN?$AAZ?$AA?$AA@ 0000000180065498     libucrt:lcidtoname_downlevel.obj
 0002:000054a8       ??_C@_1M@PMPEAILG@?$AAa?$AAr?$AA?9?$AAI?$AAQ?$AA?$AA@ 00000001800654a8     libucrt:lcidtoname_downlevel.obj
 0002:000054b8       ??_C@_1M@CNKPNOEE@?$AAd?$AAe?$AA?9?$AAC?$AAH?$AA?$AA@ 00000001800654b8     libucrt:lcidtoname_downlevel.obj
 0002:000054c8       ??_C@_1M@LKMGMLKO@?$AAe?$AAn?$AA?9?$AAG?$AAB?$AA?$AA@ 00000001800654c8     libucrt:lcidtoname_downlevel.obj
 0002:000054d8       ??_C@_1M@PGKJFFGL@?$AAe?$AAs?$AA?9?$AAM?$AAX?$AA?$AA@ 00000001800654d8     libucrt:lcidtoname_downlevel.obj
 0002:000054e8       ??_C@_1M@DNNANBDC@?$AAf?$AAr?$AA?9?$AAB?$AAE?$AA?$AA@ 00000001800654e8     libucrt:lcidtoname_downlevel.obj
 0002:000054f8       ??_C@_1M@HLGMDFHM@?$AAi?$AAt?$AA?9?$AAC?$AAH?$AA?$AA@ 00000001800654f8     libucrt:lcidtoname_downlevel.obj
 0002:00005508       ??_C@_1M@CLLBGJH@?$AAn?$AAl?$AA?9?$AAB?$AAE?$AA?$AA@ 0000000180065508     libucrt:lcidtoname_downlevel.obj
 0002:00005518       ??_C@_1M@BODBOGLF@?$AAn?$AAn?$AA?9?$AAN?$AAO?$AA?$AA@ 0000000180065518     libucrt:lcidtoname_downlevel.obj
 0002:00005528       ??_C@_1M@HFFAHKAD@?$AAp?$AAt?$AA?9?$AAP?$AAT?$AA?$AA@ 0000000180065528     libucrt:lcidtoname_downlevel.obj
 0002:00005538       ??_C@_1BG@LNOAKHIE@?$AAs?$AAr?$AA?9?$AAS?$AAP?$AA?9?$AAL?$AAa?$AAt?$AAn?$AA?$AA@ 0000000180065538     libucrt:lcidtoname_downlevel.obj
 0002:00005550       ??_C@_1M@HBMHBGAK@?$AAs?$AAv?$AA?9?$AAF?$AAI?$AA?$AA@ 0000000180065550     libucrt:lcidtoname_downlevel.obj
 0002:00005560       ??_C@_1BG@DGCJGJBE@?$AAa?$AAz?$AA?9?$AAA?$AAZ?$AA?9?$AAC?$AAy?$AAr?$AAl?$AA?$AA@ 0000000180065560     libucrt:lcidtoname_downlevel.obj
 0002:00005578       ??_C@_1M@KEJDAAHB@?$AAs?$AAe?$AA?9?$AAS?$AAE?$AA?$AA@ 0000000180065578     libucrt:lcidtoname_downlevel.obj
 0002:00005588       ??_C@_1M@HEIBJJAD@?$AAm?$AAs?$AA?9?$AAB?$AAN?$AA?$AA@ 0000000180065588     libucrt:lcidtoname_downlevel.obj
 0002:00005598       ??_C@_1BG@PBGJMCEM@?$AAu?$AAz?$AA?9?$AAU?$AAZ?$AA?9?$AAC?$AAy?$AAr?$AAl?$AA?$AA@ 0000000180065598     libucrt:lcidtoname_downlevel.obj
 0002:000055b0       ??_C@_1O@LAOBCMDF@?$AAq?$AAu?$AAz?$AA?9?$AAE?$AAC?$AA?$AA@ 00000001800655b0     libucrt:lcidtoname_downlevel.obj
 0002:000055c0       ??_C@_1M@POEEMAIO@?$AAa?$AAr?$AA?9?$AAE?$AAG?$AA?$AA@ 00000001800655c0     libucrt:lcidtoname_downlevel.obj
 0002:000055d0       ??_C@_1M@EFAKDEDL@?$AAz?$AAh?$AA?9?$AAH?$AAK?$AA?$AA@ 00000001800655d0     libucrt:lcidtoname_downlevel.obj
 0002:000055e0       ??_C@_1M@HKKIJHGI@?$AAd?$AAe?$AA?9?$AAA?$AAT?$AA?$AA@ 00000001800655e0     libucrt:lcidtoname_downlevel.obj
 0002:000055f0       ??_C@_1M@KBFBEHJF@?$AAe?$AAn?$AA?9?$AAA?$AAU?$AA?$AA@ 00000001800655f0     libucrt:lcidtoname_downlevel.obj
 0002:00005600       ??_C@_1M@MNPLFAAH@?$AAe?$AAs?$AA?9?$AAE?$AAS?$AA?$AA@ 0000000180065600     libucrt:lcidtoname_downlevel.obj
 0002:00005610       ??_C@_1M@HJOOJFMA@?$AAf?$AAr?$AA?9?$AAC?$AAA?$AA?$AA@ 0000000180065610     libucrt:lcidtoname_downlevel.obj
 0002:00005620       ??_C@_1BG@JPOFPNAB@?$AAs?$AAr?$AA?9?$AAS?$AAP?$AA?9?$AAC?$AAy?$AAr?$AAl?$AA?$AA@ 0000000180065620     libucrt:lcidtoname_downlevel.obj
 0002:00005638       ??_C@_1M@LNFOCMOB@?$AAs?$AAe?$AA?9?$AAF?$AAI?$AA?$AA@ 0000000180065638     libucrt:lcidtoname_downlevel.obj
 0002:00005648       ??_C@_1O@MGJBOAMB@?$AAq?$AAu?$AAz?$AA?9?$AAP?$AAE?$AA?$AA@ 0000000180065648     libucrt:lcidtoname_downlevel.obj
 0002:00005658       ??_C@_1M@GJINLBOK@?$AAa?$AAr?$AA?9?$AAL?$AAY?$AA?$AA@ 0000000180065658     libucrt:lcidtoname_downlevel.obj
 0002:00005668       ??_C@_1M@GGMNHJNL@?$AAz?$AAh?$AA?9?$AAS?$AAG?$AA?$AA@ 0000000180065668     libucrt:lcidtoname_downlevel.obj
 0002:00005678       ??_C@_1M@HOIKODND@?$AAd?$AAe?$AA?9?$AAL?$AAU?$AA?$AA@ 0000000180065678     libucrt:lcidtoname_downlevel.obj
 0002:00005688       ??_C@_1M@DDOCCGFG@?$AAe?$AAn?$AA?9?$AAC?$AAA?$AA?$AA@ 0000000180065688     libucrt:lcidtoname_downlevel.obj
 0002:00005698       ??_C@_1M@BNOEMJLF@?$AAe?$AAs?$AA?9?$AAG?$AAT?$AA?$AA@ 0000000180065698     libucrt:lcidtoname_downlevel.obj
 0002:000056a8       ??_C@_1M@EOGNKEK@?$AAf?$AAr?$AA?9?$AAC?$AAH?$AA?$AA@ 00000001800656a8     libucrt:lcidtoname_downlevel.obj
 0002:000056b8       ??_C@_1M@FLIDJFHL@?$AAh?$AAr?$AA?9?$AAB?$AAA?$AA?$AA@ 00000001800656b8     libucrt:lcidtoname_downlevel.obj
 0002:000056c8       ??_C@_1O@FMCELNAJ@?$AAs?$AAm?$AAj?$AA?9?$AAN?$AAO?$AA?$AA@ 00000001800656c8     libucrt:lcidtoname_downlevel.obj
 0002:000056d8       ??_C@_1M@JHGLJMGJ@?$AAa?$AAr?$AA?9?$AAD?$AAZ?$AA?$AA@ 00000001800656d8     libucrt:lcidtoname_downlevel.obj
 0002:000056e8       ??_C@_1M@JKKFDCNP@?$AAz?$AAh?$AA?9?$AAM?$AAO?$AA?$AA@ 00000001800656e8     libucrt:lcidtoname_downlevel.obj
 0002:000056f8       ??_C@_1M@GEEFALPE@?$AAd?$AAe?$AA?9?$AAL?$AAI?$AA?$AA@ 00000001800656f8     libucrt:lcidtoname_downlevel.obj
 0002:00005708       ??_C@_1M@IGEOFBG@?$AAe?$AAn?$AA?9?$AAN?$AAZ?$AA?$AA@ 0000000180065708     libucrt:lcidtoname_downlevel.obj
 0002:00005718       ??_C@_1M@KDBONEHP@?$AAe?$AAs?$AA?9?$AAC?$AAR?$AA?$AA@ 0000000180065718     libucrt:lcidtoname_downlevel.obj
 0002:00005728       ??_C@_1M@FHMDOHNN@?$AAf?$AAr?$AA?9?$AAL?$AAU?$AA?$AA@ 0000000180065728     libucrt:lcidtoname_downlevel.obj
 0002:00005738       ??_C@_1BG@NFKKMAFG@?$AAb?$AAs?$AA?9?$AAB?$AAA?$AA?9?$AAL?$AAa?$AAt?$AAn?$AA?$AA@ 0000000180065738     libucrt:lcidtoname_downlevel.obj
 0002:00005750       ??_C@_1O@IMNBEMCI@?$AAs?$AAm?$AAj?$AA?9?$AAS?$AAE?$AA?$AA@ 0000000180065750     libucrt:lcidtoname_downlevel.obj
 0002:00005760       ??_C@_1M@DHHMBNDP@?$AAa?$AAr?$AA?9?$AAM?$AAA?$AA?$AA@ 0000000180065760     libucrt:lcidtoname_downlevel.obj
 0002:00005770       ??_C@_1M@BNBLJCGH@?$AAe?$AAn?$AA?9?$AAI?$AAE?$AA?$AA@ 0000000180065770     libucrt:lcidtoname_downlevel.obj
 0002:00005780       ??_C@_1M@GEPAFMDL@?$AAe?$AAs?$AA?9?$AAP?$AAA?$AA?$AA@ 0000000180065780     libucrt:lcidtoname_downlevel.obj
 0002:00005790       ??_C@_1M@OJONDMDL@?$AAf?$AAr?$AA?9?$AAM?$AAC?$AA?$AA@ 0000000180065790     libucrt:lcidtoname_downlevel.obj
 0002:000057a0       ??_C@_1BG@OBCNFJB@?$AAs?$AAr?$AA?9?$AAB?$AAA?$AA?9?$AAL?$AAa?$AAt?$AAn?$AA?$AA@ 00000001800657a0     libucrt:lcidtoname_downlevel.obj
 0002:000057b8       ??_C@_1O@KEMEEGPO@?$AAs?$AAm?$AAa?$AA?9?$AAN?$AAO?$AA?$AA@ 00000001800657b8     libucrt:lcidtoname_downlevel.obj
 0002:000057c8       ??_C@_1M@ELMGFODK@?$AAa?$AAr?$AA?9?$AAT?$AAN?$AA?$AA@ 00000001800657c8     libucrt:lcidtoname_downlevel.obj
 0002:000057d8       ??_C@_1M@BHDLHFAF@?$AAe?$AAn?$AA?9?$AAZ?$AAA?$AA?$AA@ 00000001800657d8     libucrt:lcidtoname_downlevel.obj
 0002:000057e8       ??_C@_1M@BMGIGLIF@?$AAe?$AAs?$AA?9?$AAD?$AAO?$AA?$AA@ 00000001800657e8     libucrt:lcidtoname_downlevel.obj
 0002:000057f8       ??_C@_1BG@CMBHIPBE@?$AAs?$AAr?$AA?9?$AAB?$AAA?$AA?9?$AAC?$AAy?$AAr?$AAl?$AA?$AA@ 00000001800657f8     libucrt:lcidtoname_downlevel.obj
 0002:00005810       ??_C@_1O@HEDBLHNP@?$AAs?$AAm?$AAa?$AA?9?$AAS?$AAE?$AA?$AA@ 0000000180065810     libucrt:lcidtoname_downlevel.obj
 0002:00005820       ??_C@_1M@DAGCADIM@?$AAa?$AAr?$AA?9?$AAO?$AAM?$AA?$AA@ 0000000180065820     libucrt:lcidtoname_downlevel.obj
 0002:00005830       ??_C@_1M@FODLMICG@?$AAe?$AAn?$AA?9?$AAJ?$AAM?$AA?$AA@ 0000000180065830     libucrt:lcidtoname_downlevel.obj
 0002:00005840       ??_C@_1M@DNMLCIHB@?$AAe?$AAs?$AA?9?$AAV?$AAE?$AA?$AA@ 0000000180065840     libucrt:lcidtoname_downlevel.obj
 0002:00005850       ??_C@_1O@EOKHMKJK@?$AAs?$AAm?$AAs?$AA?9?$AAF?$AAI?$AA?$AA@ 0000000180065850     libucrt:lcidtoname_downlevel.obj
 0002:00005860       ??_C@_1M@CAFJMKOF@?$AAa?$AAr?$AA?9?$AAY?$AAE?$AA?$AA@ 0000000180065860     libucrt:lcidtoname_downlevel.obj
 0002:00005870       ??_C@_1M@CBFHIJLI@?$AAe?$AAn?$AA?9?$AAC?$AAB?$AA?$AA@ 0000000180065870     libucrt:lcidtoname_downlevel.obj
 0002:00005880       ??_C@_1M@BGNFLDN@?$AAe?$AAs?$AA?9?$AAC?$AAO?$AA?$AA@ 0000000180065880     libucrt:lcidtoname_downlevel.obj
 0002:00005890       ??_C@_1O@JMPHMAMC@?$AAs?$AAm?$AAn?$AA?9?$AAF?$AAI?$AA?$AA@ 0000000180065890     libucrt:lcidtoname_downlevel.obj
 0002:000058a0       ??_C@_1M@JLANABKE@?$AAa?$AAr?$AA?9?$AAS?$AAY?$AA?$AA@ 00000001800658a0     libucrt:lcidtoname_downlevel.obj
 0002:000058b0       ??_C@_1M@HPKGCFGN@?$AAe?$AAn?$AA?9?$AAB?$AAZ?$AA?$AA@ 00000001800658b0     libucrt:lcidtoname_downlevel.obj
 0002:000058c0       ??_C@_1M@OLJCMLGM@?$AAe?$AAs?$AA?9?$AAP?$AAE?$AA?$AA@ 00000001800658c0     libucrt:lcidtoname_downlevel.obj
 0002:000058d0       ??_C@_1M@MKKGFKLE@?$AAa?$AAr?$AA?9?$AAJ?$AAO?$AA?$AA@ 00000001800658d0     libucrt:lcidtoname_downlevel.obj
 0002:000058e0       ??_C@_1M@EKPGLDNI@?$AAe?$AAn?$AA?9?$AAT?$AAT?$AA?$AA@ 00000001800658e0     libucrt:lcidtoname_downlevel.obj
 0002:000058f0       ??_C@_1M@OONGHFHE@?$AAe?$AAs?$AA?9?$AAA?$AAR?$AA?$AA@ 00000001800658f0     libucrt:lcidtoname_downlevel.obj
 0002:00005900       ??_C@_1M@OOJFGBHE@?$AAa?$AAr?$AA?9?$AAL?$AAB?$AA?$AA@ 0000000180065900     libucrt:lcidtoname_downlevel.obj
 0002:00005910       ??_C@_1M@GCEJHNEG@?$AAe?$AAn?$AA?9?$AAZ?$AAW?$AA?$AA@ 0000000180065910     libucrt:lcidtoname_downlevel.obj
 0002:00005920       ??_C@_1M@JNOCAHJI@?$AAe?$AAs?$AA?9?$AAE?$AAC?$AA?$AA@ 0000000180065920     libucrt:lcidtoname_downlevel.obj
 0002:00005930       ??_C@_1M@JEFHPGGB@?$AAa?$AAr?$AA?9?$AAK?$AAW?$AA?$AA@ 0000000180065930     libucrt:lcidtoname_downlevel.obj
 0002:00005940       ??_C@_1M@MLKIBJOJ@?$AAe?$AAn?$AA?9?$AAP?$AAH?$AA?$AA@ 0000000180065940     libucrt:lcidtoname_downlevel.obj
 0002:00005950       ??_C@_1M@BDNIPEND@?$AAe?$AAs?$AA?9?$AAC?$AAL?$AA?$AA@ 0000000180065950     libucrt:lcidtoname_downlevel.obj
 0002:00005960       ??_C@_1M@MPNMEKBD@?$AAa?$AAr?$AA?9?$AAA?$AAE?$AA?$AA@ 0000000180065960     libucrt:lcidtoname_downlevel.obj
 0002:00005970       ??_C@_1M@KBJALCPI@?$AAe?$AAs?$AA?9?$AAU?$AAY?$AA?$AA@ 0000000180065970     libucrt:lcidtoname_downlevel.obj
 0002:00005980       ??_C@_1M@LLCCOAGA@?$AAa?$AAr?$AA?9?$AAB?$AAH?$AA?$AA@ 0000000180065980     libucrt:lcidtoname_downlevel.obj
 0002:00005990       ??_C@_1M@PBFNCDEL@?$AAe?$AAs?$AA?9?$AAP?$AAY?$AA?$AA@ 0000000180065990     libucrt:lcidtoname_downlevel.obj
 0002:000059a0       ??_C@_1M@EDGINPNP@?$AAa?$AAr?$AA?9?$AAQ?$AAA?$AA?$AA@ 00000001800659a0     libucrt:lcidtoname_downlevel.obj
 0002:000059b0       ??_C@_1M@MKDBIIJI@?$AAe?$AAs?$AA?9?$AAB?$AAO?$AA?$AA@ 00000001800659b0     libucrt:lcidtoname_downlevel.obj
 0002:000059c0       ??_C@_1M@CPKKEBLD@?$AAe?$AAs?$AA?9?$AAS?$AAV?$AA?$AA@ 00000001800659c0     libucrt:lcidtoname_downlevel.obj
 0002:000059d0       ??_C@_1M@NDBGMMJL@?$AAe?$AAs?$AA?9?$AAH?$AAN?$AA?$AA@ 00000001800659d0     libucrt:lcidtoname_downlevel.obj
 0002:000059e0       ??_C@_1M@JIJIBHDP@?$AAe?$AAs?$AA?9?$AAN?$AAI?$AA?$AA@ 00000001800659e0     libucrt:lcidtoname_downlevel.obj
 0002:000059f0       ??_C@_1M@CGFMKEEK@?$AAe?$AAs?$AA?9?$AAP?$AAR?$AA?$AA@ 00000001800659f0     libucrt:lcidtoname_downlevel.obj
 0002:00005a00       ??_C@_1O@ICJHKIIK@?$AAz?$AAh?$AA?9?$AAC?$AAH?$AAT?$AA?$AA@ 0000000180065a00     libucrt:lcidtoname_downlevel.obj
 0002:00005a10       ??_C@_15CLNEJCE@?$AAs?$AAr?$AA?$AA@ 0000000180065a10     libucrt:lcidtoname_downlevel.obj
 0002:00006860       ??_C@_1M@KAHEKEIG@?$AAa?$AAf?$AA?9?$AAz?$AAa?$AA?$AA@ 0000000180066860     libucrt:lcidtoname_downlevel.obj
 0002:00006870       ??_C@_1M@GIECOABL@?$AAa?$AAr?$AA?9?$AAa?$AAe?$AA?$AA@ 0000000180066870     libucrt:lcidtoname_downlevel.obj
 0002:00006880       ??_C@_1M@BMLMEKGI@?$AAa?$AAr?$AA?9?$AAb?$AAh?$AA?$AA@ 0000000180066880     libucrt:lcidtoname_downlevel.obj
 0002:00006890       ??_C@_1M@DAPFDGGB@?$AAa?$AAr?$AA?9?$AAd?$AAz?$AA?$AA@ 0000000180066890     libucrt:lcidtoname_downlevel.obj
 0002:000068a0       ??_C@_1M@FJNKGKIG@?$AAa?$AAr?$AA?9?$AAe?$AAg?$AA?$AA@ 00000001800668a0     libucrt:lcidtoname_downlevel.obj
 0002:000068b0       ??_C@_1M@FLGKKCLO@?$AAa?$AAr?$AA?9?$AAi?$AAq?$AA?$AA@ 00000001800668b0     libucrt:lcidtoname_downlevel.obj
 0002:000068c0       ??_C@_1M@GNDIPALM@?$AAa?$AAr?$AA?9?$AAj?$AAo?$AA?$AA@ 00000001800668c0     libucrt:lcidtoname_downlevel.obj
 0002:000068d0       ??_C@_1M@DDMJFMGJ@?$AAa?$AAr?$AA?9?$AAk?$AAw?$AA?$AA@ 00000001800668d0     libucrt:lcidtoname_downlevel.obj
 0002:000068e0       ??_C@_1M@EJALMLHM@?$AAa?$AAr?$AA?9?$AAl?$AAb?$AA?$AA@ 00000001800668e0     libucrt:lcidtoname_downlevel.obj
 0002:000068f0       ??_C@_1M@MOBDBLOC@?$AAa?$AAr?$AA?9?$AAl?$AAy?$AA?$AA@ 00000001800668f0     libucrt:lcidtoname_downlevel.obj
 0002:00006900       ??_C@_1M@JAOCLHDH@?$AAa?$AAr?$AA?9?$AAm?$AAa?$AA?$AA@ 0000000180066900     libucrt:lcidtoname_downlevel.obj
 0002:00006910       ??_C@_1M@JHPMKJIE@?$AAa?$AAr?$AA?9?$AAo?$AAm?$AA?$AA@ 0000000180066910     libucrt:lcidtoname_downlevel.obj
 0002:00006920       ??_C@_1M@OEPGHFNH@?$AAa?$AAr?$AA?9?$AAq?$AAa?$AA?$AA@ 0000000180066920     libucrt:lcidtoname_downlevel.obj
 0002:00006930       ??_C@_1M@KJDONENM@?$AAa?$AAr?$AA?9?$AAs?$AAa?$AA?$AA@ 0000000180066930     libucrt:lcidtoname_downlevel.obj
 0002:00006940       ??_C@_1M@DMJDKLKM@?$AAa?$AAr?$AA?9?$AAs?$AAy?$AA?$AA@ 0000000180066940     libucrt:lcidtoname_downlevel.obj
 0002:00006950       ??_C@_1M@OMFIPEDC@?$AAa?$AAr?$AA?9?$AAt?$AAn?$AA?$AA@ 0000000180066950     libucrt:lcidtoname_downlevel.obj
 0002:00006960       ??_C@_1M@IHMHGAON@?$AAa?$AAr?$AA?9?$AAy?$AAe?$AA?$AA@ 0000000180066960     libucrt:lcidtoname_downlevel.obj
 0002:00006970       ??_C@_1BG@KDCPGJGB@?$AAa?$AAz?$AA?9?$AAa?$AAz?$AA?9?$AAc?$AAy?$AAr?$AAl?$AA?$AA@ 0000000180066970     libucrt:lcidtoname_downlevel.obj
 0002:00006988       ??_C@_1BG@IBCKDDOE@?$AAa?$AAz?$AA?9?$AAa?$AAz?$AA?9?$AAl?$AAa?$AAt?$AAn?$AA?$AA@ 0000000180066988     libucrt:lcidtoname_downlevel.obj
 0002:000069a0       ??_C@_1M@EGPFDCPD@?$AAb?$AAe?$AA?9?$AAb?$AAy?$AA?$AA@ 00000001800669a0     libucrt:lcidtoname_downlevel.obj
 0002:000069b0       ??_C@_1M@PCMGMCGC@?$AAb?$AAg?$AA?9?$AAb?$AAg?$AA?$AA@ 00000001800669b0     libucrt:lcidtoname_downlevel.obj
 0002:000069c0       ??_C@_1M@BJBMFGOB@?$AAb?$AAn?$AA?9?$AAi?$AAn?$AA?$AA@ 00000001800669c0     libucrt:lcidtoname_downlevel.obj
 0002:000069d0       ??_C@_1BG@EAKMMACD@?$AAb?$AAs?$AA?9?$AAb?$AAa?$AA?9?$AAl?$AAa?$AAt?$AAn?$AA?$AA@ 00000001800669d0     libucrt:lcidtoname_downlevel.obj
 0002:000069e8       ??_C@_1M@KGADAODK@?$AAc?$AAa?$AA?9?$AAe?$AAs?$AA?$AA@ 00000001800669e8     libucrt:lcidtoname_downlevel.obj
 0002:000069f8       ??_C@_1M@COAJPDHI@?$AAc?$AAs?$AA?9?$AAc?$AAz?$AA?$AA@ 00000001800669f8     libucrt:lcidtoname_downlevel.obj
 0002:00006a08       ??_C@_1M@DHBHFONH@?$AAc?$AAy?$AA?9?$AAg?$AAb?$AA?$AA@ 0000000180066a08     libucrt:lcidtoname_downlevel.obj
 0002:00006a18       ??_C@_1M@IMGKELGA@?$AAd?$AAa?$AA?9?$AAd?$AAk?$AA?$AA@ 0000000180066a18     libucrt:lcidtoname_downlevel.obj
 0002:00006a28       ??_C@_1M@NNDGDNGA@?$AAd?$AAe?$AA?9?$AAa?$AAt?$AA?$AA@ 0000000180066a28     libucrt:lcidtoname_downlevel.obj
 0002:00006a38       ??_C@_1M@IKDBHEEM@?$AAd?$AAe?$AA?9?$AAc?$AAh?$AA?$AA@ 0000000180066a38     libucrt:lcidtoname_downlevel.obj
 0002:00006a48       ??_C@_1M@GFFOJMCJ@?$AAd?$AAe?$AA?9?$AAd?$AAe?$AA?$AA@ 0000000180066a48     libucrt:lcidtoname_downlevel.obj
 0002:00006a58       ??_C@_1M@MDNLKBPM@?$AAd?$AAe?$AA?9?$AAl?$AAi?$AA?$AA@ 0000000180066a58     libucrt:lcidtoname_downlevel.obj
 0002:00006a68       ??_C@_1M@NJBEEJNL@?$AAd?$AAe?$AA?9?$AAl?$AAu?$AA?$AA@ 0000000180066a68     libucrt:lcidtoname_downlevel.obj
 0002:00006a78       ??_C@_1O@GNNELBAP@?$AAd?$AAi?$AAv?$AA?9?$AAm?$AAv?$AA?$AA@ 0000000180066a78     libucrt:lcidtoname_downlevel.obj
 0002:00006a88       ??_C@_1M@EJLEOGAE@?$AAe?$AAl?$AA?9?$AAg?$AAr?$AA?$AA@ 0000000180066a88     libucrt:lcidtoname_downlevel.obj
 0002:00006a98       ??_C@_1M@GMPONJN@?$AAe?$AAn?$AA?9?$AAa?$AAu?$AA?$AA@ 0000000180066a98     libucrt:lcidtoname_downlevel.obj
 0002:00006aa8       ??_C@_1M@NIDIIPGF@?$AAe?$AAn?$AA?9?$AAb?$AAz?$AA?$AA@ 0000000180066aa8     libucrt:lcidtoname_downlevel.obj
 0002:00006ab8       ??_C@_1M@JEHMIMFO@?$AAe?$AAn?$AA?9?$AAc?$AAa?$AA?$AA@ 0000000180066ab8     libucrt:lcidtoname_downlevel.obj
 0002:00006ac8       ??_C@_1M@IGMJCDLA@?$AAe?$AAn?$AA?9?$AAc?$AAb?$AA?$AA@ 0000000180066ac8     libucrt:lcidtoname_downlevel.obj
 0002:00006ad8       ??_C@_1M@BNFIGBKG@?$AAe?$AAn?$AA?9?$AAg?$AAb?$AA?$AA@ 0000000180066ad8     libucrt:lcidtoname_downlevel.obj
 0002:00006ae8       ??_C@_1M@LKIFDIGP@?$AAe?$AAn?$AA?9?$AAi?$AAe?$AA?$AA@ 0000000180066ae8     libucrt:lcidtoname_downlevel.obj
 0002:00006af8       ??_C@_1M@PJKFGCCO@?$AAe?$AAn?$AA?9?$AAj?$AAm?$AA?$AA@ 0000000180066af8     libucrt:lcidtoname_downlevel.obj
 0002:00006b08       ??_C@_1M@KPPKEPBO@?$AAe?$AAn?$AA?9?$AAn?$AAz?$AA?$AA@ 0000000180066b08     libucrt:lcidtoname_downlevel.obj
 0002:00006b18       ??_C@_1M@GMDGLDOB@?$AAe?$AAn?$AA?9?$AAp?$AAh?$AA?$AA@ 0000000180066b18     libucrt:lcidtoname_downlevel.obj
 0002:00006b28       ??_C@_1M@ONGIBJNA@?$AAe?$AAn?$AA?9?$AAt?$AAt?$AA?$AA@ 0000000180066b28     libucrt:lcidtoname_downlevel.obj
 0002:00006b38       ??_C@_1M@LLODPCMM@?$AAe?$AAn?$AA?9?$AAu?$AAs?$AA?$AA@ 0000000180066b38     libucrt:lcidtoname_downlevel.obj
 0002:00006b48       ??_C@_1M@LAKFNPAN@?$AAe?$AAn?$AA?9?$AAz?$AAa?$AA?$AA@ 0000000180066b48     libucrt:lcidtoname_downlevel.obj
 0002:00006b58       ??_C@_1M@MFNHNHEO@?$AAe?$AAn?$AA?9?$AAz?$AAw?$AA?$AA@ 0000000180066b58     libucrt:lcidtoname_downlevel.obj
 0002:00006b68       ??_C@_1M@EJEINPHM@?$AAe?$AAs?$AA?9?$AAa?$AAr?$AA?$AA@ 0000000180066b68     libucrt:lcidtoname_downlevel.obj
 0002:00006b78       ??_C@_1M@GNKPCCJA@?$AAe?$AAs?$AA?9?$AAb?$AAo?$AA?$AA@ 0000000180066b78     libucrt:lcidtoname_downlevel.obj
 0002:00006b88       ??_C@_1M@LEEGFONL@?$AAe?$AAs?$AA?9?$AAc?$AAl?$AA?$AA@ 0000000180066b88     libucrt:lcidtoname_downlevel.obj
 0002:00006b98       ??_C@_1M@KGPDPBDF@?$AAe?$AAs?$AA?9?$AAc?$AAo?$AA?$AA@ 0000000180066b98     libucrt:lcidtoname_downlevel.obj
 0002:00006ba8       ??_C@_1M@EIAHOHH@?$AAe?$AAs?$AA?9?$AAc?$AAr?$AA?$AA@ 0000000180066ba8     libucrt:lcidtoname_downlevel.obj
 0002:00006bb8       ??_C@_1M@LLPGMBIN@?$AAe?$AAs?$AA?9?$AAd?$AAo?$AA?$AA@ 0000000180066bb8     libucrt:lcidtoname_downlevel.obj
 0002:00006bc8       ??_C@_1M@DKHMKNJA@?$AAe?$AAs?$AA?9?$AAe?$AAc?$AA?$AA@ 0000000180066bc8     libucrt:lcidtoname_downlevel.obj
 0002:00006bd8       ??_C@_1M@GKGFPKAP@?$AAe?$AAs?$AA?9?$AAe?$AAs?$AA?$AA@ 0000000180066bd8     libucrt:lcidtoname_downlevel.obj
 0002:00006be8       ??_C@_1M@LKHKGDLN@?$AAe?$AAs?$AA?9?$AAg?$AAt?$AA?$AA@ 0000000180066be8     libucrt:lcidtoname_downlevel.obj
 0002:00006bf8       ??_C@_1M@HEIIGGJD@?$AAe?$AAs?$AA?9?$AAh?$AAn?$AA?$AA@ 0000000180066bf8     libucrt:lcidtoname_downlevel.obj
 0002:00006c08       ??_C@_1M@FBDHPPGD@?$AAe?$AAs?$AA?9?$AAm?$AAx?$AA?$AA@ 0000000180066c08     libucrt:lcidtoname_downlevel.obj
 0002:00006c18       ??_C@_1M@DPAGLNDH@?$AAe?$AAs?$AA?9?$AAn?$AAi?$AA?$AA@ 0000000180066c18     libucrt:lcidtoname_downlevel.obj
 0002:00006c28       ??_C@_1M@MDGOPGDD@?$AAe?$AAs?$AA?9?$AAp?$AAa?$AA?$AA@ 0000000180066c28     libucrt:lcidtoname_downlevel.obj
 0002:00006c38       ??_C@_1M@EMAMGBGE@?$AAe?$AAs?$AA?9?$AAp?$AAe?$AA?$AA@ 0000000180066c38     libucrt:lcidtoname_downlevel.obj
 0002:00006c48       ??_C@_1M@IBMCAOEC@?$AAe?$AAs?$AA?9?$AAp?$AAr?$AA?$AA@ 0000000180066c48     libucrt:lcidtoname_downlevel.obj
 0002:00006c58       ??_C@_1M@FGMDIJED@?$AAe?$AAs?$AA?9?$AAp?$AAy?$AA?$AA@ 0000000180066c58     libucrt:lcidtoname_downlevel.obj
 0002:00006c68       ??_C@_1M@IIDEOLLL@?$AAe?$AAs?$AA?9?$AAs?$AAv?$AA?$AA@ 0000000180066c68     libucrt:lcidtoname_downlevel.obj
 0002:00006c78       ??_C@_1M@GAOBIPA@?$AAe?$AAs?$AA?9?$AAu?$AAy?$AA?$AA@ 0000000180066c78     libucrt:lcidtoname_downlevel.obj
 0002:00006c88       ??_C@_1M@JKFFICHJ@?$AAe?$AAs?$AA?9?$AAv?$AAe?$AA?$AA@ 0000000180066c88     libucrt:lcidtoname_downlevel.obj
 0002:00006c98       ??_C@_1M@PNMLOJDF@?$AAe?$AAt?$AA?9?$AAe?$AAe?$AA?$AA@ 0000000180066c98     libucrt:lcidtoname_downlevel.obj
 0002:00006ca8       ??_C@_1M@GHHLIKEI@?$AAe?$AAu?$AA?9?$AAe?$AAs?$AA?$AA@ 0000000180066ca8     libucrt:lcidtoname_downlevel.obj
 0002:00006cb8       ??_C@_1M@PBNONODE@?$AAf?$AAa?$AA?9?$AAi?$AAr?$AA?$AA@ 0000000180066cb8     libucrt:lcidtoname_downlevel.obj
 0002:00006cc8       ??_C@_1M@JEEHPMIL@?$AAf?$AAi?$AA?9?$AAf?$AAi?$AA?$AA@ 0000000180066cc8     libucrt:lcidtoname_downlevel.obj
 0002:00006cd8       ??_C@_1M@LMDCNDBA@?$AAf?$AAo?$AA?9?$AAf?$AAo?$AA?$AA@ 0000000180066cd8     libucrt:lcidtoname_downlevel.obj
 0002:00006ce8       ??_C@_1M@JKEOHLDK@?$AAf?$AAr?$AA?9?$AAb?$AAe?$AA?$AA@ 0000000180066ce8     libucrt:lcidtoname_downlevel.obj
 0002:00006cf8       ??_C@_1M@NOHADPMI@?$AAf?$AAr?$AA?9?$AAc?$AAa?$AA?$AA@ 0000000180066cf8     libucrt:lcidtoname_downlevel.obj
 0002:00006d08       ??_C@_1M@KDHIHAEC@?$AAf?$AAr?$AA?9?$AAc?$AAh?$AA?$AA@ 0000000180066d08     libucrt:lcidtoname_downlevel.obj
 0002:00006d18       ??_C@_1M@MMBBFGAK@?$AAf?$AAr?$AA?9?$AAf?$AAr?$AA?$AA@ 0000000180066d18     libucrt:lcidtoname_downlevel.obj
 0002:00006d28       ??_C@_1M@PAFNENNF@?$AAf?$AAr?$AA?9?$AAl?$AAu?$AA?$AA@ 0000000180066d28     libucrt:lcidtoname_downlevel.obj
 0002:00006d38       ??_C@_1M@EOHDJGDD@?$AAf?$AAr?$AA?9?$AAm?$AAc?$AA?$AA@ 0000000180066d38     libucrt:lcidtoname_downlevel.obj
 0002:00006d48       ??_C@_1M@FAPLLOPF@?$AAg?$AAl?$AA?9?$AAe?$AAs?$AA?$AA@ 0000000180066d48     libucrt:lcidtoname_downlevel.obj
 0002:00006d58       ??_C@_1M@FOPBFLOO@?$AAg?$AAu?$AA?9?$AAi?$AAn?$AA?$AA@ 0000000180066d58     libucrt:lcidtoname_downlevel.obj
 0002:00006d68       ??_C@_1M@KBMCINPM@?$AAh?$AAe?$AA?9?$AAi?$AAl?$AA?$AA@ 0000000180066d68     libucrt:lcidtoname_downlevel.obj
 0002:00006d78       ??_C@_1M@BBPHKFPJ@?$AAh?$AAi?$AA?9?$AAi?$AAn?$AA?$AA@ 0000000180066d78     libucrt:lcidtoname_downlevel.obj
 0002:00006d88       ??_C@_1M@PMBNDPHD@?$AAh?$AAr?$AA?9?$AAb?$AAa?$AA?$AA@ 0000000180066d88     libucrt:lcidtoname_downlevel.obj
 0002:00006d98       ??_C@_1M@BPCKOEGE@?$AAh?$AAr?$AA?9?$AAh?$AAr?$AA?$AA@ 0000000180066d98     libucrt:lcidtoname_downlevel.obj
 0002:00006da8       ??_C@_1M@GACBMHKE@?$AAh?$AAu?$AA?9?$AAh?$AAu?$AA?$AA@ 0000000180066da8     libucrt:lcidtoname_downlevel.obj
 0002:00006db8       ??_C@_1M@MILPAJJC@?$AAh?$AAy?$AA?9?$AAa?$AAm?$AA?$AA@ 0000000180066db8     libucrt:lcidtoname_downlevel.obj
 0002:00006dc8       ??_C@_1M@BABBICEC@?$AAi?$AAd?$AA?9?$AAi?$AAd?$AA?$AA@ 0000000180066dc8     libucrt:lcidtoname_downlevel.obj
 0002:00006dd8       ??_C@_1M@BIKNHHPF@?$AAi?$AAs?$AA?9?$AAi?$AAs?$AA?$AA@ 0000000180066dd8     libucrt:lcidtoname_downlevel.obj
 0002:00006de8       ??_C@_1M@NMPCJPHE@?$AAi?$AAt?$AA?9?$AAc?$AAh?$AA?$AA@ 0000000180066de8     libucrt:lcidtoname_downlevel.obj
 0002:00006df8       ??_C@_1M@GHKGFEDF@?$AAi?$AAt?$AA?9?$AAi?$AAt?$AA?$AA@ 0000000180066df8     libucrt:lcidtoname_downlevel.obj
 0002:00006e08       ??_C@_1M@NIEJCJJA@?$AAj?$AAa?$AA?9?$AAj?$AAp?$AA?$AA@ 0000000180066e08     libucrt:lcidtoname_downlevel.obj
 0002:00006e18       ??_C@_1M@JILFNBIM@?$AAk?$AAa?$AA?9?$AAg?$AAe?$AA?$AA@ 0000000180066e18     libucrt:lcidtoname_downlevel.obj
 0002:00006e28       ??_C@_1M@PACPMGPH@?$AAk?$AAk?$AA?9?$AAk?$AAz?$AA?$AA@ 0000000180066e28     libucrt:lcidtoname_downlevel.obj
 0002:00006e38       ??_C@_1M@IELFGMHA@?$AAk?$AAn?$AA?9?$AAi?$AAn?$AA?$AA@ 0000000180066e38     libucrt:lcidtoname_downlevel.obj
 0002:00006e48       ??_C@_1O@IBBJHCH@?$AAk?$AAo?$AAk?$AA?9?$AAi?$AAn?$AA?$AA@ 0000000180066e48     libucrt:lcidtoname_downlevel.obj
 0002:00006e58       ??_C@_1M@DMHAEOGC@?$AAk?$AAo?$AA?9?$AAk?$AAr?$AA?$AA@ 0000000180066e58     libucrt:lcidtoname_downlevel.obj
 0002:00006e68       ??_C@_1M@HBAHBIGA@?$AAk?$AAy?$AA?9?$AAk?$AAg?$AA?$AA@ 0000000180066e68     libucrt:lcidtoname_downlevel.obj
 0002:00006e78       ??_C@_1M@KPMILCJG@?$AAl?$AAt?$AA?9?$AAl?$AAt?$AA?$AA@ 0000000180066e78     libucrt:lcidtoname_downlevel.obj
 0002:00006e88       ??_C@_1M@BDEKKCA@?$AAl?$AAv?$AA?9?$AAl?$AAv?$AA?$AA@ 0000000180066e88     libucrt:lcidtoname_downlevel.obj
 0002:00006e98       ??_C@_1M@ELCKCCJJ@?$AAm?$AAi?$AA?9?$AAn?$AAz?$AA?$AA@ 0000000180066e98     libucrt:lcidtoname_downlevel.obj
 0002:00006ea8       ??_C@_1M@CBOOLAPA@?$AAm?$AAk?$AA?9?$AAm?$AAk?$AA?$AA@ 0000000180066ea8     libucrt:lcidtoname_downlevel.obj
 0002:00006eb8       ??_C@_1M@GPHNBJKN@?$AAm?$AAl?$AA?9?$AAi?$AAn?$AA?$AA@ 0000000180066eb8     libucrt:lcidtoname_downlevel.obj
 0002:00006ec8       ??_C@_1M@PABJILIG@?$AAm?$AAn?$AA?9?$AAm?$AAn?$AA?$AA@ 0000000180066ec8     libucrt:lcidtoname_downlevel.obj
 0002:00006ed8       ??_C@_1M@FGBKKIPG@?$AAm?$AAr?$AA?9?$AAi?$AAn?$AA?$AA@ 0000000180066ed8     libucrt:lcidtoname_downlevel.obj
 0002:00006ee8       ??_C@_1M@NDBPDDAL@?$AAm?$AAs?$AA?9?$AAb?$AAn?$AA?$AA@ 0000000180066ee8     libucrt:lcidtoname_downlevel.obj
 0002:00006ef8       ??_C@_1M@OPIHOOPI@?$AAm?$AAs?$AA?9?$AAm?$AAy?$AA?$AA@ 0000000180066ef8     libucrt:lcidtoname_downlevel.obj
 0002:00006f08       ??_C@_1M@PPDBCNFM@?$AAm?$AAt?$AA?9?$AAm?$AAt?$AA?$AA@ 0000000180066f08     libucrt:lcidtoname_downlevel.obj
 0002:00006f18       ??_C@_1M@KDJDKMDD@?$AAn?$AAb?$AA?9?$AAn?$AAo?$AA?$AA@ 0000000180066f18     libucrt:lcidtoname_downlevel.obj
 0002:00006f28       ??_C@_1M@KFCFLMJP@?$AAn?$AAl?$AA?9?$AAb?$AAe?$AA?$AA@ 0000000180066f28     libucrt:lcidtoname_downlevel.obj
 0002:00006f38       ??_C@_1M@KPOPDDGO@?$AAn?$AAl?$AA?9?$AAn?$AAl?$AA?$AA@ 0000000180066f38     libucrt:lcidtoname_downlevel.obj
 0002:00006f48       ??_C@_1M@LJKPEMLN@?$AAn?$AAn?$AA?9?$AAn?$AAo?$AA?$AA@ 0000000180066f48     libucrt:lcidtoname_downlevel.obj
 0002:00006f58       ??_C@_1M@BDGHHBFL@?$AAn?$AAs?$AA?9?$AAz?$AAa?$AA?$AA@ 0000000180066f58     libucrt:lcidtoname_downlevel.obj
 0002:00006f68       ??_C@_1M@IDEHOAP@?$AAp?$AAa?$AA?9?$AAi?$AAn?$AA?$AA@ 0000000180066f68     libucrt:lcidtoname_downlevel.obj
 0002:00006f78       ??_C@_1M@HDBKGOGH@?$AAp?$AAl?$AA?9?$AAp?$AAl?$AA?$AA@ 0000000180066f78     libucrt:lcidtoname_downlevel.obj
 0002:00006f88       ??_C@_1M@LJLLCMEH@?$AAp?$AAt?$AA?9?$AAb?$AAr?$AA?$AA@ 0000000180066f88     libucrt:lcidtoname_downlevel.obj
 0002:00006f98       ??_C@_1M@NCMONAAL@?$AAp?$AAt?$AA?9?$AAp?$AAt?$AA?$AA@ 0000000180066f98     libucrt:lcidtoname_downlevel.obj
 0002:00006fa8       ??_C@_1O@EAKMAJDN@?$AAq?$AAu?$AAz?$AA?9?$AAb?$AAo?$AA?$AA@ 0000000180066fa8     libucrt:lcidtoname_downlevel.obj
 0002:00006fb8       ??_C@_1O@BHHPIGDN@?$AAq?$AAu?$AAz?$AA?9?$AAe?$AAc?$AA?$AA@ 0000000180066fb8     libucrt:lcidtoname_downlevel.obj
 0002:00006fc8       ??_C@_1O@GBAPEKMJ@?$AAq?$AAu?$AAz?$AA?9?$AAp?$AAe?$AA?$AA@ 0000000180066fc8     libucrt:lcidtoname_downlevel.obj
 0002:00006fd8       ??_C@_1M@CLGLEFBO@?$AAr?$AAo?$AA?9?$AAr?$AAo?$AA?$AA@ 0000000180066fd8     libucrt:lcidtoname_downlevel.obj
 0002:00006fe8       ??_C@_1M@CEEDODME@?$AAr?$AAu?$AA?9?$AAr?$AAu?$AA?$AA@ 0000000180066fe8     libucrt:lcidtoname_downlevel.obj
 0002:00006ff8       ??_C@_1M@HPKKKMPP@?$AAs?$AAa?$AA?9?$AAi?$AAn?$AA?$AA@ 0000000180066ff8     libucrt:lcidtoname_downlevel.obj
 0002:00007008       ??_C@_1M@BKMAIGOJ@?$AAs?$AAe?$AA?9?$AAf?$AAi?$AA?$AA@ 0000000180067008     libucrt:lcidtoname_downlevel.obj
 0002:00007018       ??_C@_1M@NDPIFLFI@?$AAs?$AAe?$AA?9?$AAn?$AAo?$AA?$AA@ 0000000180067018     libucrt:lcidtoname_downlevel.obj
 0002:00007028       ??_C@_1M@DANKKHJ@?$AAs?$AAe?$AA?9?$AAs?$AAe?$AA?$AA@ 0000000180067028     libucrt:lcidtoname_downlevel.obj
 0002:00007038       ??_C@_1M@PNBLONPJ@?$AAs?$AAk?$AA?9?$AAs?$AAk?$AA?$AA@ 0000000180067038     libucrt:lcidtoname_downlevel.obj
 0002:00007048       ??_C@_1M@LFMODOAL@?$AAs?$AAl?$AA?9?$AAs?$AAi?$AA?$AA@ 0000000180067048     libucrt:lcidtoname_downlevel.obj
 0002:00007058       ??_C@_1O@DFKOMPG@?$AAs?$AAm?$AAa?$AA?9?$AAn?$AAo?$AA?$AA@ 0000000180067058     libucrt:lcidtoname_downlevel.obj
 0002:00007068       ??_C@_1O@NDKPBNNH@?$AAs?$AAm?$AAa?$AA?9?$AAs?$AAe?$AA?$AA@ 0000000180067068     libucrt:lcidtoname_downlevel.obj
 0002:00007078       ??_C@_1O@PLLKBHAB@?$AAs?$AAm?$AAj?$AA?9?$AAn?$AAo?$AA?$AA@ 0000000180067078     libucrt:lcidtoname_downlevel.obj
 0002:00007088       ??_C@_1O@CLEPOGCA@?$AAs?$AAm?$AAj?$AA?9?$AAs?$AAe?$AA?$AA@ 0000000180067088     libucrt:lcidtoname_downlevel.obj
 0002:00007098       ??_C@_1O@DLGJGKMK@?$AAs?$AAm?$AAn?$AA?9?$AAf?$AAi?$AA?$AA@ 0000000180067098     libucrt:lcidtoname_downlevel.obj
 0002:000070a8       ??_C@_1O@OJDJGAJC@?$AAs?$AAm?$AAs?$AA?9?$AAf?$AAi?$AA?$AA@ 00000001800670a8     libucrt:lcidtoname_downlevel.obj
 0002:000070b8       ??_C@_1M@BOFOGHPB@?$AAs?$AAq?$AA?9?$AAa?$AAl?$AA?$AA@ 00000001800670b8     libucrt:lcidtoname_downlevel.obj
 0002:000070c8       ??_C@_1BG@LJBBIPGB@?$AAs?$AAr?$AA?9?$AAb?$AAa?$AA?9?$AAc?$AAy?$AAr?$AAl?$AA?$AA@ 00000001800670c8     libucrt:lcidtoname_downlevel.obj
 0002:000070e0       ??_C@_1BG@JLBENFOE@?$AAs?$AAr?$AA?9?$AAb?$AAa?$AA?9?$AAl?$AAa?$AAt?$AAn?$AA?$AA@ 00000001800670e0     libucrt:lcidtoname_downlevel.obj
 0002:000070f8       ??_C@_1BG@KODPNHE@?$AAs?$AAr?$AA?9?$AAs?$AAp?$AA?9?$AAc?$AAy?$AAr?$AAl?$AA?$AA@ 00000001800670f8     libucrt:lcidtoname_downlevel.obj
 0002:00007110       ??_C@_1BG@CIOGKHPB@?$AAs?$AAr?$AA?9?$AAs?$AAp?$AA?9?$AAl?$AAa?$AAt?$AAn?$AA?$AA@ 0000000180067110     libucrt:lcidtoname_downlevel.obj
 0002:00007128       ??_C@_1M@NGFJLMAC@?$AAs?$AAv?$AA?9?$AAf?$AAi?$AA?$AA@ 0000000180067128     libucrt:lcidtoname_downlevel.obj
 0002:00007138       ??_C@_1M@MPJEJAJC@?$AAs?$AAv?$AA?9?$AAs?$AAe?$AA?$AA@ 0000000180067138     libucrt:lcidtoname_downlevel.obj
 0002:00007148       ??_C@_1M@MPNDHLFK@?$AAs?$AAw?$AA?9?$AAk?$AAe?$AA?$AA@ 0000000180067148     libucrt:lcidtoname_downlevel.obj
 0002:00007158       ??_C@_1O@KOHBJJI@?$AAs?$AAy?$AAr?$AA?9?$AAs?$AAy?$AA?$AA@ 0000000180067158     libucrt:lcidtoname_downlevel.obj
 0002:00007168       ??_C@_1M@LDCEFHA@?$AAt?$AAa?$AA?9?$AAi?$AAn?$AA?$AA@ 0000000180067168     libucrt:lcidtoname_downlevel.obj
 0002:00007178       ??_C@_1M@CNJOFAK@?$AAt?$AAe?$AA?9?$AAi?$AAn?$AA?$AA@ 0000000180067178     libucrt:lcidtoname_downlevel.obj
 0002:00007188       ??_C@_1M@GNAECACD@?$AAt?$AAh?$AA?9?$AAt?$AAh?$AA?$AA@ 0000000180067188     libucrt:lcidtoname_downlevel.obj
 0002:00007198       ??_C@_1M@CHBIHOJO@?$AAt?$AAn?$AA?9?$AAz?$AAa?$AA?$AA@ 0000000180067198     libucrt:lcidtoname_downlevel.obj
 0002:000071a8       ??_C@_1M@GCCMIGPJ@?$AAt?$AAr?$AA?9?$AAt?$AAr?$AA?$AA@ 00000001800671a8     libucrt:lcidtoname_downlevel.obj
 0002:000071b8       ??_C@_1M@CELMCNBK@?$AAt?$AAt?$AA?9?$AAr?$AAu?$AA?$AA@ 00000001800671b8     libucrt:lcidtoname_downlevel.obj
 0002:000071c8       ??_C@_1M@KLMCELGA@?$AAu?$AAk?$AA?9?$AAu?$AAa?$AA?$AA@ 00000001800671c8     libucrt:lcidtoname_downlevel.obj
 0002:000071d8       ??_C@_1M@EPAJJAJF@?$AAu?$AAr?$AA?9?$AAp?$AAk?$AA?$AA@ 00000001800671d8     libucrt:lcidtoname_downlevel.obj
 0002:000071e8       ??_C@_1BG@GEGPMCDJ@?$AAu?$AAz?$AA?9?$AAu?$AAz?$AA?9?$AAc?$AAy?$AAr?$AAl?$AA?$AA@ 00000001800671e8     libucrt:lcidtoname_downlevel.obj
 0002:00007200       ??_C@_1BG@EGGKJILM@?$AAu?$AAz?$AA?9?$AAu?$AAz?$AA?9?$AAl?$AAa?$AAt?$AAn?$AA?$AA@ 0000000180067200     libucrt:lcidtoname_downlevel.obj
 0002:00007218       ??_C@_1M@GFOCLFF@?$AAv?$AAi?$AA?9?$AAv?$AAn?$AA?$AA@ 0000000180067218     libucrt:lcidtoname_downlevel.obj
 0002:00007228       ??_C@_1M@CPAMEDFI@?$AAx?$AAh?$AA?9?$AAz?$AAa?$AA?$AA@ 0000000180067228     libucrt:lcidtoname_downlevel.obj
 0002:00007238       ??_C@_1O@EBKIFIGN@?$AAz?$AAh?$AA?9?$AAc?$AAh?$AAs?$AA?$AA@ 0000000180067238     libucrt:lcidtoname_downlevel.obj
 0002:00007248       ??_C@_1O@NMHPGANE@?$AAz?$AAh?$AA?9?$AAc?$AAh?$AAt?$AA?$AA@ 0000000180067248     libucrt:lcidtoname_downlevel.obj
 0002:00007258       ??_C@_1M@LPINJOMC@?$AAz?$AAh?$AA?9?$AAc?$AAn?$AA?$AA@ 0000000180067258     libucrt:lcidtoname_downlevel.obj
 0002:00007268       ??_C@_1M@OCJEJODD@?$AAz?$AAh?$AA?9?$AAh?$AAk?$AA?$AA@ 0000000180067268     libucrt:lcidtoname_downlevel.obj
 0002:00007278       ??_C@_1M@DNDLJINH@?$AAz?$AAh?$AA?9?$AAm?$AAo?$AA?$AA@ 0000000180067278     libucrt:lcidtoname_downlevel.obj
 0002:00007288       ??_C@_1M@MBFDNDND@?$AAz?$AAh?$AA?9?$AAs?$AAg?$AA?$AA@ 0000000180067288     libucrt:lcidtoname_downlevel.obj
 0002:00007298       ??_C@_1M@IMEPLEPE@?$AAz?$AAh?$AA?9?$AAt?$AAw?$AA?$AA@ 0000000180067298     libucrt:lcidtoname_downlevel.obj
 0002:000072a8       ??_C@_1M@BBGHNHJP@?$AAz?$AAu?$AA?9?$AAz?$AAa?$AA?$AA@ 00000001800672a8     libucrt:lcidtoname_downlevel.obj
 0002:00007520       ??_C@_1BA@BALFACEM@?$AAC?$AAO?$AAN?$AAO?$AAU?$AAT?$AA$?$AA?$AA@ 0000000180067520     libucrt:initcon.obj
 0002:00007530       __log10_256_lead           0000000180067530     libucrt:log10_256_lead_tail_table.obj
 0002:00007d40       __log10_256_tail           0000000180067d40     libucrt:log10_256_lead_tail_table.obj
 0002:00008550       __log_F_inv_qword          0000000180068550     libucrt:log_f_inv_qword_table.obj
 0002:00008d60       ??_C@_03MGHMBJCF@log?$AA@  0000000180068d60     libucrt:log_special.obj
 0002:00008d64       ??_C@_05HGHHAHAP@log10?$AA@ 0000000180068d64     libucrt:log_special.obj
 0002:00008d6c       ??_C@_03JGHBODFD@pow?$AA@  0000000180068d6c     libucrt:fpexcept.obj
 0002:00008d70       ??_C@_1BK@DBDEIDLH@?$AAK?$AAE?$AAR?$AAN?$AAE?$AAL?$AA3?$AA2?$AA?4?$AAD?$AAL?$AAL?$AA?$AA@ 0000000180068d70     DelayImp:delayhlp.obj
 0002:00008d90       ??_C@_0BI@OMNLIJDB@AcquireSRWLockExclusive?$AA@ 0000000180068d90     DelayImp:delayhlp.obj
 0002:00008da8       ??_C@_0BI@HMIEPCNJ@ReleaseSRWLockExclusive?$AA@ 0000000180068da8     DelayImp:delayhlp.obj
 0002:00008dc0       __pfnDliFailureHook2       0000000180068dc0     DelayImp:delayhk1.obj
 0002:00008dd0       _load_config_used          0000000180068dd0     LIBCMT:loadcfg.obj
 0002:00008e68       ??_C@_1DG@OKCGPKIB@?$AAp?$AAe?$AAr?$AAs?$AAi?$AAs?$AAt?$AAe?$AAn?$AAt?$AA?$CI?$AA?$CJ?$AA?4?$AAI?$AAs?$AAN?$AAe?$AAa?$AAr?$AAD?$AAe?$AAa?$AAt?$AAh?$AA?$CI?$AA?$CJ?$AA?$AA@ 0000000180068e68     binding.obj
 0002:00008ea0       ??_C@_1CO@EGNPJLKI@?$AAp?$AAe?$AAr?$AAs?$AAi?$AAs?$AAt?$AAe?$AAn?$AAt?$AA?$CI?$AA?$CJ?$AA?4?$AAI?$AAs?$AAE?$AAm?$AAp?$AAt?$AAy?$AA?$CI?$AA?$CJ?$AA?$AA@ 0000000180068ea0     binding.obj
 0002:00008ed0       ??_C@_1DA@FBGAEOIO@?$AA?$CB?$AAp?$AAe?$AAr?$AAs?$AAi?$AAs?$AAt?$AAe?$AAn?$AAt?$AA?$CI?$AA?$CJ?$AA?4?$AAI?$AAs?$AAE?$AAm?$AAp?$AAt?$AAy?$AA?$CI?$AA?$CJ?$AA?$AA@ 0000000180068ed0     binding.obj
 0002:00008f00       ??_C@_1CO@JCKLEFMA@?$AA?$CB?$AAp?$AAe?$AAr?$AAs?$AAi?$AAs?$AAt?$AAe?$AAn?$AAt?$AA?$CI?$AA?$CJ?$AA?4?$AAI?$AAs?$AAW?$AAe?$AAa?$AAk?$AA?$CI?$AA?$CJ?$AA?$AA@ 0000000180068f00     binding.obj
 0002:00008f30       ??_C@_1BE@GMLLOIPJ@?$AAr?$AAe?$AAf?$AAs?$AA_?$AA?5?$AA?$DO?$AA?5?$AA0?$AA?$AA@ 0000000180068f30     binding.obj
 0002:00008f48       ??_C@_1CC@GBFLAAPF@?$AAw?$AAr?$AAa?$AAp?$AA?9?$AA?$DO?$AAr?$AAe?$AAf?$AAs?$AA_?$AA?5?$AA?$DN?$AA?$DN?$AA?5?$AA0?$AA?$AA@ 0000000180068f48     binding.obj
 0002:00008f70       ??_C@_1GA@BPBHDJPG@?$AAD?$AA?3?$AA?2?$AAG?$AAi?$AAt?$AAH?$AAu?$AAb?$AA?2?$AAm?$AAh?$AAw?$AA?9?$AAc?$AAa?$AAl?$AAc?$AAu?$AAl?$AAa?$AAt?$AAo?$AAr?$AA?2?$AAn?$AAo?$AAd?$AAe?$AA_?$AAm?$AAo@ 0000000180068f70     binding.obj
 0002:00008fd0       ??_C@_1BO@OPFMAOCA@?$AAl?$AAe?$AAn?$AA?5?$AA?$DM?$AA?$DN?$AA?5?$AAI?$AAN?$AAT?$AA_?$AAM?$AAA?$AAX?$AA?$AA@ 0000000180068fd0     binding.obj
 0002:00008ff0       ??_C@_1BE@CKDJNAPC@?$AAs?$AAt?$AAr?$AA_?$AA?5?$AA?$CB?$AA?$DN?$AA?5?$AA0?$AA?$AA@ 0000000180068ff0     binding.obj
 0002:00009008       ??_C@_0BC@EBHDFLHM@nan?3Callback?3Call?$AA@ 0000000180069008     binding.obj
 0002:00009020       ??_C@_1HI@GKBDJME@?$AAd?$AA?3?$AA?2?$AAg?$AAi?$AAt?$AAh?$AAu?$AAb?$AA?2?$AAm?$AAh?$AAw?$AA?9?$AAc?$AAa?$AAl?$AAc?$AAu?$AAl?$AAa?$AAt?$AAo?$AAr?$AA?2?$AAn?$AAo?$AAd?$AAe?$AA_?$AAm?$AAo@ 0000000180069020     binding.obj
 0002:000090a0       ??_C@_1EC@MGGLMBLC@?$AAo?$AAb?$AAj?$AAe?$AAc?$AAt?$AA?9?$AA?$DO?$AAI?$AAn?$AAt?$AAe?$AAr?$AAn?$AAa?$AAl?$AAF?$AAi?$AAe?$AAl?$AAd?$AAC?$AAo?$AAu?$AAn?$AAt?$AA?$CI?$AA?$CJ?$AA?5?$AA?$DO?$AA?5?$AA0@ 00000001800690a0     binding.obj
 0002:000090e8       ??_C@_1DI@ELDBKNAK@?$AAw?$AAr?$AAa?$AAp?$AA?9?$AA?$DO?$AAh?$AAa?$AAn?$AAd?$AAl?$AAe?$AA_?$AA?4?$AAI?$AAs?$AAN?$AAe?$AAa?$AAr?$AAD?$AAe?$AAa?$AAt?$AAh?$AA?$CI?$AA?$CJ?$AA?$AA@ 00000001800690e8     binding.obj
 0002:00009120       ??_C@_0BL@GGNHAOJF@MySQL?5server?5has?5gone?5away?$AA@ 0000000180069120     binding.obj
 0002:00009140       ??_C@_1CE@EGENNGNA@?$AA?4?$AA?4?$AA?2?$AAs?$AAr?$AAc?$AA?2?$AAb?$AAi?$AAn?$AAd?$AAi?$AAn?$AAg?$AA?4?$AAc?$AAc?$AA?$AA@ 0000000180069140     binding.obj
 0002:00009168       ??_C@_1BI@MDCHJGIP@?$AAs?$AAt?$AAa?$AAt?$AAu?$AAs?$AA?5?$AA?$DN?$AA?$DN?$AA?5?$AA0?$AA?$AA@ 0000000180069168     binding.obj
 0002:00009180       ??_C@_04FCIJFPNK@?$CFllu?$AA@ 0000000180069180     binding.obj
 0002:00009190       ??_C@_0EB@IPHGHCK@The?5async?5interface?5is?5not?5curre@ 0000000180069190     binding.obj
 0002:000091d4       ??_C@_03FPEIBLKH@tcp?$AA@  00000001800691d4     binding.obj
 0002:000091d8       ??_C@_06HBELJPBO@socket?$AA@ 00000001800691d8     binding.obj
 0002:000091e0       ??_C@_04MKFKKHBG@pipe?$AA@ 00000001800691e0     binding.obj
 0002:000091e8       ??_C@_06HLKELJGF@memory?$AA@ 00000001800691e8     binding.obj
 0002:000091f0       ??_C@_0CO@KCLBIKAA@Use?5?$GAnew?$GA?5to?5create?5instances?5of@ 00000001800691f0     binding.obj
 0002:00009220       ??_C@_0BF@NEDFOGCD@Missing?5setup?5object?$AA@ 0000000180069220     binding.obj
 0002:00009238       ??_C@_0BK@HFFOAHDD@Missing?5onconnect?5handler?$AA@ 0000000180069238     binding.obj
 0002:00009258       ??_C@_0BI@LOONFHJH@Missing?5onerror?5handler?$AA@ 0000000180069258     binding.obj
 0002:00009270       ??_C@_0BH@INDFNBHI@Missing?5onidle?5handler?$AA@ 0000000180069270     binding.obj
 0002:00009288       ??_C@_0BN@BOOILMNK@Missing?5onresultinfo?5handler?$AA@ 0000000180069288     binding.obj
 0002:000092a8       ??_C@_0BG@INNHMOOH@Missing?5onrow?5handler?$AA@ 00000001800692a8     binding.obj
 0002:000092c0       ??_C@_0BM@EMHBFCOB@Missing?5onresultend?5handler?$AA@ 00000001800692c0     binding.obj
 0002:000092e0       ??_C@_0BH@HMJBBFFI@Missing?5onping?5handler?$AA@ 00000001800692e0     binding.obj
 0002:000092f8       ??_C@_0BI@PLOHJGME@Missing?5onclose?5handler?$AA@ 00000001800692f8     binding.obj
 0002:00009310       ??_C@_0BC@GIMHDJLL@Already?5connected?$AA@ 0000000180069310     binding.obj
 0002:00009328       ??_C@_0O@KGKMGJJO@Not?5connected?$AA@ 0000000180069328     binding.obj
 0002:00009338       ??_C@_0BD@EGBHFCJN@Not?5ready?5to?5query?$AA@ 0000000180069338     binding.obj
 0002:00009350       ??_C@_0BC@MDHDBLAA@Missing?5arguments?$AA@ 0000000180069350     binding.obj
 0002:00009368       ??_C@_0CA@GGOFFFCI@query?5argument?5must?5be?5a?5string?$AA@ 0000000180069368     binding.obj
 0002:00009388       ??_C@_0CD@BPMBPIHF@columns?5argument?5must?5be?5a?5boole@ 0000000180069388     binding.obj
 0002:000093b0       ??_C@_0CE@KBPNHPPM@metadata?5argument?5must?5be?5a?5bool@ 00000001800693b0     binding.obj
 0002:000093d8       ??_C@_0CE@FKBBDFNA@buffered?5argument?5must?5be?5a?5bool@ 00000001800693d8     binding.obj
 0002:00009400       ??_C@_0BJ@GMCDLANA@You?5must?5supply?5a?5string?$AA@ 0000000180069400     binding.obj
 0002:00009420       ??_C@_0O@HEMNCNIM@ClientBinding?$AA@ 0000000180069420     binding.obj
 0002:00009430       ??_C@_04NDFOBODE@code?$AA@ 0000000180069430     binding.obj
 0002:00009438       ??_C@_07JKKCBBMM@context?$AA@ 0000000180069438     binding.obj
 0002:00009440       ??_C@_06HEJKKHEK@config?$AA@ 0000000180069440     binding.obj
 0002:00009448       ??_C@_02PGHGPEOM@?91?$AA@  0000000180069448     binding.obj
 0002:00009450       ??_C@_09JCGEGAKK@onconnect?$AA@ 0000000180069450     binding.obj
 0002:00009460       ??_C@_07MAAHHAB@onerror?$AA@ 0000000180069460     binding.obj
 0002:00009468       ??_C@_06FELCKKGJ@onidle?$AA@ 0000000180069468     binding.obj
 0002:00009470       ??_C@_0N@JJDEHBFC@onresultinfo?$AA@ 0000000180069470     binding.obj
 0002:00009480       ??_C@_05HDFOCBME@onrow?$AA@ 0000000180069480     binding.obj
 0002:00009488       ??_C@_0M@JIMNEJPA@onresultend?$AA@ 0000000180069488     binding.obj
 0002:00009494       ??_C@_06PKJKDBKL@onping?$AA@ 0000000180069494     binding.obj
 0002:000094a0       ??_C@_07LHEFOMDP@onclose?$AA@ 00000001800694a0     binding.obj
 0002:000094a8       ??_C@_07NILMAEIL@TINYINT?$AA@ 00000001800694a8     binding.obj
 0002:000094b0       ??_C@_08KFJLGPGB@SMALLINT?$AA@ 00000001800694b0     binding.obj
 0002:000094c0       ??_C@_07EHCIHKNF@INTEGER?$AA@ 00000001800694c0     binding.obj
 0002:000094c8       ??_C@_09CBJPILPN@MEDIUMINT?$AA@ 00000001800694c8     binding.obj
 0002:000094d4       ??_C@_06DBEMLEAB@BIGINT?$AA@ 00000001800694d4     binding.obj
 0002:000094e0       ??_C@_07LJPMJDLL@DECIMAL?$AA@ 00000001800694e0     binding.obj
 0002:000094e8       ??_C@_05GGMHDFKJ@FLOAT?$AA@ 00000001800694e8     binding.obj
 0002:000094f0       ??_C@_06BJLJNGLL@DOUBLE?$AA@ 00000001800694f0     binding.obj
 0002:000094f8       ??_C@_03EODKJOEK@BIT?$AA@  00000001800694f8     binding.obj
 0002:00009500       ??_C@_09NMMIOGMI@TIMESTAMP?$AA@ 0000000180069500     binding.obj
 0002:0000950c       ??_C@_04FBLNPEBP@DATE?$AA@ 000000018006950c     binding.obj
 0002:00009514       ??_C@_04OHBONDIN@TIME?$AA@ 0000000180069514     binding.obj
 0002:00009520       ??_C@_08CJHDPGDN@DATETIME?$AA@ 0000000180069520     binding.obj
 0002:0000952c       ??_C@_04FJMBNFHG@YEAR?$AA@ 000000018006952c     binding.obj
 0002:00009534       ??_C@_04IBPLICII@CHAR?$AA@ 0000000180069534     binding.obj
 0002:00009540       ??_C@_07BCIIIHIM@VARCHAR?$AA@ 0000000180069540     binding.obj
 0002:00009548       ??_C@_08HFFHHOCA@TINYBLOB?$AA@ 0000000180069548     binding.obj
 0002:00009558       ??_C@_0L@MMMIIJKG@MEDIUMBLOB?$AA@ 0000000180069558     binding.obj
 0002:00009568       ??_C@_08JNPMPECF@LONGBLOB?$AA@ 0000000180069568     binding.obj
 0002:00009574       ??_C@_03KPIFFHNE@SET?$AA@  0000000180069574     binding.obj
 0002:00009578       ??_C@_04PNKFCNMG@ENUM?$AA@ 0000000180069578     binding.obj
 0002:00009580       ??_C@_08BDMAAGDL@GEOMETRY?$AA@ 0000000180069580     binding.obj
 0002:0000958c       ??_C@_04HIBGFPH@NULL?$AA@  000000018006958c     binding.obj
 0002:00009598       ??_C@_0BF@BMHAAPKA@?$FLUnknown?5field?5type?$FN?$AA@ 0000000180069598     binding.obj
 0002:000095b0       ??_C@_04CCHAHKJA@user?$AA@ 00000001800695b0     binding.obj
 0002:000095b8       ??_C@_08NLHBPEGP@password?$AA@ 00000001800695b8     binding.obj
 0002:000095c4       ??_C@_04OODOLJMA@host?$AA@ 00000001800695c4     binding.obj
 0002:000095cc       ??_C@_04LPGMAPLE@port?$AA@ 00000001800695cc     binding.obj
 0002:000095d8       ??_C@_0L@IHDDLPLI@unixSocket?$AA@ 00000001800695d8     binding.obj
 0002:000095e4       ??_C@_02BIKLEMDE@db?$AA@   00000001800695e4     binding.obj
 0002:000095e8       ??_C@_0M@BDJDGKMM@connTimeout?$AA@ 00000001800695e8     binding.obj
 0002:000095f8       ??_C@_0L@KBEIMINP@secureAuth?$AA@ 00000001800695f8     binding.obj
 0002:00009608       ??_C@_0BA@LCNDDIOE@multiStatements?$AA@ 0000000180069608     binding.obj
 0002:00009618       ??_C@_08EJNPIMGB@compress?$AA@ 0000000180069618     binding.obj
 0002:00009628       ??_C@_0N@NKINNFNC@local_infile?$AA@ 0000000180069628     binding.obj
 0002:00009638       ??_C@_0BC@NEIMEFFF@read_default_file?$AA@ 0000000180069638     binding.obj
 0002:00009650       ??_C@_0BD@OGBFCJGA@read_default_group?$AA@ 0000000180069650     binding.obj
 0002:00009668       ??_C@_07EAJPFAFH@charset?$AA@ 0000000180069668     binding.obj
 0002:00009670       ??_C@_0N@LOFHHABG@tcpKeepalive?$AA@ 0000000180069670     binding.obj
 0002:00009680       ??_C@_0BA@ECCAMPNG@tcpKeepaliveCnt?$AA@ 0000000180069680     binding.obj
 0002:00009690       ??_C@_0BC@OEBGOMLH@tcpKeepaliveIntvl?$AA@ 0000000180069690     binding.obj
 0002:000096a4       ??_C@_03DIMONNDD@ssl?$AA@  00000001800696a4     binding.obj
 0002:000096a8       ??_C@_08FCFPNNHF@protocol?$AA@ 00000001800696a8     binding.obj
 0002:000096b4       ??_C@_03ICHNJLJF@key?$AA@  00000001800696b4     binding.obj
 0002:000096b8       ??_C@_04PHJBACIC@cert?$AA@ 00000001800696b8     binding.obj
 0002:000096c0       ??_C@_02DGMJAJHC@ca?$AA@   00000001800696c0     binding.obj
 0002:000096c4       ??_C@_06JPPBPLIM@capath?$AA@ 00000001800696c4     binding.obj
 0002:000096cc       ??_C@_06KDGDAFPH@cipher?$AA@ 00000001800696cc     binding.obj
 0002:000096d8       ??_C@_0BD@JGGJIEAP@rejectUnauthorized?$AA@ 00000001800696d8     binding.obj
 0002:000096f0       ??_C@_07KAIBNCHO@connect?$AA@ 00000001800696f0     binding.obj
 0002:000096f8       ??_C@_05BKABJGDH@query?$AA@ 00000001800696f8     binding.obj
 0002:00009700       ??_C@_09OGFBEMME@setConfig?$AA@ 0000000180069700     binding.obj
 0002:0000970c       ??_C@_05PDJBBECF@pause?$AA@ 000000018006970c     binding.obj
 0002:00009714       ??_C@_06PLELHCEK@resume?$AA@ 0000000180069714     binding.obj
 0002:0000971c       ??_C@_04OONEELOO@ping?$AA@ 000000018006971c     binding.obj
 0002:00009724       ??_C@_06CHNIFGOF@escape?$AA@ 0000000180069724     binding.obj
 0002:0000972c       ??_C@_05LBOHBHFK@close?$AA@ 000000018006972c     binding.obj
 0002:00009738       ??_C@_09IDHOPGEF@isMariaDB?$AA@ 0000000180069738     binding.obj
 0002:00009748       ??_C@_0O@NAGPAHDM@serverVersion?$AA@ 0000000180069748     binding.obj
 0002:00009758       ??_C@_0N@GECLCEKN@lastInsertId?$AA@ 0000000180069758     binding.obj
 0002:00009768       ??_C@_04LHHHFLPP@utf8?$AA@ 0000000180069768     binding.obj
 0002:00009770       ??_C@_07CPCPJPKL@version?$AA@ 0000000180069770     binding.obj
 0002:00009778       ??_C@_0BC@OMDPIAIO@?4?4?2src?2binding?4cc?$AA@ 0000000180069778     binding.obj
 0002:00009790       ??_C@_09DFDPBKPM@sqlclient?$AA@ 0000000180069790     binding.obj
 0002:000097a0       ??_C@_1CE@LNAGEONJ@?$AA?$CB?$AAo?$AAb?$AAj?$AAe?$AAc?$AAt?$AA?4?$AAI?$AAs?$AAE?$AAm?$AAp?$AAt?$AAy?$AA?$CI?$AA?$CJ?$AA?$AA@ 00000001800697a0     binding.obj
 0002:000097e8       __pfnDliNotifyHook2        00000001800697e8     win_delay_load_hook.obj
 0002:000097f0       unknown_sqlstate           00000001800697f0     clientlib:client.obj
 0002:000097f8       not_error_sqlstate         00000001800697f8     clientlib:client.obj
 0002:00009800       charsets                   0000000180069800     clientlib:client.obj
 0002:00009c68       def_shared_memory_base_name 0000000180069c68     clientlib:client.obj
 0002:00009c70       default_client_charset_info 0000000180069c70     clientlib:client.obj
 0002:00009c9c       my_file_limit              0000000180069c9c     mysys:my_static.obj
 0002:00009cac       my_once_extra              0000000180069cac     mysys:my_static.obj
 0002:00009d28       default_charset_info       0000000180069d28     mysys:charset.obj
 0002:00009d30       log_10_int                 0000000180069d30     clientlib:my_time.obj
 0002:00009dd0       days_in_month              0000000180069dd0     clientlib:my_time.obj
 0002:00009de0       my_charset_error_reporter  0000000180069de0     mysys:charset.obj
 0002:00009e08       fatal_error_handler_hook   0000000180069e08     mysys:my_static.obj
 0002:00009e10       _dig_vec_upper             0000000180069e10     strings:int2str.obj
 0002:00009e38       _dig_vec_lower             0000000180069e38     strings:int2str.obj
 0002:0000a0d0       my_collation_8bit_bin_handler 000000018006a0d0     strings:ctype-bin.obj
 0002:0000b948       my_unicase_default         000000018006b948     strings:ctype-utf8.obj
 0002:0000bb88       my_unicase_turkish         000000018006bb88     strings:ctype-utf8.obj
 0002:0000da58       my_unicase_unicode520      000000018006da58     strings:ctype-utf8.obj
 0002:000121e0       my_collation_utf32_uca_handler 00000001800721e0     strings:ctype-uca.obj
 0002:00012238       my_str_free                0000000180072238     strings:str_alloc.obj
 0002:000186d0       my_collation_ucs2_uca_handler 00000001800786d0     strings:ctype-uca.obj
 0002:00018728       my_str_malloc              0000000180078728     strings:str_alloc.obj
 0002:0001d7c8       my_unicase_mysql500        000000018007d7c8     strings:ctype-utf8.obj
 0002:0001d7d8       my_str_realloc             000000018007d7d8     strings:str_alloc.obj
 0002:000207e0       uca520_length              00000001800807e0     strings:ctype-uca.obj
 0002:00021fa8       my_caseinfo_cp932          0000000180081fa8     strings:ctype-cp932.obj
 0002:00036530       my_collation_utf16_uca_handler 0000000180096530     strings:ctype-uca.obj
 0002:00058a20       my_collation_any_uca_handler 00000001800b8a20     strings:ctype-uca.obj
 0002:00058a78       ?Te2@AES@TaoCrypt@@0PEBIEB 00000001800b8a78     taocrypt:aes.obj
 0002:0005a2f8       ?Te0@AES@TaoCrypt@@0PEBIEB 00000001800ba2f8     taocrypt:aes.obj
 0002:0005ade0       my_charset_utf8mb4_handler 00000001800bade0     strings:ctype-utf8.obj
 0002:0005aed8       ?Td2@AES@TaoCrypt@@0PEBIEB 00000001800baed8     taocrypt:aes.obj
 0002:0005aee0       my_charset_utf8_handler    00000001800baee0     strings:ctype-utf8.obj
 0002:0005afd8       ?Td4@AES@TaoCrypt@@0PEBIEB 00000001800bafd8     taocrypt:aes.obj
 0002:0005b038       ?Te4@AES@TaoCrypt@@0PEBIEB 00000001800bb038     taocrypt:aes.obj
 0002:0005b0d8       ?Td3@AES@TaoCrypt@@0PEBIEB 00000001800bb0d8     taocrypt:aes.obj
 0002:0005b1d8       ?Te3@AES@TaoCrypt@@0PEBIEB 00000001800bb1d8     taocrypt:aes.obj
 0002:0005b1e0       my_uni_ctype               00000001800bb1e0     strings:ctype-utf8.obj
 0002:0005c238       ?Te1@AES@TaoCrypt@@0PEBIEB 00000001800bc238     taocrypt:aes.obj
 0002:0005c438       ?Td0@AES@TaoCrypt@@0PEBIEB 00000001800bc438     taocrypt:aes.obj
 0002:0005d118       ?Td1@AES@TaoCrypt@@0PEBIEB 00000001800bd118     taocrypt:aes.obj
 0002:0005d678       ?rcon_@AES@TaoCrypt@@0QBIB 00000001800bd678     taocrypt:aestables.obj
 0002:00060700       my_collation_8bit_simple_ci_handler 00000001800c0700     strings:ctype-simple.obj
 0002:00060760       my_charset_8bit_handler    00000001800c0760     strings:ctype-simple.obj
 0002:000a2130       my_charset_utf32_handler   0000000180102130     strings:ctype-ucs2.obj
 0002:000a2230       my_charset_utf16_handler   0000000180102230     strings:ctype-ucs2.obj
 0002:000a2330       my_charset_ucs2_handler    0000000180102330     strings:ctype-ucs2.obj
 0002:00273070       _length_code               00000001802d3070     zlib:trees.obj
 0002:00273170       _dist_code                 00000001802d3170     zlib:trees.obj
 0002:00273ac0       z_errmsg                   00000001802d3ac0     zlib:zutil.obj
 0002:00276710       ?Td@AES@TaoCrypt@@0QAY0BAA@$$CBIA 00000001802d6710     taocrypt:aes.obj
 0002:00277b10       ?Te@AES@TaoCrypt@@0QAY0BAA@$$CBIA 00000001802d7b10     taocrypt:aes.obj
 0002:00278f10       ??_7ObjectWrap@Nan@@6B@    00000001802d8f10     binding.obj
 0002:00278f28       ??_7Client@@6B@            00000001802d8f28     binding.obj
 0002:00278f40       ??_C@_08HCOMDCCD@iojs?4exe?$AA@ 00000001802d8f40     win_delay_load_hook.obj
 0002:00278f50       ??_C@_08JDDNMFDB@node?4exe?$AA@ 00000001802d8f50     win_delay_load_hook.obj
 0002:00278f59       ??_C@_00CNPNBAHC@?$AA@     00000001802d8f59     clientlib:client.obj
 0002:00278f5c       ??_C@_05JDDDFACF@HY000?$AA@ 00000001802d8f5c     clientlib:client.obj
 0002:00278f64       ??_C@_05OAGAMKLF@00000?$AA@ 00000001802d8f64     clientlib:client.obj
 0002:00278f6c       ??_C@_05CAPCAOJG@MYSQL?$AA@ 00000001802d8f6c     clientlib:client.obj
 0002:00278f78       ??_C@_09IPAEKDAI@localhost?$AA@ 00000001802d8f78     clientlib:client.obj
 0002:00278f84       ??_C@_01LFCBOECM@?4?$AA@   00000001802d8f84     clientlib:client.obj
 0002:00278f88       ??_C@_06CKMLAALA@?2pipe?2?$AA@ 00000001802d8f88     clientlib:client.obj
 0002:00278f90       ??_C@_02HDBGODGB@?2?2?$AA@ 00000001802d8f90     clientlib:client.obj
 0002:00278f98       ??_C@_07DLJKOECL@Global?2?$AA@ 00000001802d8f98     clientlib:client.obj
 0002:00278fa0       ??_C@_01IDAFKMJL@_?$AA@    00000001802d8fa0     clientlib:client.obj
 0002:00278fa8       ??_C@_0BA@JHEAPDIJ@CONNECT_REQUEST?$AA@ 00000001802d8fa8     clientlib:client.obj
 0002:00278fb8       ??_C@_0P@LAPEINM@CONNECT_ANSWER?$AA@ 00000001802d8fb8     clientlib:client.obj
 0002:00278fc8       ??_C@_0N@KDCPKEFK@CONNECT_DATA?$AA@ 00000001802d8fc8     clientlib:client.obj
 0002:00278fd8       ??_C@_04DFNBDBBL@DATA?$AA@ 00000001802d8fd8     clientlib:client.obj
 0002:00278fe0       ??_C@_0N@FINMEKMG@SERVER_WROTE?$AA@ 00000001802d8fe0     clientlib:client.obj
 0002:00278ff0       ??_C@_0M@PHMCLNCP@SERVER_READ?$AA@ 00000001802d8ff0     clientlib:client.obj
 0002:00279000       ??_C@_0N@HEAGDILD@CLIENT_WROTE?$AA@ 00000001802d9000     clientlib:client.obj
 0002:00279010       ??_C@_0M@PECOEDJB@CLIENT_READ?$AA@ 00000001802d9010     clientlib:client.obj
 0002:00279020       ??_C@_0BC@DELLOAPH@CONNECTION_CLOSED?$AA@ 00000001802d9020     clientlib:client.obj
 0002:00279034       ??_C@_02OKOOOCIH@OS?$AA@   00000001802d9034     clientlib:client.obj
 0002:00279038       ??_C@_0L@MKBJOBHN@Windows_NT?$AA@ 00000001802d9038     clientlib:client.obj
 0002:00279048       ??_C@_07DDHNKDGP@timeout?$AA@ 00000001802d9048     clientlib:client.obj
 0002:00279050       ??_C@_0N@CJBLNCLF@init?9command?$AA@ 00000001802d9050     clientlib:client.obj
 0002:00279060       ??_C@_08PBOCEOLL@database?$AA@ 00000001802d9060     clientlib:client.obj
 0002:0027906c       ??_C@_05GFCDIDHO@debug?$AA@ 00000001802d906c     clientlib:client.obj
 0002:00279078       ??_C@_0BC@CPNNNMD@return?9found?9rows?$AA@ 00000001802d9078     clientlib:client.obj
 0002:00279090       ??_C@_07HPCDODLB@ssl?9key?$AA@ 00000001802d9090     clientlib:client.obj
 0002:00279098       ??_C@_08MLGPLICL@ssl?9cert?$AA@ 00000001802d9098     clientlib:client.obj
 0002:002790a4       ??_C@_06KEIFHGI@ssl?9ca?$AA@ 00000001802d90a4     clientlib:client.obj
 0002:002790b0       ??_C@_0L@MLIAJKEA@ssl?9capath?$AA@ 00000001802d90b0     clientlib:client.obj
 0002:002790c0       ??_C@_0BD@HPLEKGGN@character?9sets?9dir?$AA@ 00000001802d90c0     clientlib:client.obj
 0002:002790d8       ??_C@_0BG@BMMCDGOA@default?9character?9set?$AA@ 00000001802d90d8     clientlib:client.obj
 0002:002790f0       ??_C@_0BE@PKKGFOHM@interactive?9timeout?$AA@ 00000001802d90f0     clientlib:client.obj
 0002:00279108       ??_C@_0BA@PKFDCPCI@connect?9timeout?$AA@ 00000001802d9108     clientlib:client.obj
 0002:00279118       ??_C@_0N@DEPIEDDP@local?9infile?$AA@ 00000001802d9118     clientlib:client.obj
 0002:00279128       ??_C@_0BF@DNHMICAO@disable?9local?9infile?$AA@ 00000001802d9128     clientlib:client.obj
 0002:00279140       ??_C@_0L@PHBCGEDL@ssl?9cipher?$AA@ 00000001802d9140     clientlib:client.obj
 0002:00279150       ??_C@_0BD@OFGLABCB@max?9allowed?9packet?$AA@ 00000001802d9150     clientlib:client.obj
 0002:00279168       ??_C@_0BI@FOKNPLJP@shared?9memory?9base?9name?$AA@ 00000001802d9168     clientlib:client.obj
 0002:00279180       ??_C@_0O@CCDCLLBG@multi?9results?$AA@ 00000001802d9180     clientlib:client.obj
 0002:00279190       ??_C@_0BB@ECMBLIEH@multi?9statements?$AA@ 00000001802d9190     clientlib:client.obj
 0002:002791a8       ??_C@_0O@IGPGCENI@multi?9queries?$AA@ 00000001802d91a8     clientlib:client.obj
 0002:002791b8       ??_C@_0M@PMDPKFDA@secure?9auth?$AA@ 00000001802d91b8     clientlib:client.obj
 0002:002791c8       ??_C@_0BH@BONNBGIA@report?9data?9truncation?$AA@ 00000001802d91c8     clientlib:client.obj
 0002:002791e0       ??_C@_0L@DKFBNAAA@plugin?9dir?$AA@ 00000001802d91e0     clientlib:client.obj
 0002:002791f0       ??_C@_0N@JAHONPFG@default?9auth?$AA@ 00000001802d91f0     clientlib:client.obj
 0002:00279200       ??_C@_0N@KPFNDBAM@bind?9address?$AA@ 00000001802d9200     clientlib:client.obj
 0002:00279210       ??_C@_07JEELJILP@ssl?9crl?$AA@ 00000001802d9210     clientlib:client.obj
 0002:00279218       ??_C@_0M@NGGKCHJN@ssl?9crlpath?$AA@ 00000001802d9218     clientlib:client.obj
 0002:00279228       ??_C@_0BI@MDNBFINA@enable?9cleartext?9plugin?$AA@ 00000001802d9228     clientlib:client.obj
 0002:00279240       ??_C@_07FOPBDDAL@options?$AA@ 00000001802d9240     clientlib:client.obj
 0002:00279248       ??_C@_03FCLDNGNL@TCP?$AA@  00000001802d9248     clientlib:client.obj
 0002:0027924c       ??_C@_06HFGAEBMM@SOCKET?$AA@ 00000001802d924c     clientlib:client.obj
 0002:00279254       ??_C@_04GGAEFGO@PIPE?$AA@  00000001802d9254     clientlib:client.obj
 0002:0027925c       ??_C@_06HPIPGHLH@MEMORY?$AA@ 00000001802d925c     clientlib:client.obj
 0002:00279264       ??_C@_06DGDLPBAN@client?$AA@ 00000001802d9264     clientlib:client.obj
 0002:00279270       ??_C@_0O@MFDBPIBO@client?9server?$AA@ 00000001802d9270     clientlib:client.obj
 0002:00279280       ??_C@_0P@EFAGEKHC@client?9mariadb?$AA@ 00000001802d9280     clientlib:client.obj
 0002:00279290       ??_C@_0CA@ONJAFPFC@Unknown?5option?5to?5protocol?3?5?$CFs?6?$AA@ 00000001802d9290     clientlib:client.obj
 0002:002792b0       ??_C@_05PAOMFHGM@cp437?$AA@ 00000001802d92b0     clientlib:client.obj
 0002:002792b8       ??_C@_05PBPGACKB@cp850?$AA@ 00000001802d92b8     clientlib:client.obj
 0002:002792c0       ??_C@_05MDMAGACD@cp852?$AA@ 00000001802d92c0     clientlib:client.obj
 0002:002792c8       ??_C@_05DJCPIIKJ@cp858?$AA@ 00000001802d92c8     clientlib:client.obj
 0002:002792d0       ??_C@_05KFOKBLHO@cp866?$AA@ 00000001802d92d0     clientlib:client.obj
 0002:002792d8       ??_C@_05JGBOBDML@cp874?$AA@ 00000001802d92d8     clientlib:client.obj
 0002:002792e0       ??_C@_06MGNELAEE@tis620?$AA@ 00000001802d92e0     clientlib:client.obj
 0002:002792e8       ??_C@_05HPPBHLPE@cp932?$AA@ 00000001802d92e8     clientlib:client.obj
 0002:002792f0       ??_C@_05BLJNLOPA@cp936?$AA@ 00000001802d92f0     clientlib:client.obj
 0002:002792f8       ??_C@_03LFBAECHL@gbk?$AA@  00000001802d92f8     clientlib:client.obj
 0002:002792fc       ??_C@_05JJEKLELK@cp949?$AA@ 00000001802d92fc     clientlib:client.obj
 0002:00279304       ??_C@_05FHCOMIFC@euckr?$AA@ 00000001802d9304     clientlib:client.obj
 0002:0027930c       ??_C@_05EJEKGFME@cp950?$AA@ 00000001802d930c     clientlib:client.obj
 0002:00279314       ??_C@_04HDKIILFF@big5?$AA@ 00000001802d9314     clientlib:client.obj
 0002:0027931c       ??_C@_06OOKBAJEH@cp1200?$AA@ 00000001802d931c     clientlib:client.obj
 0002:00279328       ??_C@_07KIKBDMPA@utf16le?$AA@ 00000001802d9328     clientlib:client.obj
 0002:00279330       ??_C@_06PHLKDIAG@cp1201?$AA@ 00000001802d9330     clientlib:client.obj
 0002:00279338       ??_C@_05KLHIDCCM@utf16?$AA@ 00000001802d9338     clientlib:client.obj
 0002:00279340       ??_C@_06OIGKMLKM@cp1250?$AA@ 00000001802d9340     clientlib:client.obj
 0002:00279348       ??_C@_06PBHBPKON@cp1251?$AA@ 00000001802d9348     clientlib:client.obj
 0002:00279350       ??_C@_06NKFMKJCO@cp1252?$AA@ 00000001802d9350     clientlib:client.obj
 0002:00279358       ??_C@_06CDEFMFPB@latin1?$AA@ 00000001802d9358     clientlib:client.obj
 0002:00279360       ??_C@_06MDEHJIGP@cp1253?$AA@ 00000001802d9360     clientlib:client.obj
 0002:00279368       ??_C@_05BMDDGOIH@greek?$AA@ 00000001802d9368     clientlib:client.obj
 0002:00279370       ??_C@_06IMAGAOKI@cp1254?$AA@ 00000001802d9370     clientlib:client.obj
 0002:00279378       ??_C@_06EHCJAAPF@latin5?$AA@ 00000001802d9378     clientlib:client.obj
 0002:00279380       ??_C@_06JFBNDPOJ@cp1255?$AA@ 00000001802d9380     clientlib:client.obj
 0002:00279388       ??_C@_06IOFFBGCK@hebrew?$AA@ 00000001802d9388     clientlib:client.obj
 0002:00279390       ??_C@_06LODAGMCK@cp1256?$AA@ 00000001802d9390     clientlib:client.obj
 0002:00279398       ??_C@_06KHCLFNGL@cp1257?$AA@ 00000001802d9398     clientlib:client.obj
 0002:002793a0       ??_C@_07ENNABAKJ@cp10000?$AA@ 00000001802d93a0     clientlib:client.obj
 0002:002793a8       ??_C@_08DEGKPPEJ@macroman?$AA@ 00000001802d93a8     clientlib:client.obj
 0002:002793b8       ??_C@_07FEMLCBOI@cp10001?$AA@ 00000001802d93b8     clientlib:client.obj
 0002:002793c0       ??_C@_04JACAFPAA@sjis?$AA@ 00000001802d93c0     clientlib:client.obj
 0002:002793c8       ??_C@_07HPOGHCCL@cp10002?$AA@ 00000001802d93c8     clientlib:client.obj
 0002:002793d0       ??_C@_07IFAJJKKB@cp10008?$AA@ 00000001802d93d0     clientlib:client.obj
 0002:002793d8       ??_C@_06JIBIJLME@gb2312?$AA@ 00000001802d93d8     clientlib:client.obj
 0002:002793e0       ??_C@_07FHEPPFIG@cp10021?$AA@ 00000001802d93e0     clientlib:client.obj
 0002:002793e8       ??_C@_07JPJGHPIO@cp10029?$AA@ 00000001802d93e8     clientlib:client.obj
 0002:002793f0       ??_C@_05CFINKOFD@macce?$AA@ 00000001802d93f0     clientlib:client.obj
 0002:002793f8       ??_C@_07COALHCII@cp12001?$AA@ 00000001802d93f8     clientlib:client.obj
 0002:00279400       ??_C@_05MMJACDEG@utf32?$AA@ 00000001802d9400     clientlib:client.obj
 0002:00279408       ??_C@_07DMLJJDKF@cp20107?$AA@ 00000001802d9408     clientlib:client.obj
 0002:00279410       ??_C@_04KPFMKDCH@swe7?$AA@ 00000001802d9410     clientlib:client.obj
 0002:00279418       ??_C@_07DPDNEHML@cp20127?$AA@ 00000001802d9418     clientlib:client.obj
 0002:00279420       ??_C@_07FMCHJBNM@cp20866?$AA@ 00000001802d9420     clientlib:client.obj
 0002:00279428       ??_C@_05EGDDFGIM@koi8r?$AA@ 00000001802d9428     clientlib:client.obj
 0002:00279430       ??_C@_07IGDMPBFG@cp20932?$AA@ 00000001802d9430     clientlib:client.obj
 0002:00279438       ??_C@_04BPGAKKKA@ujis?$AA@ 00000001802d9438     clientlib:client.obj
 0002:00279440       ??_C@_07OCFADEFC@cp20936?$AA@ 00000001802d9440     clientlib:client.obj
 0002:00279448       ??_C@_07GAIHDOBI@cp20949?$AA@ 00000001802d9448     clientlib:client.obj
 0002:00279450       ??_C@_07GBEHLIGM@cp21866?$AA@ 00000001802d9450     clientlib:client.obj
 0002:00279458       ??_C@_05JHCMAEL@koi8u?$AA@ 00000001802d9458     clientlib:client.obj
 0002:00279460       ??_C@_07NKCANDDK@cp28591?$AA@ 00000001802d9460     clientlib:client.obj
 0002:00279468       ??_C@_07PBANIAPJ@cp28592?$AA@ 00000001802d9468     clientlib:client.obj
 0002:00279470       ??_C@_06IGIJGDC@latin2?$AA@ 00000001802d9470     clientlib:client.obj
 0002:00279478       ??_C@_07IMHKHELM@cp28597?$AA@ 00000001802d9478     clientlib:client.obj
 0002:00279480       ??_C@_07LOCGIHD@cp28598?$AA@ 00000001802d9480     clientlib:client.obj
 0002:00279488       ??_C@_07BCPJFJDC@cp28599?$AA@ 00000001802d9488     clientlib:client.obj
 0002:00279490       ??_C@_07PFHCCFNJ@cp28603?$AA@ 00000001802d9490     clientlib:client.obj
 0002:00279498       ??_C@_06HFBPGCHH@latin7?$AA@ 00000001802d9498     clientlib:client.obj
 0002:002794a0       ??_C@_07MALOLLNG@cp38598?$AA@ 00000001802d94a0     clientlib:client.obj
 0002:002794a8       ??_C@_07KGFJOIFO@cp51932?$AA@ 00000001802d94a8     clientlib:client.obj
 0002:002794b0       ??_C@_07MCDFCNFK@cp51936?$AA@ 00000001802d94b0     clientlib:client.obj
 0002:002794b8       ??_C@_07EAOCCHBA@cp51949?$AA@ 00000001802d94b8     clientlib:client.obj
 0002:002794c0       ??_C@_07JAOCPGGO@cp51950?$AA@ 00000001802d94c0     clientlib:client.obj
 0002:002794c8       ??_C@_07IBCOJOCA@cp65001?$AA@ 00000001802d94c8     clientlib:client.obj
 0002:002794d0       ??_C@_0DH@OGJEIKCK@OS?5character?5set?5?8?$CFs?8?5is?5not?5sup@ 00000001802d94d0     clientlib:client.obj
 0002:00279508       ??_C@_0BP@EJPFOHPI@Unknown?5OS?5character?5set?5?8?$CFs?8?4?$AA@ 00000001802d9508     clientlib:client.obj
 0002:00279528       ??_C@_0CN@KHIIDEMH@Switching?5to?5the?5default?5charact@ 00000001802d9528     clientlib:client.obj
 0002:00279558       ??_C@_04LDGHIPEL@cp?$CFd?$AA@ 00000001802d9558     clientlib:client.obj
 0002:00279560       ??_C@_0BC@BNNCKLMG@latin1_swedish_ci?$AA@ 00000001802d9560     clientlib:client.obj
 0002:00279574       ??_C@_04HAPDLBFF@auto?$AA@ 00000001802d9574     clientlib:client.obj
 0002:00279580       ??_C@_0BG@DFAHECDG@mysql_native_password?$AA@ 00000001802d9580     clientlib:client.obj
 0002:00279598       ??_C@_0BL@KJAJMPIO@R?4J?4Silk?0?5Sergei?5Golubchik?$AA@ 00000001802d9598     clientlib:client.obj
 0002:002795b8       ??_C@_0BM@NEMAPIIO@Native?5MySQL?5authentication?$AA@ 00000001802d95b8     clientlib:client.obj
 0002:002795d4       ??_C@_03OIAIGONO@GPL?$AA@  00000001802d95d4     clientlib:client.obj
 0002:002795d8       ??_C@_0BD@BGABJNIG@mysql_old_password?$AA@ 00000001802d95d8     clientlib:client.obj
 0002:002795f0       ??_C@_0BO@PAGFKIDK@Old?5MySQL?93?423?5authentication?$AA@ 00000001802d95f0     clientlib:client.obj
 0002:00279610       ??_C@_0CD@CIHNPOGB@sending?5authentication?5informati@ 00000001802d9610     clientlib:client.obj
 0002:00279638       ??_C@_0BN@IKPBBPKC@reading?5authorization?5packet?$AA@ 00000001802d9638     clientlib:client.obj
 0002:00279658       ??_C@_0CC@FOKDGKNL@reading?5final?5connect?5informatio@ 00000001802d9658     clientlib:client.obj
 0002:00279680       ??_C@_0N@DNPGGICH@_client_name?$AA@ 00000001802d9680     clientlib:client.obj
 0002:00279690       ??_C@_03KEMJJDP@_os?$AA@   00000001802d9690     clientlib:client.obj
 0002:00279698       ??_C@_09GMOOPIIH@_platform?$AA@ 00000001802d9698     clientlib:client.obj
 0002:002796a4       ??_C@_04KODGKOGI@_pid?$AA@ 00000001802d96a4     clientlib:client.obj
 0002:002796b0       ??_C@_07CNDFADNJ@_thread?$AA@ 00000001802d96b0     clientlib:client.obj
 0002:002796b8       ??_C@_0BA@HMBCEIIC@_client_version?$AA@ 00000001802d96b8     clientlib:client.obj
 0002:002796c8       ??_C@_08NFHFMIDJ@libmysql?$AA@ 00000001802d96c8     clientlib:client.obj
 0002:002796d4       ??_C@_06HLNHFAHK@10?41?48?$AA@ 00000001802d96d4     clientlib:client.obj
 0002:002796dc       ??_C@_05NLDAPMKH@Win32?$AA@ 00000001802d96dc     clientlib:client.obj
 0002:002796e4       ??_C@_03NDFEINMN@x86?$AA@  00000001802d96e4     clientlib:client.obj
 0002:002796e8       ??_C@_03FKNCMABI@?$CFlu?$AA@ 00000001802d96e8     clientlib:client.obj
 0002:002796ec       ??_C@_02LOEMLMCB@my?$AA@   00000001802d96ec     clientlib:client.obj
 0002:002796f0       ??_C@_09DPJNFAJ@MYSQL_PWD?$AA@ 00000001802d96f0     clientlib:client.obj
 0002:002796fc       ??_C@_05OBDDCBJC@MySQL?$AA@ 00000001802d96fc     clientlib:client.obj
 0002:00279704       ??_C@_02DPKJAMEF@?$CFd?$AA@ 00000001802d9704     clientlib:client.obj
 0002:00279708       ??_C@_0CJ@GFOPAJCF@waiting?5for?5initial?5communicatio@ 00000001802d9708     clientlib:client.obj
 0002:00279738       ??_C@_0CF@JIJHEKCB@reading?5initial?5communication?5pa@ 00000001802d9738     clientlib:client.obj
 0002:00279760       ??_C@_06IOMIFMFN@5?45?45?9?$AA@ 00000001802d9760     clientlib:client.obj
 0002:00279768       ??_C@_0BJ@EDEHFNCE@Setting?5intital?5database?$AA@ 00000001802d9768     clientlib:client.obj
 0002:00279788       ??_C@_0M@OABNLEKB@mysql_close?$AA@ 00000001802d9788     clientlib:client.obj
 0002:00279798       ??_C@_0N@HAKKOMP@SET?5NAMES?5?$CFs?$AA@ 00000001802d9798     clientlib:client.obj
 0002:002797a8       ??_C@_05OLGEOJNI@mysql?$AA@ 00000001802d97a8     clientlib:libmysql.obj
 0002:002797b0       ??_C@_0P@MHNLJEK@MYSQL_TCP_PORT?$AA@ 00000001802d97b0     clientlib:libmysql.obj
 0002:002797c0       ??_C@_0BA@EFBEJEPG@MYSQL_UNIX_PORT?$AA@ 00000001802d97c0     clientlib:libmysql.obj
 0002:002797d0       ??_C@_04OOEKJIOI@USER?$AA@ 00000001802d97d0     clientlib:libmysql.obj
 0002:002797d8       ??_C@_04FPECENHI@ODBC?$AA@ 00000001802d97d8     clientlib:libmysql.obj
 0002:002797e0       ??_C@_07OBAKJBPA@MariaDB?$AA@ 00000001802d97e0     clientlib:libmysql.obj
 0002:002797e8       ??_C@_07HNGEFGBF@?9maria?9?$AA@ 00000001802d97e8     clientlib:libmysql.obj
 0002:002797f0       ??_C@_0BA@IPELMGNB@10?40?421?9MariaDB?$AA@ 00000001802d97f0     clientlib:libmysql.obj
 0002:00279800       ??_C@_0DD@DBMKLIK@Note?3?5net_clear?$CI?$CJ?5skipped?5?$CFld?5by@ 00000001802d9800     clientlib:net_serv.obj
 0002:00279838       ??_C@_0BE@OOMFAHBF@Unknown?5MySQL?5error?$AA@ 00000001802d9838     clientlib:errmsg.obj
 0002:00279850       ??_C@_0BO@EGFBLII@Can?8t?5create?5UNIX?5socket?5?$CI?$CFd?$CJ?$AA@ 00000001802d9850     clientlib:errmsg.obj
 0002:00279870       ??_C@_0EC@GFEOOMHB@Can?8t?5connect?5to?5local?5MySQL?5ser@ 00000001802d9870     clientlib:errmsg.obj
 0002:002798b8       ??_C@_0DA@DEPCMPEH@Can?8t?5connect?5to?5MySQL?5server?5on@ 00000001802d98b8     clientlib:errmsg.obj
 0002:002798e8       ??_C@_0CA@OKAILLEM@Can?8t?5create?5TCP?1IP?5socket?5?$CI?$CFM?$CJ?$AA@ 00000001802d98e8     clientlib:errmsg.obj
 0002:00279908       ??_C@_0CJ@MGNDPAC@Unknown?5MySQL?5server?5host?5?8?$CF?9?410@ 00000001802d9908     clientlib:errmsg.obj
 0002:00279938       ??_C@_0DM@BHKAADIN@Protocol?5mismatch?$DL?5server?5versio@ 00000001802d9938     clientlib:errmsg.obj
 0002:00279978       ??_C@_0BP@LPGLBKOF@MySQL?5client?5ran?5out?5of?5memory?$AA@ 00000001802d9978     clientlib:errmsg.obj
 0002:00279998       ??_C@_0BA@OBGODAJN@Wrong?5host?5info?$AA@ 00000001802d9998     clientlib:errmsg.obj
 0002:002799a8       ??_C@_0BK@OAJGGGIC@Localhost?5via?5UNIX?5socket?$AA@ 00000001802d99a8     clientlib:errmsg.obj
 0002:002799c8       ??_C@_0BD@JHCOEEJ@?$CF?9?4100s?5via?5TCP?1IP?$AA@ 00000001802d99c8     clientlib:errmsg.obj
 0002:002799e0       ??_C@_0BK@OPFAEJOB@Error?5in?5server?5handshake?$AA@ 00000001802d99e0     clientlib:errmsg.obj
 0002:00279a00       ??_C@_0CN@MCPHLMHK@Lost?5connection?5to?5MySQL?5server?5@ 00000001802d9a00     clientlib:errmsg.obj
 0002:00279a30       ??_C@_0DF@GGAOFKDM@Commands?5out?5of?5sync?$DL?5you?5can?8t?5@ 00000001802d9a30     clientlib:errmsg.obj
 0002:00279a68       ??_C@_0BD@MONBAMLI@Named?5pipe?3?5?$CF?9?432s?$AA@ 00000001802d9a68     clientlib:errmsg.obj
 0002:00279a80       ??_C@_0DO@MCIKAJJD@Can?8t?5wait?5for?5named?5pipe?5to?5hos@ 00000001802d9a80     clientlib:errmsg.obj
 0002:00279ac0       ??_C@_0DK@DGFLNGLM@Can?8t?5open?5named?5pipe?5to?5host?3?5?$CF@ 00000001802d9ac0     clientlib:errmsg.obj
 0002:00279b00       ??_C@_0EC@JBHOMNCI@Can?8t?5set?5state?5of?5named?5pipe?5to@ 00000001802d9b00     clientlib:errmsg.obj
 0002:00279b48       ??_C@_0DG@MMIKLOLE@Can?8t?5initialize?5character?5set?5?$CF@ 00000001802d9b48     clientlib:errmsg.obj
 0002:00279b80       ??_C@_0DC@PLGHDHHE@Got?5packet?5bigger?5than?5?8max_allo@ 00000001802d9b80     clientlib:errmsg.obj
 0002:00279bb8       ??_C@_0BA@JILIEPGI@Embedded?5server?$AA@ 00000001802d9bb8     clientlib:errmsg.obj
 0002:00279bc8       ??_C@_0BM@KEKCHGPI@Error?5on?5SHOW?5SLAVE?5STATUS?3?$AA@ 00000001802d9bc8     clientlib:errmsg.obj
 0002:00279be8       ??_C@_0BL@BDOEBOAG@Error?5on?5SHOW?5SLAVE?5HOSTS?3?$AA@ 00000001802d9be8     clientlib:errmsg.obj
 0002:00279c08       ??_C@_0BL@NMFPGPDF@Error?5connecting?5to?5slave?3?$AA@ 00000001802d9c08     clientlib:errmsg.obj
 0002:00279c28       ??_C@_0BM@DBHHCLGE@Error?5connecting?5to?5master?3?$AA@ 00000001802d9c28     clientlib:errmsg.obj
 0002:00279c48       ??_C@_0BO@ICLKKNEL@SSL?5connection?5error?3?5?$CF?9?4100s?$AA@ 00000001802d9c48     clientlib:errmsg.obj
 0002:00279c68       ??_C@_0BB@DAKKIOKN@Malformed?5packet?$AA@ 00000001802d9c68     clientlib:errmsg.obj
 0002:00279c80       ??_C@_0FE@HLHPGJMI@This?5client?5library?5is?5licensed?5@ 00000001802d9c80     clientlib:errmsg.obj
 0002:00279cd8       ??_C@_0BM@EEGCMMPG@Invalid?5use?5of?5null?5pointer?$AA@ 00000001802d9cd8     clientlib:errmsg.obj
 0002:00279cf8       ??_C@_0BH@OCBFPEOC@Statement?5not?5prepared?$AA@ 00000001802d9cf8     clientlib:errmsg.obj
 0002:00279d10       ??_C@_0DG@PGNJOEPP@No?5data?5supplied?5for?5parameters?5@ 00000001802d9d10     clientlib:errmsg.obj
 0002:00279d48       ??_C@_0P@KJHDOAKM@Data?5truncated?$AA@ 00000001802d9d48     clientlib:errmsg.obj
 0002:00279d58       ??_C@_0CF@OAFCOHEP@No?5parameters?5exist?5in?5the?5state@ 00000001802d9d58     clientlib:errmsg.obj
 0002:00279d80       ??_C@_0BJ@LEKCEENG@Invalid?5parameter?5number?$AA@ 00000001802d9d80     clientlib:errmsg.obj
 0002:00279da0       ??_C@_0EK@GGAINION@Can?8t?5send?5long?5data?5for?5non?9str@ 00000001802d9da0     clientlib:errmsg.obj
 0002:00279df0       ??_C@_0DD@HBOCKDGH@Using?5unsupported?5buffer?5type?3?5?$CF@ 00000001802d9df0     clientlib:errmsg.obj
 0002:00279e28       ??_C@_0BH@OHMIMHCN@Shared?5memory?3?5?$CF?9?4100s?$AA@ 00000001802d9e28     clientlib:errmsg.obj
 0002:00279e40       ??_C@_0EG@BEPMLGLN@Can?8t?5open?5shared?5memory?$DL?5client@ 00000001802d9e40     clientlib:errmsg.obj
 0002:00279e90       ??_C@_0EF@KIGDFHBB@Can?8t?5open?5shared?5memory?$DL?5no?5ans@ 00000001802d9e90     clientlib:errmsg.obj
 0002:00279ee0       ??_C@_0EH@KCLOIILK@Can?8t?5open?5shared?5memory?$DL?5server@ 00000001802d9ee0     clientlib:errmsg.obj
 0002:00279f30       ??_C@_0EN@PMIKFHIB@Can?8t?5open?5shared?5memory?$DL?5server@ 00000001802d9f30     clientlib:errmsg.obj
 0002:00279f80       ??_C@_0EH@LNAOKCEE@Can?8t?5open?5shared?5memory?$DL?5client@ 00000001802d9f80     clientlib:errmsg.obj
 0002:00279fd0       ??_C@_0EN@FCGLLCJK@Can?8t?5open?5shared?5memory?$DL?5client@ 00000001802d9fd0     clientlib:errmsg.obj
 0002:0027a020       ??_C@_0EB@MDFKCBGN@Can?8t?5open?5shared?5memory?$DL?5client@ 00000001802da020     clientlib:errmsg.obj
 0002:0027a068       ??_C@_0DG@KGBHPOJD@Can?8t?5open?5shared?5memory?$DL?5no?5ans@ 00000001802da068     clientlib:errmsg.obj
 0002:0027a0a0       ??_C@_0EE@IPCCLOKB@Can?8t?5open?5shared?5memory?$DL?5cannot@ 00000001802da0a0     clientlib:errmsg.obj
 0002:0027a0e8       ??_C@_0BK@GLFMEDLO@Wrong?5or?5unknown?5protocol?$AA@ 00000001802da0e8     clientlib:errmsg.obj
 0002:0027a108       ??_C@_0BK@JMIMHFDF@Invalid?5connection?5handle?$AA@ 00000001802da108     clientlib:errmsg.obj
 0002:0027a130       ??_C@_0GH@LCEGFGKM@Connection?5using?5old?5?$CIpre?94?41?41?$CJ@ 00000001802da130     clientlib:errmsg.obj
 0002:0027a198       ??_C@_0DG@NCJJHECB@Row?5retrieval?5was?5canceled?5by?5my@ 00000001802da198     clientlib:errmsg.obj
 0002:0027a1d0       ??_C@_0CP@CONJDJBD@Attempt?5to?5read?5column?5without?5p@ 00000001802da1d0     clientlib:errmsg.obj
 0002:0027a200       ??_C@_0CI@HALOFLAE@Prepared?5statement?5contains?5no?5m@ 00000001802da200     clientlib:errmsg.obj
 0002:0027a230       ??_C@_0FB@FBBFBAHN@Attempt?5to?5read?5a?5row?5while?5ther@ 00000001802da230     clientlib:errmsg.obj
 0002:0027a288       ??_C@_0CE@HBOGEKGA@This?5feature?5is?5not?5implemented?5@ 00000001802da288     clientlib:errmsg.obj
 0002:0027a2b0       ??_C@_0DK@JHJECGDD@Lost?5connection?5to?5MySQL?5server?5@ 00000001802da2b0     clientlib:errmsg.obj
 0002:0027a2f0       ??_C@_0DN@NBJINGFN@Statement?5closed?5indirectly?5beca@ 00000001802da2f0     clientlib:errmsg.obj
 0002:0027a330       ??_C@_0KP@MJIINCCO@The?5number?5of?5columns?5in?5the?5res@ 00000001802da330     clientlib:errmsg.obj
 0002:0027a3e0       ??_C@_0EN@HIKCGKBN@This?5handle?5is?5already?5connected@ 00000001802da3e0     clientlib:errmsg.obj
 0002:0027a430       ??_C@_0DA@MILELEOJ@Authentication?5plugin?5?8?$CFs?8?5canno@ 00000001802da430     clientlib:errmsg.obj
 0002:0027a460       ??_C@_0DB@BHEGEKHK@There?5is?5an?5attribute?5with?5the?5s@ 00000001802da460     clientlib:errmsg.obj
 0002:0027a498       ??_C@_0CO@JJLOOKDN@Authentication?5plugin?5?8?$CFs?8?5repor@ 00000001802da498     clientlib:errmsg.obj
 0002:0027a4c8       ??_C@_0BA@CJBGKJNL@not?5initialized?$AA@ 00000001802da4c8     clientlib:client_plugin.obj
 0002:0027a4d8       ??_C@_0BL@FEFIKLHP@Unknown?5client?5plugin?5type?$AA@ 00000001802da4d8     clientlib:client_plugin.obj
 0002:0027a4f8       ??_C@_0CF@JODNOECG@Incompatible?5client?5plugin?5inter@ 00000001802da4f8     clientlib:client_plugin.obj
 0002:0027a520       ??_C@_0O@NALGGDJF@Out?5of?5memory?$AA@ 00000001802da520     clientlib:client_plugin.obj
 0002:0027a530       ??_C@_0BB@KBEBCALB@LIBMYSQL_PLUGINS?$AA@ 00000001802da530     clientlib:client_plugin.obj
 0002:0027a548       ??_C@_0BF@MODDIKNK@it?5is?5already?5loaded?$AA@ 00000001802da548     clientlib:client_plugin.obj
 0002:0027a560       ??_C@_04HLONOPDM@?4dll?$AA@ 00000001802da560     clientlib:client_plugin.obj
 0002:0027a568       ??_C@_01KMDKNFGN@?1?$AA@   00000001802da568     clientlib:client_plugin.obj
 0002:0027a570       ??_C@_0BK@BOMCACEB@C?3?1MariaDB10?40?1lib?1plugin?$AA@ 00000001802da570     clientlib:client_plugin.obj
 0002:0027a590       ??_C@_0CC@HKEJDDGJ@_mysql_client_plugin_declaration@ 00000001802da590     clientlib:client_plugin.obj
 0002:0027a5b8       ??_C@_0N@FFHFEAHD@not?5a?5plugin?$AA@ 00000001802da5b8     clientlib:client_plugin.obj
 0002:0027a5c8       ??_C@_0O@GKKICOF@type?5mismatch?$AA@ 00000001802da5c8     clientlib:client_plugin.obj
 0002:0027a5d8       ??_C@_0O@MOJMPNLH@name?5mismatch?$AA@ 00000001802da5d8     clientlib:client_plugin.obj
 0002:0027a5e8       ??_C@_0BB@BIKLJNJD@Unknown?5error?5?$CFd?$AA@ 00000001802da5e8     mysys:my_error.obj
 0002:0027a5fc       ??_C@_04JKLLLNMI@ucs2?$AA@ 00000001802da5fc     mysys:charset.obj
 0002:0027a608       ??_C@_07FPMCABPK@utf8mb3?$AA@ 00000001802da608     mysys:charset.obj
 0002:0027a610       ??_C@_07BAIDJHDN@utf8mb4?$AA@ 00000001802da610     mysys:charset.obj
 0002:0027a618       ??_C@_0BO@KEFABCDO@Error?5while?5parsing?5?8?$CFs?8?3?5?$CFs?6?$AA@ 00000001802da618     mysys:charset.obj
 0002:0027a638       ??_C@_05KGKMKOAF@share?$AA@ 00000001802da638     mysys:charset.obj
 0002:0027a640       ??_C@_0P@EMMFBOOJ@C?3?1MariaDB10?40?$AA@ 00000001802da640     mysys:charset.obj
 0002:0027a650       ??_C@_09NKDKDEJM@charsets?1?$AA@ 00000001802da650     mysys:charset.obj
 0002:0027a660       ??_C@_09NJBIMGLE@Index?4xml?$AA@ 00000001802da660     mysys:charset.obj
 0002:0027a670       ??_C@_08GABEJIJI@utf8mb3_?$AA@ 00000001802da670     mysys:charset.obj
 0002:0027a680       ??_C@_07IAEMOFJA@utf8_?$CFs?$AA@ 00000001802da680     mysys:charset.obj
 0002:0027a688       ??_C@_04GAOAGNCM@?4xml?$AA@ 00000001802da688     mysys:charset.obj
 0002:0027a690       ??_C@_02GFBACKGC@cp?$AA@   00000001802da690     mysys:charset.obj
 0002:0027a694       ??_C@_03MCADLMAF@off?$AA@  00000001802da694     mysys:typelib.obj
 0002:0027a698       ??_C@_02LIELOMNJ@on?$AA@   00000001802da698     mysys:typelib.obj
 0002:0027a6a0       ??_C@_07DLHCIBDH@default?$AA@ 00000001802da6a0     mysys:typelib.obj
 0002:0027a6a8       ??_C@_0BH@LNNDAPME@?9?9?9?9args?9separator?9?9?9?9?$AA@ 00000001802da6a8     mysys:my_default.obj
 0002:0027a6c0       ??_C@_04PHHEBHMK@?4ini?$AA@ 00000001802da6c0     mysys:my_default.obj
 0002:0027a6c8       ??_C@_04BPFBOLGB@?4cnf?$AA@ 00000001802da6c8     mysys:my_default.obj
 0002:0027a6d0       ??_C@_0BJ@KJAIFGLA@DEFAULT_GROUP_SUFFIX_ENV?$AA@ 00000001802da6d0     mysys:my_default.obj
 0002:0027a6f0       ??_C@_0CL@DPGKONAJ@Could?5not?5open?5required?5defaults@ 00000001802da6f0     mysys:my_default.obj
 0002:0027a720       ??_C@_0DD@BMIFLCG@Fatal?5error?5in?5defaults?5handling@ 00000001802da720     mysys:my_default.obj
 0002:0027a758       ??_C@_0BB@LDHKPEKC@?9?9defaults?9file?$DN?$AA@ 00000001802da758     mysys:my_default.obj
 0002:0027a770       ??_C@_0BH@HNKMCPPG@?9?9defaults?9extra?9file?$DN?$AA@ 00000001802da770     mysys:my_default.obj
 0002:0027a788       ??_C@_0BJ@KIKAGLAC@?9?9defaults?9group?9suffix?$DN?$AA@ 00000001802da788     mysys:my_default.obj
 0002:0027a7a8       ??_C@_0O@LNAGOGFC@?9?9no?9defaults?$AA@ 00000001802da7a8     mysys:my_default.obj
 0002:0027a7b8       ??_C@_08LMJEPNLL@defaults?$AA@ 00000001802da7b8     mysys:my_default.obj
 0002:0027a7c8       ??_C@_0BB@BKNLJB@?9?9print?9defaults?$AA@ 00000001802da7c8     mysys:my_default.obj
 0002:0027a7e0       ??_C@_0DK@MHCNAEBD@?$CFs?5would?5have?5been?5started?5with?5@ 00000001802da7e0     mysys:my_default.obj
 0002:0027a81c       ??_C@_03IKGEINEE@?$CFs?5?$AA@ 00000001802da81c     mysys:my_default.obj
 0002:0027a820       ??_C@_0DM@LOBIDFGL@error?3?5Wrong?5?8?$CB?$CFs?8?5directive?5in?5@ 00000001802da820     mysys:my_default.obj
 0002:0027a860       ??_C@_0GG@GBLJMDFL@Warning?3?5skipping?5?8?$CFs?8?5directive@ 00000001802da860     mysys:my_default.obj
 0002:0027a8c8       ??_C@_0DN@MBLPBICC@error?3?5Wrong?5group?5definition?5in@ 00000001802da8c8     mysys:my_default.obj
 0002:0027a910       ??_C@_0EM@DMHOPFHM@error?3?5Found?5option?5without?5prec@ 00000001802da910     mysys:my_default.obj
 0002:0027a95c       ??_C@_02BAABKJLB@?9?9?$AA@ 00000001802da95c     mysys:my_default.obj
 0002:0027a960       ??_C@_0BL@CAKPALPI@GetSystemWindowsDirectoryA?$AA@ 00000001802da960     mysys:my_default.obj
 0002:0027a980       ??_C@_0N@MDJJJHMB@kernel32?4dll?$AA@ 00000001802da980     mysys:my_default.obj
 0002:0027a990       ??_C@_09FJGNFLHN@?2System32?$AA@ 00000001802da990     mysys:my_default.obj
 0002:0027a99c       ??_C@_03GMPKIPBL@C?3?1?$AA@ 00000001802da99c     mysys:my_default.obj
 0002:0027a9a0       ??_C@_0L@DODNGCIN@MYSQL_HOME?$AA@ 00000001802da9a0     mysys:my_default.obj
 0002:0027a9ac       ??_C@_05OMMCGCJP@UMASK?$AA@ 00000001802da9ac     mysys:my_init.obj
 0002:0027a9b8       ??_C@_09KHPDOLMK@UMASK_DIR?$AA@ 00000001802da9b8     mysys:my_init.obj
 0002:0027a9c4       ??_C@_04GHGFPGNC@HOME?$AA@ 00000001802da9c4     mysys:my_init.obj
 0002:0027a9d0       ??_C@_0P@NEKPODBM@SOFTWARE?2MySQL?$AA@ 00000001802da9d0     mysys:my_init.obj
 0002:0027a9e0       ??_C@_01NEMOKFLO@?$DN?$AA@ 00000001802da9e0     mysys:my_init.obj
 0002:0027a9e8       ??_C@_0DD@IKBMIFKO@SYSTEM?2CurrentControlSet?2Service@ 00000001802da9e8     mysys:my_init.obj
 0002:0027aa20       ??_C@_0DG@NPLBFMIJ@SYSTEM?2CurrentControlSet?2Service@ 00000001802daa20     mysys:my_init.obj
 0002:0027aa58       ??_C@_0DF@KNCKAEOE@SYSTEM?2CurrentControlSet?2Service@ 00000001802daa58     mysys:my_init.obj
 0002:0027aa90       ??_C@_0L@LKJCDLMN@HAVE_TCPIP?$AA@ 00000001802daa90     mysys:my_init.obj
 0002:0027aaa0       ??_C@_0CE@CLEEBIJB@Can?8t?5initialize?5threads?3?5error?5@ 00000001802daaa0     mysys:my_thr_init.obj
 0002:0027aac8       ??_C@_0CO@NAJMDCLL@Can?8t?5create?1write?5to?5file?5?8?$CFs?8?5@ 00000001802daac8     mysys:errors.obj
 0002:0027aaf8       ??_C@_0CG@OJEOAKGD@Error?5reading?5file?5?8?$CFs?8?5?$CIErrcode@ 00000001802daaf8     mysys:errors.obj
 0002:0027ab20       ??_C@_0CG@BBGJJBMA@Error?5writing?5file?5?8?$CFs?8?5?$CIErrcode@ 00000001802dab20     mysys:errors.obj
 0002:0027ab48       ??_C@_0CF@CDKNDGNI@Error?5on?5close?5of?5?8?$CFs?8?5?$CIErrcode?3@ 00000001802dab48     mysys:errors.obj
 0002:0027ab70       ??_C@_0CA@NLHLMAKD@Out?5of?5memory?5?$CINeeded?5?$CFu?5bytes?$CJ?$AA@ 00000001802dab70     mysys:errors.obj
 0002:0027ab90       ??_C@_0CG@IIDAIELA@Error?5on?5delete?5of?5?8?$CFs?8?5?$CIErrcode@ 00000001802dab90     mysys:errors.obj
 0002:0027abb8       ??_C@_0CO@OEBGIJGA@Error?5on?5rename?5of?5?8?$CFs?8?5to?5?8?$CFs?8?5@ 00000001802dabb8     mysys:errors.obj
 0002:0027abf0       ??_C@_0EC@MDKDLONC@Unexpected?5end?9of?9file?5found?5whe@ 00000001802dabf0     mysys:errors.obj
 0002:0027ac38       ??_C@_0BO@GHIOCBKP@Can?8t?5lock?5file?5?$CIErrcode?3?5?$CFM?$CJ?$AA@ 00000001802dac38     mysys:errors.obj
 0002:0027ac58       ??_C@_0CA@OLLKJFEG@Can?8t?5unlock?5file?5?$CIErrcode?3?5?$CFM?$CJ?$AA@ 00000001802dac58     mysys:errors.obj
 0002:0027ac78       ??_C@_0CF@NDJMPOF@Can?8t?5read?5dir?5of?5?8?$CFs?8?5?$CIErrcode?3@ 00000001802dac78     mysys:errors.obj
 0002:0027aca0       ??_C@_0CF@HGBBDLLI@Can?8t?5get?5stat?5of?5?8?$CFs?8?5?$CIErrcode?3@ 00000001802daca0     mysys:errors.obj
 0002:0027acc8       ??_C@_0CI@KAGPGEGA@Can?8t?5change?5size?5of?5file?5?$CIErrco@ 00000001802dacc8     mysys:errors.obj
 0002:0027acf0       ??_C@_0CM@LEHHDIFB@Can?8t?5open?5stream?5from?5handle?5?$CIE@ 00000001802dacf0     mysys:errors.obj
 0002:0027ad20       ??_C@_0CK@MCGECMEC@Can?8t?5get?5working?5directory?5?$CIErr@ 00000001802dad20     mysys:errors.obj
 0002:0027ad50       ??_C@_0CH@ENGOPFDH@Can?8t?5change?5dir?5to?5?8?$CFs?8?5?$CIErrcod@ 00000001802dad50     mysys:errors.obj
 0002:0027ad78       ??_C@_0BL@KPAFHPFA@Warning?3?5?8?$CFs?8?5had?5?$CFd?5links?$AA@ 00000001802dad78     mysys:errors.obj
 0002:0027ad98       ??_C@_0CP@OFJOGNNM@Warning?3?5?$CFd?5files?5and?5?$CFd?5streams@ 00000001802dad98     mysys:errors.obj
 0002:0027add0       ??_C@_0JL@FIEOJBFP@Disk?5is?5full?5writing?5?8?$CFs?8?5?$CIErrco@ 00000001802dadd0     mysys:errors.obj
 0002:0027ae70       ??_C@_0CK@JHHNEGNF@Can?8t?5create?5directory?5?8?$CFs?8?5?$CIErr@ 00000001802dae70     mysys:errors.obj
 0002:0027aea0       ??_C@_0FJ@LJEFGFHC@Character?5set?5?8?$CFs?8?5is?5not?5a?5comp@ 00000001802daea0     mysys:errors.obj
 0002:0027af00       ??_C@_0DG@ECAODLAA@Out?5of?5resources?5when?5opening?5fi@ 00000001802daf00     mysys:errors.obj
 0002:0027af38       ??_C@_0DA@PBCMEOGM@Can?8t?5read?5value?5for?5symlink?5?8?$CFs@ 00000001802daf38     mysys:errors.obj
 0002:0027af68       ??_C@_0DJ@GBBBNFCL@Can?8t?5create?5symlink?5?8?$CFs?8?5pointi@ 00000001802daf68     mysys:errors.obj
 0002:0027afa8       ??_C@_0CK@JOFCLBGF@Error?5on?5realpath?$CI?$CJ?5on?5?8?$CFs?8?5?$CIErr@ 00000001802dafa8     mysys:errors.obj
 0002:0027afd8       ??_C@_0CL@LIGGEHPN@Can?8t?5sync?5file?5?8?$CFs?8?5to?5disk?5?$CIEr@ 00000001802dafd8     mysys:errors.obj
 0002:0027b010       ??_C@_0FB@HBKGDBGI@Collation?5?8?$CFs?8?5is?5not?5a?5compiled@ 00000001802db010     mysys:errors.obj
 0002:0027b068       ??_C@_0CC@MJBEGLHB@File?5?8?$CFs?8?5not?5found?5?$CIErrcode?3?5?$CFM@ 00000001802db068     mysys:errors.obj
 0002:0027b090       ??_C@_0CG@OCCIMCJO@File?5?8?$CFs?8?5?$CIfileno?3?5?$CFd?$CJ?5was?5not?5c@ 00000001802db090     mysys:errors.obj
 0002:0027b0b8       ??_C@_0DG@IAEOMKFN@Can?8t?5change?5ownership?5of?5the?5fi@ 00000001802db0b8     mysys:errors.obj
 0002:0027b0f0       ??_C@_0DI@KHCHNCIC@Can?8t?5change?5permissions?5of?5the?5@ 00000001802db0f0     mysys:errors.obj
 0002:0027b128       ??_C@_0CG@ELMFGIME@Can?8t?5seek?5in?5file?5?8?$CFs?8?5?$CIErrcode@ 00000001802db128     mysys:errors.obj
 0002:0027b150       ??_C@_0DH@GIKLGBDN@Can?8t?5change?5mode?5for?5file?5?8?$CFs?8?5@ 00000001802db150     mysys:errors.obj
 0002:0027b188       ??_C@_0DK@MLKEIMEO@Warning?3?5Can?8t?5copy?5ownership?5fo@ 00000001802db188     mysys:errors.obj
 0002:0027b1c4       ??_C@_02DJGKEECL@?4?4?$AA@ 00000001802db1c4     mysys:mf_pack.obj
 0002:0027b1c8       ??_C@_04LFNFNAMA@?4sym?$AA@ 00000001802db1c8     mysys:mf_pack.obj
 0002:0027b1d0       ??_C@_02LMMGGCAJ@?3?5?$AA@ 00000001802db1d0     mysys:my_mess.obj
 0002:0027b1d8       ??_C@_08PNLNEKOB@kernel32?$AA@ 00000001802db1d8     mysys:my_wincond.obj
 0002:0027b1e8       ??_C@_0BM@HLJJNPAH@InitializeConditionVariable?$AA@ 00000001802db1e8     mysys:my_wincond.obj
 0002:0027b208       ??_C@_0BJ@JEBJOJFJ@SleepConditionVariableCS?$AA@ 00000001802db208     mysys:my_wincond.obj
 0002:0027b228       ??_C@_0BJ@PGPPEPCC@WakeAllConditionVariable?$AA@ 00000001802db228     mysys:my_wincond.obj
 0002:0027b248       ??_C@_0BG@BFNILBLN@WakeConditionVariable?$AA@ 00000001802db248     mysys:my_wincond.obj
 0002:0027b260       ??_C@_07NFANNNEC@UNKNOWN?$AA@ 00000001802db260     mysys:my_div.obj
 0002:0027b268       ??_C@_08KKHFAPMN@UNOPENED?$AA@ 00000001802db268     mysys:my_div.obj
 0002:0027b274       ??_C@_06LBMPDOLO@CLOCK$?$AA@ 00000001802db274     mysys:my_access.obj
 0002:0027b27c       ??_C@_03ECCGHPEG@CON?$AA@  00000001802db27c     mysys:my_access.obj
 0002:0027b280       ??_C@_03BEHELHBE@PRN?$AA@  00000001802db280     mysys:my_access.obj
 0002:0027b284       ??_C@_03OFAGCELM@AUX?$AA@  00000001802db284     mysys:my_access.obj
 0002:0027b288       ??_C@_03JDMLODLP@NUL?$AA@  00000001802db288     mysys:my_access.obj
 0002:0027b28c       ??_C@_04FLOGHLDB@COM1?$AA@ 00000001802db28c     mysys:my_access.obj
 0002:0027b294       ??_C@_04HAMLCIPC@COM2?$AA@ 00000001802db294     mysys:my_access.obj
 0002:0027b29c       ??_C@_04GJNABJLD@COM3?$AA@ 00000001802db29c     mysys:my_access.obj
 0002:0027b2a4       ??_C@_04CGJBIPHE@COM4?$AA@ 00000001802db2a4     mysys:my_access.obj
 0002:0027b2ac       ??_C@_04DPIKLODF@COM5?$AA@ 00000001802db2ac     mysys:my_access.obj
 0002:0027b2b4       ??_C@_04BEKHONPG@COM6?$AA@ 00000001802db2b4     mysys:my_access.obj
 0002:0027b2bc       ??_C@_04NLMNMLH@COM7?$AA@  00000001802db2bc     mysys:my_access.obj
 0002:0027b2c4       ??_C@_04IKCEMAHI@COM8?$AA@ 00000001802db2c4     mysys:my_access.obj
 0002:0027b2cc       ??_C@_04JDDPPBDJ@COM9?$AA@ 00000001802db2cc     mysys:my_access.obj
 0002:0027b2d4       ??_C@_04MCDLDDNG@LPT1?$AA@ 00000001802db2d4     mysys:my_access.obj
 0002:0027b2dc       ??_C@_04OJBGGABF@LPT2?$AA@ 00000001802db2dc     mysys:my_access.obj
 0002:0027b2e4       ??_C@_04PAANFBFE@LPT3?$AA@ 00000001802db2e4     mysys:my_access.obj
 0002:0027b2ec       ??_C@_04LPEMMHJD@LPT4?$AA@ 00000001802db2ec     mysys:my_access.obj
 0002:0027b2f4       ??_C@_04KGFHPGNC@LPT5?$AA@ 00000001802db2f4     mysys:my_access.obj
 0002:0027b2fc       ??_C@_04INHKKFBB@LPT6?$AA@ 00000001802db2fc     mysys:my_access.obj
 0002:0027b304       ??_C@_04JEGBJEFA@LPT7?$AA@ 00000001802db304     mysys:my_access.obj
 0002:0027b30c       ??_C@_04BDPJIIJP@LPT8?$AA@ 00000001802db30c     mysys:my_access.obj
 0002:0027b314       ??_C@_04KOCLJNO@LPT9?$AA@  00000001802db314     mysys:my_access.obj
 0002:0027b320       ??_7SHA@TaoCrypt@@6B@      00000001802db320     mysys_ssl:my_sha1.obj
 0002:0027b368       ??_7HASH@TaoCrypt@@6B@     00000001802db368     mysys_ssl:my_sha1.obj
 0002:0027b398       ??_C@_0CC@EONJPGAD@Didn?8t?5find?5key?5on?5read?5or?5updat@ 00000001802db398     strings:my_vsnprintf.obj
 0002:0027b3c0       ??_C@_0CB@FDEKHDNM@Duplicate?5key?5on?5write?5or?5update@ 00000001802db3c0     strings:my_vsnprintf.obj
 0002:0027b3e8       ??_C@_0CI@JHDLHNAA@Internal?5?$CIunspecified?$CJ?5error?5in?5@ 00000001802db3e8     strings:my_vsnprintf.obj
 0002:0027b410       ??_C@_0FJ@EHFKHDHG@Someone?5has?5changed?5the?5row?5sinc@ 00000001802db410     strings:my_vsnprintf.obj
 0002:0027b470       ??_C@_0BO@OMLKPILC@Wrong?5index?5given?5to?5function?$AA@ 00000001802db470     strings:my_vsnprintf.obj
 0002:0027b490       ??_C@_0BM@JABHKNBA@Undefined?5handler?5error?5125?$AA@ 00000001802db490     strings:my_vsnprintf.obj
 0002:0027b4b0       ??_C@_0BG@OJHJBJBI@Index?5file?5is?5crashed?$AA@ 00000001802db4b0     strings:my_vsnprintf.obj
 0002:0027b4c8       ??_C@_0BH@EGCGGHJC@Record?5file?5is?5crashed?$AA@ 00000001802db4c8     strings:my_vsnprintf.obj
 0002:0027b4e0       ??_C@_0BI@ODAANNNA@Out?5of?5memory?5in?5engine?$AA@ 00000001802db4e0     strings:my_vsnprintf.obj
 0002:0027b4f8       ??_C@_0BM@DMKCOCBM@Undefined?5handler?5error?5129?$AA@ 00000001802db4f8     strings:my_vsnprintf.obj
 0002:0027b518       ??_C@_0BG@JGAKDFKJ@Incorrect?5file?5format?$AA@ 00000001802db518     strings:my_vsnprintf.obj
 0002:0027b530       ??_C@_0CC@BCOGGOLB@Command?5not?5supported?5by?5databas@ 00000001802db530     strings:my_vsnprintf.obj
 0002:0027b558       ??_C@_0BC@MMLAPCIO@Old?5database?5file?$AA@ 00000001802db558     strings:my_vsnprintf.obj
 0002:0027b570       ??_C@_0BN@EFOMOGKG@No?5record?5read?5before?5update?$AA@ 00000001802db570     strings:my_vsnprintf.obj
 0002:0027b590       ??_C@_0DE@FDBLBNCJ@Record?5was?5already?5deleted?5?$CIor?5r@ 00000001802db590     strings:my_vsnprintf.obj
 0002:0027b5c8       ??_C@_0BM@OJCJPNLF@No?5more?5room?5in?5record?5file?$AA@ 00000001802db5c8     strings:my_vsnprintf.obj
 0002:0027b5e8       ??_C@_0BL@JPHGAPIB@No?5more?5room?5in?5index?5file?$AA@ 00000001802db5e8     strings:my_vsnprintf.obj
 0002:0027b608       ??_C@_0CJ@KBMIJOIF@No?5more?5records?5?$CIread?5after?5end?5@ 00000001802db608     strings:my_vsnprintf.obj
 0002:0027b638       ??_C@_0CF@MOONHCFE@Unsupported?5extension?5used?5for?5t@ 00000001802db638     strings:my_vsnprintf.obj
 0002:0027b660       ??_C@_0M@GAHFFCGO@Too?5big?5row?$AA@ 00000001802db660     strings:my_vsnprintf.obj
 0002:0027b670       ??_C@_0BF@DICJCGLF@Wrong?5create?5options?$AA@ 00000001802db670     strings:my_vsnprintf.obj
 0002:0027b688       ??_C@_0DG@FHMCBFNG@Duplicate?5unique?5key?5or?5constrai@ 00000001802db688     strings:my_vsnprintf.obj
 0002:0027b6c0       ??_C@_0CE@BAOCNONB@Unknown?5character?5set?5used?5in?5ta@ 00000001802db6c0     strings:my_vsnprintf.obj
 0002:0027b6e8       ??_C@_0DL@GBBIBEJL@Conflicting?5table?5definitions?5in@ 00000001802db6e8     strings:my_vsnprintf.obj
 0002:0027b728       ??_C@_0CI@BBIBKMOI@Table?5is?5crashed?5and?5last?5repair@ 00000001802db728     strings:my_vsnprintf.obj
 0002:0027b750       ??_C@_0DD@NJJCIEED@Table?5was?5marked?5as?5crashed?5and?5@ 00000001802db750     strings:my_vsnprintf.obj
 0002:0027b788       ??_C@_0CC@HPAKNLIP@Lock?5timed?5out?$DL?5Retry?5transactio@ 00000001802db788     strings:my_vsnprintf.obj
 0002:0027b7b0       ??_C@_0DO@KPOIJCJL@Lock?5table?5is?5full?$DL?5?5Restart?5pro@ 00000001802db7b0     strings:my_vsnprintf.obj
 0002:0027b7f0       ??_C@_0DH@BGOEFNLI@Updates?5are?5not?5allowed?5under?5a?5@ 00000001802db7f0     strings:my_vsnprintf.obj
 0002:0027b828       ??_C@_0CB@JBOJAJK@Lock?5deadlock?$DL?5Retry?5transaction@ 00000001802db828     strings:my_vsnprintf.obj
 0002:0027b850       ??_C@_0CN@HOOKHKGP@Foreign?5key?5constraint?5is?5incorr@ 00000001802db850     strings:my_vsnprintf.obj
 0002:0027b880       ??_C@_0BH@ELFCDMIL@Cannot?5add?5a?5child?5row?$AA@ 00000001802db880     strings:my_vsnprintf.obj
 0002:0027b898       ??_C@_0BL@CFAABPEB@Cannot?5delete?5a?5parent?5row?$AA@ 00000001802db898     strings:my_vsnprintf.obj
 0002:0027b8b8       ??_C@_0BM@PNFJCMBK@No?5savepoint?5with?5that?5name?$AA@ 00000001802db8b8     strings:my_vsnprintf.obj
 0002:0027b8d8       ??_C@_0BK@OCBGKLJH@Non?5unique?5key?5block?5size?$AA@ 00000001802db8d8     strings:my_vsnprintf.obj
 0002:0027b8f8       ??_C@_0CD@FLIKFFFI@The?5table?5does?5not?5exist?5in?5engi@ 00000001802db8f8     strings:my_vsnprintf.obj
 0002:0027b920       ??_C@_0CM@KLAFJIKO@The?5table?5already?5existed?5in?5sto@ 00000001802db920     strings:my_vsnprintf.obj
 0002:0027b950       ??_C@_0CE@FFBEIBH@Could?5not?5connect?5to?5storage?5eng@ 00000001802db950     strings:my_vsnprintf.obj
 0002:0027b978       ??_C@_0DH@ELKLIPFG@Unexpected?5null?5pointer?5found?5wh@ 00000001802db978     strings:my_vsnprintf.obj
 0002:0027b9b0       ??_C@_0CE@NNEPBOKN@The?5table?5changed?5in?5storage?5eng@ 00000001802db9b0     strings:my_vsnprintf.obj
 0002:0027b9d8       ??_C@_0DC@EEIKLMLO@There?8s?5no?5partition?5in?5table?5fo@ 00000001802db9d8     strings:my_vsnprintf.obj
 0002:0027ba10       ??_C@_0CH@JIIMGDGI@Row?9based?5binary?5logging?5of?5row?5@ 00000001802dba10     strings:my_vsnprintf.obj
 0002:0027ba38       ??_C@_0CH@NMKECAAE@Index?5needed?5in?5foreign?5key?5cons@ 00000001802dba38     strings:my_vsnprintf.obj
 0002:0027ba60       ??_C@_0FK@GLMCBJGN@Upholding?5foreign?5key?5constraint@ 00000001802dba60     strings:my_vsnprintf.obj
 0002:0027bac0       ??_C@_0DB@IMPDMODN@Table?5needs?5to?5be?5upgraded?5befor@ 00000001802dbac0     strings:my_vsnprintf.obj
 0002:0027baf8       ??_C@_0BD@LMPCEIEO@Table?5is?5read?5only?$AA@ 00000001802dbaf8     strings:my_vsnprintf.obj
 0002:0027bb10       ??_C@_0CI@BFDKIDJP@Failed?5to?5get?5next?5auto?5incremen@ 00000001802dbb10     strings:my_vsnprintf.obj
 0002:0027bb38       ??_C@_0CH@OHBKCFLG@Failed?5to?5set?5row?5auto?5increment@ 00000001802dbb38     strings:my_vsnprintf.obj
 0002:0027bb60       ??_C@_0CE@KFJKILNP@Unknown?5?$CIgeneric?$CJ?5error?5from?5eng@ 00000001802dbb60     strings:my_vsnprintf.obj
 0002:0027bb88       ??_C@_0DO@FBNMPBJC@Record?5was?5not?5update?4?5Original?5@ 00000001802dbb88     strings:my_vsnprintf.obj
 0002:0027bbc8       ??_C@_0CJ@LMPIIEHJ@It?5is?5not?5possible?5to?5log?5this?5s@ 00000001802dbbc8     strings:my_vsnprintf.obj
 0002:0027bbf8       ??_C@_0DK@HOKGHAOJ@The?5event?5was?5corrupt?0?5leading?5t@ 00000001802dbbf8     strings:my_vsnprintf.obj
 0002:0027bc38       ??_C@_0DL@PHKIKLBO@The?5table?5is?5of?5a?5new?5format?5not@ 00000001802dbc38     strings:my_vsnprintf.obj
 0002:0027bc80       ??_C@_0EC@MAHDFCPJ@The?5event?5could?5not?5be?5processed@ 00000001802dbc80     strings:my_vsnprintf.obj
 0002:0027bcc8       ??_C@_0DD@MJGFINAA@Got?5a?5fatal?5error?5during?5initial@ 00000001802dbcc8     strings:my_vsnprintf.obj
 0002:0027bd00       ??_C@_0CL@EELBNHLL@File?5too?5short?$DL?5Expected?5more?5da@ 00000001802dbd00     strings:my_vsnprintf.obj
 0002:0027bd30       ??_C@_0BO@IDPLLAHA@Read?5page?5with?5wrong?5checksum?$AA@ 00000001802dbd30     strings:my_vsnprintf.obj
 0002:0027bd50       ??_C@_0CI@GPKNPOID@Too?5many?5active?5concurrent?5trans@ 00000001802dbd50     strings:my_vsnprintf.obj
 0002:0027bd78       ??_C@_0CM@PLBNBOGE@Record?5not?5matching?5the?5given?5pa@ 00000001802dbd78     strings:my_vsnprintf.obj
 0002:0027bda8       ??_C@_0CC@FIJNKDJ@Index?5column?5length?5exceeds?5limi@ 00000001802dbda8     strings:my_vsnprintf.obj
 0002:0027bdd0       ??_C@_0BA@EIBOEKEN@Index?5corrupted?$AA@ 00000001802dbdd0     strings:my_vsnprintf.obj
 0002:0027bde0       ??_C@_0BE@JNKODCKF@Undo?5record?5too?5big?$AA@ 00000001802dbde0     strings:my_vsnprintf.obj
 0002:0027bdf8       ??_C@_0BK@NKANPPHM@Invalid?5InnoDB?5FTS?5Doc?5ID?$AA@ 00000001802dbdf8     strings:my_vsnprintf.obj
 0002:0027be18       ??_C@_0CJ@JFKPJEBK@Table?5is?5being?5used?5in?5foreign?5k@ 00000001802dbe18     strings:my_vsnprintf.obj
 0002:0027be48       ??_C@_0BK@FHELAPCG@Tablespace?5already?5exists?$AA@ 00000001802dbe48     strings:my_vsnprintf.obj
 0002:0027be68       ??_C@_0BB@PBNIBCJM@Too?5many?5columns?$AA@ 00000001802dbe68     strings:my_vsnprintf.obj
 0002:0027be80       ??_C@_0BH@CKFIKCIE@Row?5in?5wrong?5partition?$AA@ 00000001802dbe80     strings:my_vsnprintf.obj
 0002:0027be98       ??_C@_0CO@DJBINJAA@Row?5is?5not?5visible?5by?5the?5curren@ 00000001802dbe98     strings:my_vsnprintf.obj
 0002:0027bec8       ??_C@_0DP@KKDDHCIK@Operation?5was?5interrupted?5by?5end@ 00000001802dbec8     strings:my_vsnprintf.obj
 0002:0027bf08       ??_C@_09BFDAEIFK@Disk?5full?$AA@ 00000001802dbf08     strings:my_vsnprintf.obj
 0002:0027bf20       ??_C@_0JP@NHCGIHFD@Incompatible?5key?5or?5row?5definiti@ 00000001802dbf20     strings:my_vsnprintf.obj
 0002:0027bfc0       ??_C@_0DD@MBLPNLPM@Too?5many?5words?5in?5a?5FTS?5phrase?5o@ 00000001802dbfc0     strings:my_vsnprintf.obj
 0002:0027c000       ??_C@_0LL@PNPKJII@Table?5encrypted?5but?5decryption?5f@ 00000001802dc000     strings:my_vsnprintf.obj
 0002:0027c0bc       ??_C@_06OJHGLDPL@?$CInull?$CJ?$AA@ 00000001802dc0bc     strings:my_vsnprintf.obj
 0002:0027c0c8       ??_C@_0CI@GKDBLDCN@Internal?5error?1check?5?$CINot?5system@ 00000001802dc0c8     strings:my_vsnprintf.obj
 0002:0027c0f0       ??_C@_0CG@OAHAIFKB@Internal?5error?5?$DM?50?5?$CINot?5system?5e@ 00000001802dc0f0     strings:my_vsnprintf.obj
 0002:0027c118       ??_C@_0O@BFJCFAAK@unknown?5error?$AA@ 00000001802dc118     strings:my_vsnprintf.obj
 0002:0027c128       ??_C@_06FNFBAEBE@binary?$AA@ 00000001802dc128     strings:ctype-bin.obj
 0002:0027c130       ??_C@_0BC@JEMPBIB@latin1_german2_ci?$AA@ 00000001802dc130     strings:ctype-latin1.obj
 0002:0027c148       ??_C@_0L@BBMDDOEP@latin1_bin?$AA@ 00000001802dc148     strings:ctype-latin1.obj
 0002:0027c154       ??_C@_03KPJEKKJC@EOF?$AA@  00000001802dc154     strings:ctype-uca.obj
 0002:0027c158       ??_C@_05CMECKLGA@Shift?$AA@ 00000001802dc158     strings:ctype-uca.obj
 0002:0027c160       ??_C@_01HNPIGOCE@?$CG?$AA@ 00000001802dc160     strings:ctype-uca.obj
 0002:0027c168       ??_C@_09EDIHJNKH@Character?$AA@ 00000001802dc168     strings:ctype-uca.obj
 0002:0027c178       ??_C@_0P@FJKONHIH@Bracket?5option?$AA@ 00000001802dc178     strings:ctype-uca.obj
 0002:0027c188       ??_C@_01DNKMNLPK@?$HM?$AA@ 00000001802dc188     strings:ctype-uca.obj
 0002:0027c18c       ??_C@_05MBDEGLCK@ERROR?$AA@ 00000001802dc18c     strings:ctype-uca.obj
 0002:0027c198       ??_C@_0N@LPKHDFBN@Syntax?5error?$AA@ 00000001802dc198     strings:ctype-uca.obj
 0002:0027c1a8       ??_C@_0L@JHIJEIOB@?$CFs?5at?5?8?$CFs?8?$AA@ 00000001802dc1a8     strings:ctype-uca.obj
 0002:0027c1b8       ??_C@_0M@IEHHDPGI@?$CFs?5expected?$AA@ 00000001802dc1b8     strings:ctype-uca.obj
 0002:0027c1c8       ??_C@_0P@KCNMLPHK@?$CFs?5is?5too?5long?$AA@ 00000001802dc1c8     strings:ctype-uca.obj
 0002:0027c1d8       ??_C@_0BA@OJPIKOIH@?$FLversion?54?40?40?$FN?$AA@ 00000001802dc1d8     strings:ctype-uca.obj
 0002:0027c1e8       ??_C@_0BA@DFEPPGFD@?$FLversion?55?42?40?$FN?$AA@ 00000001802dc1e8     strings:ctype-uca.obj
 0002:0027c1f8       ??_C@_0BM@BOEOFINH@?$FLshift?9after?9method?5expand?$FN?$AA@ 00000001802dc1f8     strings:ctype-uca.obj
 0002:0027c218       ??_C@_0BM@CMDAPKMK@?$FLshift?9after?9method?5simple?$FN?$AA@ 00000001802dc218     strings:ctype-uca.obj
 0002:0027c238       ??_C@_0BB@HICFFOMO@?$FLbefore?5primary?$FN?$AA@ 00000001802dc238     strings:ctype-uca.obj
 0002:0027c250       ??_C@_0L@PKMNMGJC@?$FLbefore?51?$FN?$AA@ 00000001802dc250     strings:ctype-uca.obj
 0002:0027c260       ??_C@_0BD@INACANOH@?$FLbefore?5secondary?$FN?$AA@ 00000001802dc260     strings:ctype-uca.obj
 0002:0027c278       ??_C@_0L@PIILHIML@?$FLbefore?52?$FN?$AA@ 00000001802dc278     strings:ctype-uca.obj
 0002:0027c288       ??_C@_0BC@ECDKJEFA@?$FLbefore?5tertiary?$FN?$AA@ 00000001802dc288     strings:ctype-uca.obj
 0002:0027c2a0       ??_C@_0L@PJEJBCPM@?$FLbefore?53?$FN?$AA@ 00000001802dc2a0     strings:ctype-uca.obj
 0002:0027c2b0       ??_C@_0BE@DOGMIDBC@?$FLbefore?5quaternary?$FN?$AA@ 00000001802dc2b0     strings:ctype-uca.obj
 0002:0027c2c8       ??_C@_0L@PMAGAEHJ@?$FLbefore?54?$FN?$AA@ 00000001802dc2c8     strings:ctype-uca.obj
 0002:0027c2d8       ??_C@_0BG@DAPMMOGO@?$FLfirst?5non?9ignorable?$FN?$AA@ 00000001802dc2d8     strings:ctype-uca.obj
 0002:0027c2f0       ??_C@_0BF@NFDAIMBI@?$FLlast?5non?9ignorable?$FN?$AA@ 00000001802dc2f0     strings:ctype-uca.obj
 0002:0027c308       ??_C@_0BK@MGGAGDNB@?$FLfirst?5primary?5ignorable?$FN?$AA@ 00000001802dc308     strings:ctype-uca.obj
 0002:0027c328       ??_C@_0BJ@EMAFELIK@?$FLlast?5primary?5ignorable?$FN?$AA@ 00000001802dc328     strings:ctype-uca.obj
 0002:0027c348       ??_C@_0BM@IFOPCNLK@?$FLfirst?5secondary?5ignorable?$FN?$AA@ 00000001802dc348     strings:ctype-uca.obj
 0002:0027c368       ??_C@_0BL@OJBFILLK@?$FLlast?5secondary?5ignorable?$FN?$AA@ 00000001802dc368     strings:ctype-uca.obj
 0002:0027c388       ??_C@_0BL@GAKAKINB@?$FLfirst?5tertiary?5ignorable?$FN?$AA@ 00000001802dc388     strings:ctype-uca.obj
 0002:0027c3a8       ??_C@_0BK@JMJDEFIF@?$FLlast?5tertiary?5ignorable?$FN?$AA@ 00000001802dc3a8     strings:ctype-uca.obj
 0002:0027c3c8       ??_C@_0BB@GLAGMBPD@?$FLfirst?5trailing?$FN?$AA@ 00000001802dc3c8     strings:ctype-uca.obj
 0002:0027c3e0       ??_C@_0BA@GAMJDDAO@?$FLlast?5trailing?$FN?$AA@ 00000001802dc3e0     strings:ctype-uca.obj
 0002:0027c3f0       ??_C@_0BB@GKEJGHJI@?$FLfirst?5variable?$FN?$AA@ 00000001802dc3f0     strings:ctype-uca.obj
 0002:0027c408       ??_C@_0BA@GBIGJFGF@?$FLlast?5variable?$FN?$AA@ 00000001802dc408     strings:ctype-uca.obj
 0002:0027c418       ??_C@_0BB@FOJGJDEG@Logical?5position?$AA@ 00000001802dc418     strings:ctype-uca.obj
 0002:0027c430       ??_C@_09NMFLGKOJ@Expansion?$AA@ 00000001802dc430     strings:ctype-uca.obj
 0002:0027c440       ??_C@_0M@NNMHAAIO@Contraction?$AA@ 00000001802dc440     strings:ctype-uca.obj
 0002:0027c450       ??_C@_0DJ@BGDPKAKO@Can?8t?5reset?5before?5a?5primary?5ign@ 00000001802dc450     strings:ctype-uca.obj
 0002:0027c48c       ??_C@_02HAOIJKIC@?$CFc?$AA@ 00000001802dc48c     strings:ctype-uca.obj
 0002:0027c490       ??_C@_06HFADPNPF@?2u?$CF04X?$AA@ 00000001802dc490     strings:ctype-uca.obj
 0002:0027c498       ??_C@_0BC@DBPPMIKE@?$CFs?5too?5long?3?5?8?$CFs?8?$AA@ 00000001802dc498     strings:ctype-uca.obj
 0002:0027c4b0       ??_C@_0CE@NMGOPJFA@Shift?5character?5out?5of?5range?3?5u?$CF@ 00000001802dc4b0     strings:ctype-uca.obj
 0002:0027c4d8       ??_C@_0CE@MJJENIB@Reset?5character?5out?5of?5range?3?5u?$CF@ 00000001802dc4d8     strings:ctype-uca.obj
 0002:0027c4fc       ??_C@_02DKCKIIND@?$CFs?$AA@ 00000001802dc4fc     strings:ctype-uca.obj
 0002:0027c500       ??_C@_0BA@GGIKJHHD@ucs2_unicode_ci?$AA@ 00000001802dc500     strings:ctype-uca.obj
 0002:0027c510       ??_C@_0BC@CHMCLHGJ@ucs2_icelandic_ci?$AA@ 00000001802dc510     strings:ctype-uca.obj
 0002:0027c528       ??_C@_0BA@GPCDDJEB@ucs2_latvian_ci?$AA@ 00000001802dc528     strings:ctype-uca.obj
 0002:0027c538       ??_C@_0BB@PCJJLEPN@ucs2_romanian_ci?$AA@ 00000001802dc538     strings:ctype-uca.obj
 0002:0027c550       ??_C@_0BC@CBNFNHFB@ucs2_slovenian_ci?$AA@ 00000001802dc550     strings:ctype-uca.obj
 0002:0027c568       ??_C@_0P@FMOMCNFB@ucs2_polish_ci?$AA@ 00000001802dc568     strings:ctype-uca.obj
 0002:0027c578       ??_C@_0BB@DNIMJHDC@ucs2_estonian_ci?$AA@ 00000001802dc578     strings:ctype-uca.obj
 0002:0027c590       ??_C@_0BA@BCBGJIAK@ucs2_spanish_ci?$AA@ 00000001802dc590     strings:ctype-uca.obj
 0002:0027c5a0       ??_C@_0BA@DMOGMOLH@ucs2_swedish_ci?$AA@ 00000001802dc5a0     strings:ctype-uca.obj
 0002:0027c5b0       ??_C@_0BA@KJDGBN@ucs2_turkish_ci?$AA@ 00000001802dc5b0     strings:ctype-uca.obj
 0002:0027c5c0       ??_C@_0O@FDGODJPM@ucs2_czech_ci?$AA@ 00000001802dc5c0     strings:ctype-uca.obj
 0002:0027c5d0       ??_C@_0P@PIEONACM@ucs2_danish_ci?$AA@ 00000001802dc5d0     strings:ctype-uca.obj
 0002:0027c5e0       ??_C@_0BD@BPDBBBIG@ucs2_lithuanian_ci?$AA@ 00000001802dc5e0     strings:ctype-uca.obj
 0002:0027c5f8       ??_C@_0P@JIPBJIBD@ucs2_slovak_ci?$AA@ 00000001802dc5f8     strings:ctype-uca.obj
 0002:0027c608       ??_C@_0BB@ICDAFOFL@ucs2_spanish2_ci?$AA@ 00000001802dc608     strings:ctype-uca.obj
 0002:0027c620       ??_C@_0O@CNOJEKEN@ucs2_roman_ci?$AA@ 00000001802dc620     strings:ctype-uca.obj
 0002:0027c630       ??_C@_0BA@PJNOLINJ@ucs2_persian_ci?$AA@ 00000001802dc630     strings:ctype-uca.obj
 0002:0027c640       ??_C@_0BC@HBGPDP@ucs2_esperanto_ci?$AA@ 00000001802dc640     strings:ctype-uca.obj
 0002:0027c658       ??_C@_0BC@JMLAFJDL@ucs2_hungarian_ci?$AA@ 00000001802dc658     strings:ctype-uca.obj
 0002:0027c670       ??_C@_0BA@BMAEGICG@ucs2_sinhala_ci?$AA@ 00000001802dc670     strings:ctype-uca.obj
 0002:0027c680       ??_C@_0BA@CIHIJEPA@ucs2_german2_ci?$AA@ 00000001802dc680     strings:ctype-uca.obj
 0002:0027c690       ??_C@_0BK@CHLDAFHO@ucs2_croatian_mysql561_ci?$AA@ 00000001802dc690     strings:ctype-uca.obj
 0002:0027c6b0       ??_C@_0BB@OJMIGBHM@ucs2_croatian_ci?$AA@ 00000001802dc6b0     strings:ctype-uca.obj
 0002:0027c6c8       ??_C@_0BA@ICICFEKN@ucs2_myanmar_ci?$AA@ 00000001802dc6c8     strings:ctype-uca.obj
 0002:0027c6d8       ??_C@_0BE@OMGDDPH@ucs2_unicode_520_ci?$AA@ 00000001802dc6d8     strings:ctype-uca.obj
 0002:0027c6f0       ??_C@_0BD@DHEKIFOH@ucs2_vietnamese_ci?$AA@ 00000001802dc6f0     strings:ctype-uca.obj
 0002:0027c708       ??_C@_0BA@GBKHDDAB@utf8_unicode_ci?$AA@ 00000001802dc708     strings:ctype-uca.obj
 0002:0027c718       ??_C@_0BC@OLHAMMMB@utf8_icelandic_ci?$AA@ 00000001802dc718     strings:ctype-uca.obj
 0002:0027c730       ??_C@_0BA@GIAOJNDD@utf8_latvian_ci?$AA@ 00000001802dc730     strings:ctype-uca.obj
 0002:0027c740       ??_C@_0BB@EMJFIJEJ@utf8_romanian_ci?$AA@ 00000001802dc740     strings:ctype-uca.obj
 0002:0027c758       ??_C@_0BC@ONGHKMPJ@utf8_slovenian_ci?$AA@ 00000001802dc758     strings:ctype-uca.obj
 0002:0027c770       ??_C@_0P@BMIMEGFF@utf8_polish_ci?$AA@ 00000001802dc770     strings:ctype-uca.obj
 0002:0027c780       ??_C@_0BB@IDIAKKIG@utf8_estonian_ci?$AA@ 00000001802dc780     strings:ctype-uca.obj
 0002:0027c798       ??_C@_0BA@BFDLDMHI@utf8_spanish_ci?$AA@ 00000001802dc798     strings:ctype-uca.obj
 0002:0027c7a8       ??_C@_0BA@DLMLGKMF@utf8_swedish_ci?$AA@ 00000001802dc7a8     strings:ctype-uca.obj
 0002:0027c7b8       ??_C@_0BA@HIEJCGP@utf8_turkish_ci?$AA@ 00000001802dc7b8     strings:ctype-uca.obj
 0002:0027c7c8       ??_C@_0O@OMAOFLBG@utf8_czech_ci?$AA@ 00000001802dc7c8     strings:ctype-uca.obj
 0002:0027c7d8       ??_C@_0P@LICOLLCI@utf8_danish_ci?$AA@ 00000001802dc7d8     strings:ctype-uca.obj
 0002:0027c7e8       ??_C@_0BD@MHPAIICH@utf8_lithuanian_ci?$AA@ 00000001802dc7e8     strings:ctype-uca.obj
 0002:0027c800       ??_C@_0P@NIJBPDBH@utf8_slovak_ci?$AA@ 00000001802dc800     strings:ctype-uca.obj
 0002:0027c810       ??_C@_0BB@DMDMGDOP@utf8_spanish2_ci?$AA@ 00000001802dc810     strings:ctype-uca.obj
 0002:0027c828       ??_C@_0O@JCIJCIKH@utf8_roman_ci?$AA@ 00000001802dc828     strings:ctype-uca.obj
 0002:0027c838       ??_C@_0BA@POPDBMKL@utf8_persian_ci?$AA@ 00000001802dc838     strings:ctype-uca.obj
 0002:0027c848       ??_C@_0BC@MMMDBEJH@utf8_esperanto_ci?$AA@ 00000001802dc848     strings:ctype-uca.obj
 0002:0027c860       ??_C@_0BC@FAACCCJD@utf8_hungarian_ci?$AA@ 00000001802dc860     strings:ctype-uca.obj
 0002:0027c878       ??_C@_0BA@BLCJMMFE@utf8_sinhala_ci?$AA@ 00000001802dc878     strings:ctype-uca.obj
 0002:0027c888       ??_C@_0BA@CPFFDAIC@utf8_german2_ci?$AA@ 00000001802dc888     strings:ctype-uca.obj
 0002:0027c898       ??_C@_0BK@MLJDMKDC@utf8_croatian_mysql561_ci?$AA@ 00000001802dc898     strings:ctype-uca.obj
 0002:0027c8b8       ??_C@_0BB@FHMEFMMI@utf8_croatian_ci?$AA@ 00000001802dc8b8     strings:ctype-uca.obj
 0002:0027c8d0       ??_C@_0BA@IFKPPANP@utf8_myanmar_ci?$AA@ 00000001802dc8d0     strings:ctype-uca.obj
 0002:0027c8e0       ??_C@_0BE@KPMPGBBA@utf8_unicode_520_ci?$AA@ 00000001802dc8e0     strings:ctype-uca.obj
 0002:0027c8f8       ??_C@_0BD@OPILBMEG@utf8_vietnamese_ci?$AA@ 00000001802dc8f8     strings:ctype-uca.obj
 0002:0027c910       ??_C@_0BD@JBHDDEJM@utf8mb4_unicode_ci?$AA@ 00000001802dc910     strings:ctype-uca.obj
 0002:0027c928       ??_C@_0BF@LBPLFNOB@utf8mb4_icelandic_ci?$AA@ 00000001802dc928     strings:ctype-uca.obj
 0002:0027c940       ??_C@_0BD@JINKJKKO@utf8mb4_latvian_ci?$AA@ 00000001802dc940     strings:ctype-uca.obj
 0002:0027c958       ??_C@_0BE@MCNLLCLH@utf8mb4_romanian_ci?$AA@ 00000001802dc958     strings:ctype-uca.obj
 0002:0027c970       ??_C@_0BF@LHOMDNNJ@utf8mb4_slovenian_ci?$AA@ 00000001802dc970     strings:ctype-uca.obj
 0002:0027c988       ??_C@_0BC@MHBIJPMF@utf8mb4_polish_ci?$AA@ 00000001802dc988     strings:ctype-uca.obj
 0002:0027c9a0       ??_C@_0BE@NMOJBHI@utf8mb4_estonian_ci?$AA@ 00000001802dc9a0     strings:ctype-uca.obj
 0002:0027c9b8       ??_C@_0BD@OFOPDLOF@utf8mb4_spanish_ci?$AA@ 00000001802dc9b8     strings:ctype-uca.obj
 0002:0027c9d0       ??_C@_0BD@MLBPGNFI@utf8mb4_swedish_ci?$AA@ 00000001802dc9d0     strings:ctype-uca.obj
 0002:0027c9e8       ??_C@_0BD@PHFAJFPC@utf8mb4_turkish_ci?$AA@ 00000001802dc9e8     strings:ctype-uca.obj
 0002:0027ca00       ??_C@_0BB@MDBOBNDM@utf8mb4_czech_ci?$AA@ 00000001802dca00     strings:ctype-uca.obj
 0002:0027ca18       ??_C@_0BC@GDLKGCLI@utf8mb4_danish_ci?$AA@ 00000001802dca18     strings:ctype-uca.obj
 0002:0027ca30       ??_C@_0BG@PMMECDHO@utf8mb4_lithuanian_ci?$AA@ 00000001802dca30     strings:ctype-uca.obj
 0002:0027ca48       ??_C@_0BC@DAFCKIH@utf8mb4_slovak_ci?$AA@ 00000001802dca48     strings:ctype-uca.obj
 0002:0027ca60       ??_C@_0BE@LCHCFIBB@utf8mb4_spanish2_ci?$AA@ 00000001802dca60     strings:ctype-uca.obj
 0002:0027ca78       ??_C@_0BB@LNJJGOIN@utf8mb4_roman_ci?$AA@ 00000001802dca78     strings:ctype-uca.obj
 0002:0027ca90       ??_C@_0BD@OCHBLDG@utf8mb4_persian_ci?$AA@ 00000001802dca90     strings:ctype-uca.obj
 0002:0027caa8       ??_C@_0BF@JGEIIFLH@utf8mb4_esperanto_ci?$AA@ 00000001802dcaa8     strings:ctype-uca.obj
 0002:0027cac0       ??_C@_0BF@KIJLDLD@utf8mb4_hungarian_ci?$AA@ 00000001802dcac0     strings:ctype-uca.obj
 0002:0027cad8       ??_C@_0BD@OLPNMLMJ@utf8mb4_sinhala_ci?$AA@ 00000001802dcad8     strings:ctype-uca.obj
 0002:0027caf0       ??_C@_0BD@NPIBDHBP@utf8mb4_german2_ci?$AA@ 00000001802dcaf0     strings:ctype-uca.obj
 0002:0027cb08       ??_C@_0BN@HNIOOGJN@utf8mb4_croatian_mysql561_ci?$AA@ 00000001802dcb08     strings:ctype-uca.obj
 0002:0027cb28       ??_C@_0BE@NJIKGHDG@utf8mb4_croatian_ci?$AA@ 00000001802dcb28     strings:ctype-uca.obj
 0002:0027cb40       ??_C@_0BD@HFHLPHEC@utf8mb4_myanmar_ci?$AA@ 00000001802dcb40     strings:ctype-uca.obj
 0002:0027cb58       ??_C@_0BH@LNEDLMOL@utf8mb4_unicode_520_ci?$AA@ 00000001802dcb58     strings:ctype-uca.obj
 0002:0027cb70       ??_C@_0BG@NELPLHBP@utf8mb4_vietnamese_ci?$AA@ 00000001802dcb70     strings:ctype-uca.obj
 0002:0027cb88       ??_C@_0BB@PJCNHIP@utf32_unicode_ci?$AA@ 00000001802dcb88     strings:ctype-uca.obj
 0002:0027cba0       ??_C@_0BD@OJBHDBFA@utf32_icelandic_ci?$AA@ 00000001802dcba0     strings:ctype-uca.obj
 0002:0027cbb8       ??_C@_0BB@GDLHJLN@utf32_latvian_ci?$AA@ 00000001802dcbb8     strings:ctype-uca.obj
 0002:0027cbd0       ??_C@_0BC@EGPLBCIK@utf32_romanian_ci?$AA@ 00000001802dcbd0     strings:ctype-uca.obj
 0002:0027cbe8       ??_C@_0BD@OPAAFBGI@utf32_slovenian_ci?$AA@ 00000001802dcbe8     strings:ctype-uca.obj
 0002:0027cc00       ??_C@_0BA@ECGOCPMC@utf32_polish_ci?$AA@ 00000001802dcc00     strings:ctype-uca.obj
 0002:0027cc10       ??_C@_0BC@IJOODBEF@utf32_estonian_ci?$AA@ 00000001802dcc10     strings:ctype-uca.obj
 0002:0027cc28       ??_C@_0BB@HLAONIPG@utf32_spanish_ci?$AA@ 00000001802dcc28     strings:ctype-uca.obj
 0002:0027cc40       ??_C@_0BB@FFPOIOEL@utf32_swedish_ci?$AA@ 00000001802dcc40     strings:ctype-uca.obj
 0002:0027cc58       ??_C@_0BB@GJLBHGOB@utf32_turkish_ci?$AA@ 00000001802dcc58     strings:ctype-uca.obj
 0002:0027cc70       ??_C@_0P@NAJOMCGO@utf32_czech_ci?$AA@ 00000001802dcc70     strings:ctype-uca.obj
 0002:0027cc80       ??_C@_0BA@OGMMNCLP@utf32_danish_ci?$AA@ 00000001802dcc80     strings:ctype-uca.obj
 0002:0027cc90       ??_C@_0BE@EAPKEMAI@utf32_lithuanian_ci?$AA@ 00000001802dcc90     strings:ctype-uca.obj
 0002:0027cca8       ??_C@_0BA@IGHDJKIA@utf32_slovak_ci?$AA@ 00000001802dcca8     strings:ctype-uca.obj
 0002:0027ccb8       ??_C@_0BC@DGFCPICM@utf32_spanish2_ci?$AA@ 00000001802dccb8     strings:ctype-uca.obj
 0002:0027ccd0       ??_C@_0P@KOBJLBNP@utf32_roman_ci?$AA@ 00000001802dccd0     strings:ctype-uca.obj
 0002:0027cce0       ??_C@_0BB@JAMGPICF@utf32_persian_ci?$AA@ 00000001802dcce0     strings:ctype-uca.obj
 0002:0027ccf8       ??_C@_0BD@MOKEOJAG@utf32_esperanto_ci?$AA@ 00000001802dccf8     strings:ctype-uca.obj
 0002:0027cd10       ??_C@_0BD@FCGFNPAC@utf32_hungarian_ci?$AA@ 00000001802dcd10     strings:ctype-uca.obj
 0002:0027cd28       ??_C@_0BB@HFBMCINK@utf32_sinhala_ci?$AA@ 00000001802dcd28     strings:ctype-uca.obj
 0002:0027cd40       ??_C@_0BB@EBGANEAM@utf32_german2_ci?$AA@ 00000001802dcd40     strings:ctype-uca.obj
 0002:0027cd58       ??_C@_0BL@ECCBEJMG@utf32_croatian_mysql561_ci?$AA@ 00000001802dcd58     strings:ctype-uca.obj
 0002:0027cd78       ??_C@_0BC@FNKKMHAL@utf32_croatian_ci?$AA@ 00000001802dcd78     strings:ctype-uca.obj
 0002:0027cd90       ??_C@_0BB@OLJKBEFB@utf32_myanmar_ci?$AA@ 00000001802dcd90     strings:ctype-uca.obj
 0002:0027cda8       ??_C@_0BF@EJJFGIN@utf32_unicode_520_ci?$AA@ 00000001802dcda8     strings:ctype-uca.obj
 0002:0027cdc0       ??_C@_0BE@GIIBNIGJ@utf32_vietnamese_ci?$AA@ 00000001802dcdc0     strings:ctype-uca.obj
 0002:0027cdd8       ??_C@_0BB@COEFHJLE@utf16_unicode_ci?$AA@ 00000001802dcdd8     strings:ctype-uca.obj
 0002:0027cdf0       ??_C@_0BD@OEMLHBFA@utf16_icelandic_ci?$AA@ 00000001802dcdf0     strings:ctype-uca.obj
 0002:0027ce08       ??_C@_0BB@CHOMNHIG@utf16_latvian_ci?$AA@ 00000001802dce08     strings:ctype-uca.obj
 0002:0027ce20       ??_C@_0BC@PHNBCMAA@utf16_romanian_ci?$AA@ 00000001802dce20     strings:ctype-uca.obj
 0002:0027ce38       ??_C@_0BD@OCNMBBGI@utf16_slovenian_ci?$AA@ 00000001802dce38     strings:ctype-uca.obj
 0002:0027ce50       ??_C@_0BA@CBDEKBPG@utf16_polish_ci?$AA@ 00000001802dce50     strings:ctype-uca.obj
 0002:0027ce60       ??_C@_0BC@DIMEAPMP@utf16_estonian_ci?$AA@ 00000001802dce60     strings:ctype-uca.obj
 0002:0027ce78       ??_C@_0BB@FKNJHGMN@utf16_spanish_ci?$AA@ 00000001802dce78     strings:ctype-uca.obj
 0002:0027ce90       ??_C@_0BB@HECJCAHA@utf16_swedish_ci?$AA@ 00000001802dce90     strings:ctype-uca.obj
 0002:0027cea8       ??_C@_0BB@EIGGNINK@utf16_turkish_ci?$AA@ 00000001802dcea8     strings:ctype-uca.obj
 0002:0027cec0       ??_C@_0P@IMHMCPHD@utf16_czech_ci?$AA@ 00000001802dcec0     strings:ctype-uca.obj
 0002:0027ced0       ??_C@_0BA@IFJGFMIL@utf16_danish_ci?$AA@ 00000001802dced0     strings:ctype-uca.obj
 0002:0027cee0       ??_C@_0BE@EAPHJAEI@utf16_lithuanian_ci?$AA@ 00000001802dcee0     strings:ctype-uca.obj
 0002:0027cef8       ??_C@_0BA@OFCJBELE@utf16_slovak_ci?$AA@ 00000001802dcef8     strings:ctype-uca.obj
 0002:0027cf08       ??_C@_0BC@IHHIMGKG@utf16_spanish2_ci?$AA@ 00000001802dcf08     strings:ctype-uca.obj
 0002:0027cf20       ??_C@_0P@PCPLFMMC@utf16_roman_ci?$AA@ 00000001802dcf20     strings:ctype-uca.obj
 0002:0027cf30       ??_C@_0BB@LBBBFGBO@utf16_persian_ci?$AA@ 00000001802dcf30     strings:ctype-uca.obj
 0002:0027cf48       ??_C@_0BD@MDHIKJAG@utf16_esperanto_ci?$AA@ 00000001802dcf48     strings:ctype-uca.obj
 0002:0027cf60       ??_C@_0BD@FPLJJPAC@utf16_hungarian_ci?$AA@ 00000001802dcf60     strings:ctype-uca.obj
 0002:0027cf78       ??_C@_0BB@FEMLIGOB@utf16_sinhala_ci?$AA@ 00000001802dcf78     strings:ctype-uca.obj
 0002:0027cf90       ??_C@_0BB@GALHHKDH@utf16_german2_ci?$AA@ 00000001802dcf90     strings:ctype-uca.obj
 0002:0027cfa8       ??_C@_0BL@JLEGCEFK@utf16_croatian_mysql561_ci?$AA@ 00000001802dcfa8     strings:ctype-uca.obj
 0002:0027cfc8       ??_C@_0BC@OMIAPJIB@utf16_croatian_ci?$AA@ 00000001802dcfc8     strings:ctype-uca.obj
 0002:0027cfe0       ??_C@_0BB@MKENLKGK@utf16_myanmar_ci?$AA@ 00000001802dcfe0     strings:ctype-uca.obj
 0002:0027cff8       ??_C@_0BF@HCEFBKMB@utf16_unicode_520_ci?$AA@ 00000001802dcff8     strings:ctype-uca.obj
 0002:0027d010       ??_C@_0BE@GIIMAECJ@utf16_vietnamese_ci?$AA@ 00000001802dd010     strings:ctype-uca.obj
 0002:0027d028       ??_C@_0BA@JGAHNPHO@utf8_general_ci?$AA@ 00000001802dd028     strings:ctype-utf8.obj
 0002:0027d038       ??_C@_0BJ@OBCBHDLG@utf8_general_mysql500_ci?$AA@ 00000001802dd038     strings:ctype-utf8.obj
 0002:0027d058       ??_C@_08BMIDNPKK@utf8_bin?$AA@ 00000001802dd058     strings:ctype-utf8.obj
 0002:0027d068       ??_C@_08BABJIOEM@filename?$AA@ 00000001802dd068     strings:ctype-utf8.obj
 0002:0027d078       ??_C@_0BD@GGNDNIOD@utf8mb4_general_ci?$AA@ 00000001802dd078     strings:ctype-utf8.obj
 0002:0027d090       ??_C@_0O@CMGLGMNO@UTF?98?5Unicode?$AA@ 00000001802dd090     strings:ctype-utf8.obj
 0002:0027d0a0       ??_C@_0M@GABAIEPB@utf8mb4_bin?$AA@ 00000001802dd0a0     strings:ctype-utf8.obj
 0002:0027d0ac       ??_C@_03PJHHNEEI@xml?$AA@  00000001802dd0ac     strings:ctype.obj
 0002:0027d0b0       ??_C@_0M@BOENADBE@xml?1version?$AA@ 00000001802dd0b0     strings:ctype.obj
 0002:0027d0c0       ??_C@_0N@JABJMIAL@xml?1encoding?$AA@ 00000001802dd0c0     strings:ctype.obj
 0002:0027d0d0       ??_C@_08PBFNHBDC@charsets?$AA@ 00000001802dd0d0     strings:ctype.obj
 0002:0027d0e0       ??_C@_0BA@NFCJBDGG@charsets?1max?9id?$AA@ 00000001802dd0e0     strings:ctype.obj
 0002:0027d0f0       ??_C@_0BD@IHJEIMLA@charsets?1copyright?$AA@ 00000001802dd0f0     strings:ctype.obj
 0002:0027d108       ??_C@_0BF@OFGACJBG@charsets?1description?$AA@ 00000001802dd108     strings:ctype.obj
 0002:0027d120       ??_C@_0BB@MPLJNAOI@charsets?1charset?$AA@ 00000001802dd120     strings:ctype.obj
 0002:0027d138       ??_C@_0BM@NDJFGPHG@charsets?1charset?1primary?9id?$AA@ 00000001802dd138     strings:ctype.obj
 0002:0027d158       ??_C@_0BL@LNCPEELC@charsets?1charset?1binary?9id?$AA@ 00000001802dd158     strings:ctype.obj
 0002:0027d178       ??_C@_0BG@LDPKBCKB@charsets?1charset?1name?$AA@ 00000001802dd178     strings:ctype.obj
 0002:0027d190       ??_C@_0BI@ICKMEODO@charsets?1charset?1family?$AA@ 00000001802dd190     strings:ctype.obj
 0002:0027d1a8       ??_C@_0BN@LLOCCHFI@charsets?1charset?1description?$AA@ 00000001802dd1a8     strings:ctype.obj
 0002:0027d1c8       ??_C@_0BH@CENNAKLG@charsets?1charset?1alias?$AA@ 00000001802dd1c8     strings:ctype.obj
 0002:0027d1e0       ??_C@_0BH@GIOAFMPB@charsets?1charset?1ctype?$AA@ 00000001802dd1e0     strings:ctype.obj
 0002:0027d1f8       ??_C@_0BL@KKJMPDHK@charsets?1charset?1ctype?1map?$AA@ 00000001802dd1f8     strings:ctype.obj
 0002:0027d218       ??_C@_0BH@CKIJLBDA@charsets?1charset?1upper?$AA@ 00000001802dd218     strings:ctype.obj
 0002:0027d230       ??_C@_0BL@OJLKMJLI@charsets?1charset?1upper?1map?$AA@ 00000001802dd230     strings:ctype.obj
 0002:0027d250       ??_C@_0BH@HBDHNKIJ@charsets?1charset?1lower?$AA@ 00000001802dd250     strings:ctype.obj
 0002:0027d268       ??_C@_0BL@ELLNOHCD@charsets?1charset?1lower?1map?$AA@ 00000001802dd268     strings:ctype.obj
 0002:0027d288       ??_C@_0BJ@KHPKNFM@charsets?1charset?1unicode?$AA@ 00000001802dd288     strings:ctype.obj
 0002:0027d2a8       ??_C@_0BN@PEPOLNOE@charsets?1charset?1unicode?1map?$AA@ 00000001802dd2a8     strings:ctype.obj
 0002:0027d2c8       ??_C@_0BL@JFMDNPGN@charsets?1charset?1collation?$AA@ 00000001802dd2c8     strings:ctype.obj
 0002:0027d2e8       ??_C@_0CA@ILKNGFEN@charsets?1charset?1collation?1name?$AA@ 00000001802dd2e8     strings:ctype.obj
 0002:0027d308       ??_C@_0BO@PKAEPDFI@charsets?1charset?1collation?1id?$AA@ 00000001802dd308     strings:ctype.obj
 0002:0027d328       ??_C@_0CB@IEPLPKEB@charsets?1charset?1collation?1order@ 00000001802dd328     strings:ctype.obj
 0002:0027d350       ??_C@_0CA@HCJLGNLH@charsets?1charset?1collation?1flag?$AA@ 00000001802dd350     strings:ctype.obj
 0002:0027d370       ??_C@_0BP@MDNMPBHP@charsets?1charset?1collation?1map?$AA@ 00000001802dd370     strings:ctype.obj
 0002:0027d390       ??_C@_0CD@HAEFPAPD@charsets?1charset?1collation?1versi@ 00000001802dd390     strings:ctype.obj
 0002:0027d3b8       ??_C@_0DB@BFEFFFDJ@charsets?1charset?1collation?1suppr@ 00000001802dd3b8     strings:ctype.obj
 0002:0027d3f0       ??_C@_0CE@CCPFEKG@charsets?1charset?1collation?1optim@ 00000001802dd3f0     strings:ctype.obj
 0002:0027d418       ??_C@_0CO@PEIJMOFA@charsets?1charset?1collation?1shift@ 00000001802dd418     strings:ctype.obj
 0002:0027d448       ??_C@_0CE@KDPJNAEE@charsets?1charset?1collation?1setti@ 00000001802dd448     strings:ctype.obj
 0002:0027d470       ??_C@_0CN@OJIOHICE@charsets?1charset?1collation?1setti@ 00000001802dd470     strings:ctype.obj
 0002:0027d4a0       ??_C@_0CO@NNLDBAFI@charsets?1charset?1collation?1setti@ 00000001802dd4a0     strings:ctype.obj
 0002:0027d4d0       ??_C@_0CO@HBAFOHNH@charsets?1charset?1collation?1setti@ 00000001802dd4d0     strings:ctype.obj
 0002:0027d500       ??_C@_0DC@JDBIEPJD@charsets?1charset?1collation?1setti@ 00000001802dd500     strings:ctype.obj
 0002:0027d538       ??_C@_0CO@GKIEGEMP@charsets?1charset?1collation?1setti@ 00000001802dd538     strings:ctype.obj
 0002:0027d568       ??_C@_0CO@BLDNHKGE@charsets?1charset?1collation?1setti@ 00000001802dd568     strings:ctype.obj
 0002:0027d598       ??_C@_0DH@KJKPMBFL@charsets?1charset?1collation?1setti@ 00000001802dd598     strings:ctype.obj
 0002:0027d5d0       ??_C@_0CM@ICPCGNH@charsets?1charset?1collation?1setti@ 00000001802dd5d0     strings:ctype.obj
 0002:0027d600       ??_C@_0DA@MHECELND@charsets?1charset?1collation?1setti@ 00000001802dd600     strings:ctype.obj
 0002:0027d630       ??_C@_0DF@CBOOACLO@charsets?1charset?1collation?1setti@ 00000001802dd630     strings:ctype.obj
 0002:0027d668       ??_C@_0DA@EHFPMHJB@charsets?1charset?1collation?1setti@ 00000001802dd668     strings:ctype.obj
 0002:0027d698       ??_C@_0CB@FFDMCOLK@charsets?1charset?1collation?1rules@ 00000001802dd698     strings:ctype.obj
 0002:0027d6c0       ??_C@_0CH@EHCCKNPN@charsets?1charset?1collation?1rules@ 00000001802dd6c0     strings:ctype.obj
 0002:0027d6e8       ??_C@_0CD@NONCGGOK@charsets?1charset?1collation?1rules@ 00000001802dd6e8     strings:ctype.obj
 0002:0027d710       ??_C@_0CD@PFPPDFCJ@charsets?1charset?1collation?1rules@ 00000001802dd710     strings:ctype.obj
 0002:0027d738       ??_C@_0CD@LKLOKDOO@charsets?1charset?1collation?1rules@ 00000001802dd738     strings:ctype.obj
 0002:0027d760       ??_C@_0CD@MHMJFHKL@charsets?1charset?1collation?1rules@ 00000001802dd760     strings:ctype.obj
 0002:0027d788       ??_C@_0CD@EFNCMPPC@charsets?1charset?1collation?1rules@ 00000001802dd788     strings:ctype.obj
 0002:0027d7b0       ??_C@_0CD@BGALOMOC@charsets?1charset?1collation?1rules@ 00000001802dd7b0     strings:ctype.obj
 0002:0027d7d8       ??_C@_0CK@KKMAMADG@charsets?1charset?1collation?1rules@ 00000001802dd7d8     strings:ctype.obj
 0002:0027d808       ??_C@_0CF@NJNKFBBN@charsets?1charset?1collation?1rules@ 00000001802dd808     strings:ctype.obj
 0002:0027d830       ??_C@_0CF@PCPHACNO@charsets?1charset?1collation?1rules@ 00000001802dd830     strings:ctype.obj
 0002:0027d858       ??_C@_0CF@LNLGJEBJ@charsets?1charset?1collation?1rules@ 00000001802dd858     strings:ctype.obj
 0002:0027d880       ??_C@_0CF@MAMBGAFM@charsets?1charset?1collation?1rules@ 00000001802dd880     strings:ctype.obj
 0002:0027d8a8       ??_C@_0CF@ECNKPIAF@charsets?1charset?1collation?1rules@ 00000001802dd8a8     strings:ctype.obj
 0002:0027d8d0       ??_C@_0CL@NNKFAALG@charsets?1charset?1collation?1rules@ 00000001802dd8d0     strings:ctype.obj
 0002:0027d900       ??_C@_0CE@ONBOBGE@charsets?1charset?1collation?1rules@ 00000001802dd900     strings:ctype.obj
 0002:0027d928       ??_C@_0CE@MJHFPDN@charsets?1charset?1collation?1rules@ 00000001802dd928     strings:ctype.obj
 0002:0027d950       ??_C@_0CE@JNIEJLI@charsets?1charset?1collation?1rules@ 00000001802dd950     strings:ctype.obj
 0002:0027d978       ??_C@_0CE@PBDILFD@charsets?1charset?1collation?1rules@ 00000001802dd978     strings:ctype.obj
 0002:0027d9a0       ??_C@_0CE@BNCGHJJL@charsets?1charset?1collation?1rules@ 00000001802dd9a0     strings:ctype.obj
 0002:0027d9c8       ??_C@_0CO@EDGHLAHC@charsets?1charset?1collation?1rules@ 00000001802dd9c8     strings:ctype.obj
 0002:0027d9f8       ??_C@_0DL@JACEPFGB@charsets?1charset?1collation?1rules@ 00000001802dd9f8     strings:ctype.obj
 0002:0027da38       ??_C@_0DK@DMOCCDMK@charsets?1charset?1collation?1rules@ 00000001802dda38     strings:ctype.obj
 0002:0027da78       ??_C@_0DP@OIKKHJFD@charsets?1charset?1collation?1rules@ 00000001802dda78     strings:ctype.obj
 0002:0027dab8       ??_C@_0DO@LJAEDBNO@charsets?1charset?1collation?1rules@ 00000001802ddab8     strings:ctype.obj
 0002:0027db00       ??_C@_0EB@ECKAFAPI@charsets?1charset?1collation?1rules@ 00000001802ddb00     strings:ctype.obj
 0002:0027db50       ??_C@_0EA@LEIKCOPC@charsets?1charset?1collation?1rules@ 00000001802ddb50     strings:ctype.obj
 0002:0027db90       ??_C@_0EA@FAHHLJJ@charsets?1charset?1collation?1rules@ 00000001802ddb90     strings:ctype.obj
 0002:0027dbd0       ??_C@_0DP@JGFPCKEM@charsets?1charset?1collation?1rules@ 00000001802ddbd0     strings:ctype.obj
 0002:0027dc10       ??_C@_0DG@LNPKKAID@charsets?1charset?1collation?1rules@ 00000001802ddc10     strings:ctype.obj
 0002:0027dc48       ??_C@_0DF@EOIOAAHP@charsets?1charset?1collation?1rules@ 00000001802ddc48     strings:ctype.obj
 0002:0027dc80       ??_C@_0DG@CJCNMNMC@charsets?1charset?1collation?1rules@ 00000001802ddc80     strings:ctype.obj
 0002:0027dcb8       ??_C@_0DF@NKFJGNDO@charsets?1charset?1collation?1rules@ 00000001802ddcb8     strings:ctype.obj
 0002:0027dcf0       ??_C@_04HHCDBDLF@?5?7?$AN?6?$AA@ 00000001802ddcf0     strings:ctype.obj
 0002:0027dcf8       ??_C@_0BJ@DBPOAPBG@Unknown?5LDML?5tag?3?5?8?$CF?4?$CKs?8?$AA@ 00000001802ddcf8     strings:ctype.obj
 0002:0027dd14       ??_C@_02PLCNODCJ@?5?$CG?$AA@ 00000001802ddd14     strings:ctype.obj
 0002:0027dd18       ??_C@_05EFIBAIPA@?$DM?$CF?4?$CKs?$AA@ 00000001802ddd18     strings:ctype.obj
 0002:0027dd20       ??_C@_06GOMLJAL@?$DM?$DM?$CF?4?$CKs?$AA@ 00000001802ddd20     strings:ctype.obj
 0002:0027dd28       ??_C@_07CMMAPPCO@?$DM?$DM?$DM?$CF?4?$CKs?$AA@ 00000001802ddd28     strings:ctype.obj
 0002:0027dd30       ??_C@_08GHOOAHCP@?$DM?$DM?$DM?$DM?$CF?4?$CKs?$AA@ 00000001802ddd30     strings:ctype.obj
 0002:0027dd3c       ??_C@_05IONNNLFF@?$DN?$CF?4?$CKs?$AA@ 00000001802ddd3c     strings:ctype.obj
 0002:0027dd48       ??_C@_0L@OEJNOOIF@?$DM?$CF?4?$CKs?$HM?$CF?4?$CKs?$AA@ 00000001802ddd48     strings:ctype.obj
 0002:0027dd58       ??_C@_0M@OFOMOCID@?$DM?$DM?$CF?4?$CKs?$HM?$CF?4?$CKs?$AA@ 00000001802ddd58     strings:ctype.obj
 0002:0027dd68       ??_C@_0N@MIODGLK@?$DM?$DM?$DM?$CF?4?$CKs?$HM?$CF?4?$CKs?$AA@ 00000001802ddd68     strings:ctype.obj
 0002:0027dd78       ??_C@_0O@FDGCNMGG@?$DM?$DM?$DM?$DM?$CF?4?$CKs?$HM?$CF?4?$CKs?$AA@ 00000001802ddd78     strings:ctype.obj
 0002:0027dd88       ??_C@_0L@CFBDDBEF@?$DN?$CF?4?$CKs?$HM?$CF?4?$CKs?$AA@ 00000001802ddd88     strings:ctype.obj
 0002:0027dd98       ??_C@_07CJDBHDIN@primary?$AA@ 00000001802ddd98     strings:ctype.obj
 0002:0027dda0       ??_C@_08DOMPDOCM@compiled?$AA@ 00000001802ddda0     strings:ctype.obj
 0002:0027ddb0       ??_C@_0P@MNMIFBID@?$FLversion?5?$CF?4?$CKs?$FN?$AA@ 00000001802dddb0     strings:ctype.obj
 0002:0027ddc0       ??_C@_0BN@MPFIMOEG@?$FLsuppress?5contractions?5?$CF?4?$CKs?$FN?$AA@ 00000001802dddc0     strings:ctype.obj
 0002:0027dde0       ??_C@_0BA@IJJNLHOE@?$FLoptimize?5?$CF?4?$CKs?$FN?$AA@ 00000001802ddde0     strings:ctype.obj
 0002:0027ddf0       ??_C@_0BK@MIOAKIFA@?$FLshift?9after?9method?5?$CF?4?$CKs?$FN?$AA@ 00000001802dddf0     strings:ctype.obj
 0002:0027de10       ??_C@_0BA@OAKFAEPJ@?$FLstrength?5?$CF?4?$CKs?$FN?$AA@ 00000001802dde10     strings:ctype.obj
 0002:0027de20       ??_C@_0BB@IMCDEPI@?$FLalternate?5?$CF?4?$CKs?$FN?$AA@ 00000001802dde20     strings:ctype.obj
 0002:0027de38       ??_C@_0BB@PFELKLPK@?$FLbackwards?5?$CF?4?$CKs?$FN?$AA@ 00000001802dde38     strings:ctype.obj
 0002:0027de50       ??_C@_0BF@DIJNJMBP@?$FLnormalization?5?$CF?4?$CKs?$FN?$AA@ 00000001802dde50     strings:ctype.obj
 0002:0027de68       ??_C@_0BB@KJBOHMIB@?$FLcaseLevel?5?$CF?4?$CKs?$FN?$AA@ 00000001802dde68     strings:ctype.obj
 0002:0027de80       ??_C@_0BB@DAFMLHDI@?$FLcaseFirst?5?$CF?4?$CKs?$FN?$AA@ 00000001802dde80     strings:ctype.obj
 0002:0027de98       ??_C@_0BB@MPNNMKJD@?$FLhiraganaQ?5?$CF?4?$CKs?$FN?$AA@ 00000001802dde98     strings:ctype.obj
 0002:0027deb0       ??_C@_0P@CDLKLPEC@?$FLnumeric?5?$CF?4?$CKs?$FN?$AA@ 00000001802ddeb0     strings:ctype.obj
 0002:0027dec0       ??_C@_0BD@BCEEGPLA@?$FLvariableTop?5?$CF?4?$CKs?$FN?$AA@ 00000001802ddec0     strings:ctype.obj
 0002:0027ded8       ??_C@_0BI@OAEGMNHE@?$FLmatch?9boundaries?5?$CF?4?$CKs?$FN?$AA@ 00000001802dded8     strings:ctype.obj
 0002:0027def0       ??_C@_0BD@GHIEANIG@?$FLmatch?9style?5?$CF?4?$CKs?$FN?$AA@ 00000001802ddef0     strings:ctype.obj
 0002:0027df04       ??_C@_04EBNJJJJI@?$CF?4?$CKs?$AA@ 00000001802ddf04     strings:ctype.obj
 0002:0027df10       ??_C@_07CFPGJPPJ@?5?1?5?$CF?4?$CKs?$AA@ 00000001802ddf10     strings:ctype.obj
 0002:0027df18       ??_C@_0O@DGPKMCHJ@?$FLbefore?5?$CF?4?$CKs?$FN?$AA@ 00000001802ddf18     strings:ctype.obj
 0002:0027df28       ??_C@_0BG@EBILDJEC@at?5line?5?$CFd?5pos?5?$CFd?3?5?$CFs?$AA@ 00000001802ddf28     strings:ctype.obj
 0002:0027df40       ??_C@_0BC@CHMDDICP@cp932_japanese_ci?$AA@ 00000001802ddf40     strings:ctype-cp932.obj
 0002:0027df58       ??_C@_09LKJGLAE@cp932_bin?$AA@ 00000001802ddf58     strings:ctype-cp932.obj
 0002:0027df64       ??_C@_02OHALLCDL@ch?$AA@   00000001802ddf64     strings:ctype-win1250ch.obj
 0002:0027df68       ??_C@_01PAPGNFGE@c?$AA@    00000001802ddf68     strings:ctype-win1250ch.obj
 0002:0027df6c       ??_C@_02NPEGPENL@Ch?$AA@   00000001802ddf6c     strings:ctype-win1250ch.obj
 0002:0027df70       ??_C@_02EKMCNAHJ@CH?$AA@   00000001802ddf70     strings:ctype-win1250ch.obj
 0002:0027df74       ??_C@_01GFHCPBMG@C?$AA@    00000001802ddf74     strings:ctype-win1250ch.obj
 0002:0027df78       ??_C@_0BA@MDKNCPKD@cp1250_czech_cs?$AA@ 00000001802ddf78     strings:ctype-win1250ch.obj
 0002:0027df88       ??_C@_0BB@NJOFJFML@utf16_general_ci?$AA@ 00000001802ddf88     strings:ctype-ucs2.obj
 0002:0027dfa0       ??_C@_0P@DNKMBABJ@UTF?916?5Unicode?$AA@ 00000001802ddfa0     strings:ctype-ucs2.obj
 0002:0027dfb0       ??_C@_09PMPNHJPC@utf16_bin?$AA@ 00000001802ddfb0     strings:ctype-ucs2.obj
 0002:0027dfc0       ??_C@_0BD@PEECCPIF@utf16le_general_ci?$AA@ 00000001802ddfc0     strings:ctype-ucs2.obj
 0002:0027dfd8       ??_C@_0BB@CKCNNNH@UTF?916LE?5Unicode?$AA@ 00000001802ddfd8     strings:ctype-ucs2.obj
 0002:0027dff0       ??_C@_0M@FDBCHNDF@utf16le_bin?$AA@ 00000001802ddff0     strings:ctype-ucs2.obj
 0002:0027e000       ??_C@_0BB@PIDCDLPA@utf32_general_ci?$AA@ 00000001802de000     strings:ctype-ucs2.obj
 0002:0027e018       ??_C@_0P@GMCLAJKC@UTF?932?5Unicode?$AA@ 00000001802de018     strings:ctype-ucs2.obj
 0002:0027e028       ??_C@_09PAPDCKMN@utf32_bin?$AA@ 00000001802de028     strings:ctype-ucs2.obj
 0002:0027e038       ??_C@_0BA@JBCKHLAM@ucs2_general_ci?$AA@ 00000001802de038     strings:ctype-ucs2.obj
 0002:0027e048       ??_C@_0BJ@KCBMBJHH@ucs2_general_mysql500_ci?$AA@ 00000001802de048     strings:ctype-ucs2.obj
 0002:0027e068       ??_C@_08POIAHHJH@ucs2_bin?$AA@ 00000001802de068     strings:ctype-ucs2.obj
 0002:0027e078       ??_C@_0BA@EKHKJCHH@euckr_korean_ci?$AA@ 00000001802de078     strings:ctype-euc_kr.obj
 0002:0027e088       ??_C@_09JHKEBMLO@euckr_bin?$AA@ 00000001802de088     strings:ctype-euc_kr.obj
 0002:0027e098       ??_C@_07MOEGLBAH@eucjpms?$AA@ 00000001802de098     strings:ctype-eucjpms.obj
 0002:0027e0a0       ??_C@_0BE@GEODDEKB@eucjpms_japanese_ci?$AA@ 00000001802de0a0     strings:ctype-eucjpms.obj
 0002:0027e0b8       ??_C@_0M@BEKAHKLO@eucjpms_bin?$AA@ 00000001802de0b8     strings:ctype-eucjpms.obj
 0002:0027e0c8       ??_C@_0BB@KEGFAMFE@ujis_japanese_ci?$AA@ 00000001802de0c8     strings:ctype-ujis.obj
 0002:0027e0e0       ??_C@_08OGGFHGPF@ujis_bin?$AA@ 00000001802de0e0     strings:ctype-ujis.obj
 0002:0027e0f0       ??_C@_0BC@NLCEMJAE@gb2312_chinese_ci?$AA@ 00000001802de0f0     strings:ctype-gb2312.obj
 0002:0027e108       ??_C@_0L@ODLCHMHL@gb2312_bin?$AA@ 00000001802de108     strings:ctype-gb2312.obj
 0002:0027e120       ??_C@_0BAB@HNOGOFAJ@?$AA?$AA?$AA?$AA?$AA?$AA?$AA?$AA?$AA?$AC?$AA?$AA?$AA?$AA?$AA?$AA?$AA?$AA?$AA?$AA?$AA?$AA?$AA?$AA?$AA?$AA?$AA?$AA?$AA?$AA?$AA?$AA@ 00000001802de120     strings:ctype-czech.obj
 0002:0027e230       ??_C@_0BAB@GIDHDAFJ@?$AA?$AA?$AA?$AA?$AA?$AA?$AA?$AA?$AA?$AC?$AA?$AA?$AA?$AA?$AA?$AA?$AA?$AA?$AA?$AA?$AA?$AA?$AA?$AA?$AA?$AA?$AA?$AA?$AA?$AA?$AA?$AA@ 00000001802de230     strings:ctype-czech.obj
 0002:0027e340       ??_C@_0BAB@JENJBEPB@?$AA?$AA?$AA?$AA?$AA?$AA?$AA?$AA?$AA?$AC?$AA?$AA?$AA?$AA?$AA?$AA?$AA?$AA?$AA?$AA?$AA?$AA?$AA?$AA?$AA?$AA?$AA?$AA?$AA?$AA?$AA?$AA@ 00000001802de340     strings:ctype-czech.obj
 0002:0027e450       ??_C@_0BAB@LDKHKKBE@?$LE?$LF?$LG?$LH?$LI?$LJ?$LK?$LL?$LM?$AC?$LO?$LP?$MA?A?B?C?D?E?F?G?H?I?J?K?L?M?N?O?P?Q?R?S@ 00000001802de450     strings:ctype-czech.obj
 0002:0027e554       ??_C@_04PADBMEEG@?$AM?$BJ?1?1?$AA@ 00000001802de554     strings:ctype-czech.obj
 0002:0027e55c       ??_C@_04CKBBCOJF@?$AM?$BJ00?$AA@ 00000001802de55c     strings:ctype-czech.obj
 0002:0027e564       ??_C@_04DCMIHFOD@?$AM?$BJ11?$AA@ 00000001802de564     strings:ctype-czech.obj
 0002:0027e56c       ??_C@_04NALNINKB@?$AF?6?$BB?$BB?$AA@ 00000001802de56c     strings:ctype-czech.obj
 0002:0027e574       ??_C@_04PJNGGADL@?$AF?6?$BC?$BC?$AA@ 00000001802de574     strings:ctype-czech.obj
 0002:0027e580       ??_C@_0BA@IOACFKLD@latin2_czech_cs?$AA@ 00000001802de580     strings:ctype-czech.obj
 0002:0027e590       ??_C@_0BA@HCMNJPNC@big5_chinese_ci?$AA@ 00000001802de590     strings:ctype-big5.obj
 0002:0027e5a0       ??_C@_08CJHFMMIC@big5_bin?$AA@ 00000001802de5a0     strings:ctype-big5.obj
 0002:0027e5b0       ??_C@_0P@GFLKKABK@tis620_thai_ci?$AA@ 00000001802de5b0     strings:ctype-tis620.obj
 0002:0027e5c0       ??_C@_0L@NBGPIHPA@tis620_bin?$AA@ 00000001802de5c0     strings:ctype-tis620.obj
 0002:0027e5cc       ??_C@_04EJJBHNM@dec8?$AA@  00000001802de5cc     strings:ctype-extra.obj
 0002:0027e5d8       ??_C@_0BA@KLOOPAA@dec8_swedish_ci?$AA@ 00000001802de5d8     strings:ctype-extra.obj
 0002:0027e5e8       ??_C@_0BB@GHBCFLLI@cp850_general_ci?$AA@ 00000001802de5e8     strings:ctype-extra.obj
 0002:0027e600       ??_C@_0BC@EOOMILFB@latin1_german1_ci?$AA@ 00000001802de600     strings:ctype-extra.obj
 0002:0027e614       ??_C@_03GDEHCLKE@hp8?$AA@  00000001802de614     strings:ctype-extra.obj
 0002:0027e618       ??_C@_0P@FKJAJKJA@hp8_english_ci?$AA@ 00000001802de618     strings:ctype-extra.obj
 0002:0027e628       ??_C@_0BB@LEIGCGOD@koi8r_general_ci?$AA@ 00000001802de628     strings:ctype-extra.obj
 0002:0027e640       ??_C@_0BC@NNEHCLD@latin2_general_ci?$AA@ 00000001802de640     strings:ctype-extra.obj
 0002:0027e658       ??_C@_0BA@CCDGJJLG@swe7_swedish_ci?$AA@ 00000001802de658     strings:ctype-extra.obj
 0002:0027e668       ??_C@_05OJENGABA@ascii?$AA@ 00000001802de668     strings:ctype-extra.obj
 0002:0027e670       ??_C@_0BB@EJGKFKGI@ascii_general_ci?$AA@ 00000001802de670     strings:ctype-extra.obj
 0002:0027e688       ??_C@_0BE@HOCIKLDG@cp1251_bulgarian_ci?$AA@ 00000001802de688     strings:ctype-extra.obj
 0002:0027e6a0       ??_C@_0BB@HINPBEBI@latin1_danish_ci?$AA@ 00000001802de6a0     strings:ctype-extra.obj
 0002:0027e6b8       ??_C@_0BC@LFMOPFOE@hebrew_general_ci?$AA@ 00000001802de6b8     strings:ctype-extra.obj
 0002:0027e6d0       ??_C@_0BD@FCEAFDJA@latin7_estonian_cs?$AA@ 00000001802de6d0     strings:ctype-extra.obj
 0002:0027e6e8       ??_C@_0BE@IGDBMPBG@latin2_hungarian_ci?$AA@ 00000001802de6e8     strings:ctype-extra.obj
 0002:0027e700       ??_C@_0BB@MJPFCALL@koi8u_general_ci?$AA@ 00000001802de700     strings:ctype-extra.obj
 0002:0027e718       ??_C@_0BE@DDCHCMKA@cp1251_ukrainian_ci?$AA@ 00000001802de718     strings:ctype-extra.obj
 0002:0027e730       ??_C@_0BB@CIGFIMGF@greek_general_ci?$AA@ 00000001802de730     strings:ctype-extra.obj
 0002:0027e748       ??_C@_0BC@GHHJKIPO@cp1250_general_ci?$AA@ 00000001802de748     strings:ctype-extra.obj
 0002:0027e760       ??_C@_0BD@LCIKDBGI@latin2_croatian_ci?$AA@ 00000001802de760     strings:ctype-extra.obj
 0002:0027e778       ??_C@_0BF@MPPNICJ@cp1257_lithuanian_ci?$AA@ 00000001802de778     strings:ctype-extra.obj
 0002:0027e790       ??_C@_0BC@OBCEDJPK@latin5_turkish_ci?$AA@ 00000001802de790     strings:ctype-extra.obj
 0002:0027e7a8       ??_C@_08BDGJEDFB@armscii8?$AA@ 00000001802de7a8     strings:ctype-extra.obj
 0002:0027e7b8       ??_C@_0BE@ELHAPPLJ@armscii8_general_ci?$AA@ 00000001802de7b8     strings:ctype-extra.obj
 0002:0027e7d0       ??_C@_0BB@LLJGKBLO@cp866_general_ci?$AA@ 00000001802de7d0     strings:ctype-extra.obj
 0002:0027e7e8       ??_C@_07JDFJFNII@keybcs2?$AA@ 00000001802de7e8     strings:ctype-extra.obj
 0002:0027e7f0       ??_C@_0BD@HLAPNNNE@keybcs2_general_ci?$AA@ 00000001802de7f0     strings:ctype-extra.obj
 0002:0027e808       ??_C@_0BB@PFHIEKKE@macce_general_ci?$AA@ 00000001802de808     strings:ctype-extra.obj
 0002:0027e820       ??_C@_0BE@BLBOGAK@macroman_general_ci?$AA@ 00000001802de820     strings:ctype-extra.obj
 0002:0027e838       ??_C@_0BB@HEOOOPD@cp852_general_ci?$AA@ 00000001802de838     strings:ctype-extra.obj
 0002:0027e850       ??_C@_0BC@BAPLMBKA@latin7_general_ci?$AA@ 00000001802de850     strings:ctype-extra.obj
 0002:0027e868       ??_C@_0BC@KANGDLHL@latin7_general_cs?$AA@ 00000001802de868     strings:ctype-extra.obj
 0002:0027e880       ??_C@_09FIGDDDHD@macce_bin?$AA@ 00000001802de880     strings:ctype-extra.obj
 0002:0027e890       ??_C@_0BD@LKINKBJP@cp1250_croatian_ci?$AA@ 00000001802de890     strings:ctype-extra.obj
 0002:0027e8a8       ??_C@_0BC@LABOBOHN@latin1_general_ci?$AA@ 00000001802de8a8     strings:ctype-extra.obj
 0002:0027e8c0       ??_C@_0BC@DDOEKG@latin1_general_cs?$AA@ 00000001802de8c0     strings:ctype-extra.obj
 0002:0027e8d8       ??_C@_0L@PHMMDEMK@cp1251_bin?$AA@ 00000001802de8d8     strings:ctype-extra.obj
 0002:0027e8e8       ??_C@_0BC@LKOPHBHL@cp1251_general_ci?$AA@ 00000001802de8e8     strings:ctype-extra.obj
 0002:0027e900       ??_C@_0BC@KMCILKA@cp1251_general_cs?$AA@ 00000001802de900     strings:ctype-extra.obj
 0002:0027e918       ??_C@_0N@HBDGIFNG@macroman_bin?$AA@ 00000001802de918     strings:ctype-extra.obj
 0002:0027e928       ??_C@_0BC@MHJMHHCD@cp1256_general_ci?$AA@ 00000001802de928     strings:ctype-extra.obj
 0002:0027e940       ??_C@_0L@CBJFNHNH@cp1257_bin?$AA@ 00000001802de940     strings:ctype-extra.obj
 0002:0027e950       ??_C@_0BC@BKAKKOKG@cp1257_general_ci?$AA@ 00000001802de950     strings:ctype-extra.obj
 0002:0027e968       ??_C@_0N@KGPIBLHK@armscii8_bin?$AA@ 00000001802de968     strings:ctype-extra.obj
 0002:0027e978       ??_C@_09BDNLCGDP@ascii_bin?$AA@ 00000001802de978     strings:ctype-extra.obj
 0002:0027e988       ??_C@_0L@DMJAOHGP@cp1250_bin?$AA@ 00000001802de988     strings:ctype-extra.obj
 0002:0027e998       ??_C@_0L@OKMJAEHC@cp1256_bin?$AA@ 00000001802de998     strings:ctype-extra.obj
 0002:0027e9a8       ??_C@_09OKKAGCL@cp866_bin?$AA@ 00000001802de9a8     strings:ctype-extra.obj
 0002:0027e9b8       ??_C@_08EFBBJHIK@dec8_bin?$AA@ 00000001802de9b8     strings:ctype-extra.obj
 0002:0027e9c8       ??_C@_09EFLJIAMD@greek_bin?$AA@ 00000001802de9c8     strings:ctype-extra.obj
 0002:0027e9d8       ??_C@_0L@INPMEGLK@hebrew_bin?$AA@ 00000001802de9d8     strings:ctype-extra.obj
 0002:0027e9e8       ??_C@_07KIGBPGH@hp8_bin?$AA@ 00000001802de9e8     strings:ctype-extra.obj
 0002:0027e9f0       ??_C@_0M@NJOCNGMA@keybcs2_bin?$AA@ 00000001802de9f0     strings:ctype-extra.obj
 0002:0027ea00       ??_C@_09DDHOALAA@koi8r_bin?$AA@ 00000001802dea00     strings:ctype-extra.obj
 0002:0027ea10       ??_C@_09COHLDLLI@koi8u_bin?$AA@ 00000001802dea10     strings:ctype-extra.obj
 0002:0027ea20       ??_C@_0L@JHFHEMOB@latin2_bin?$AA@ 00000001802dea20     strings:ctype-extra.obj
 0002:0027ea30       ??_C@_0L@IKFCHMFJ@latin5_bin?$AA@ 00000001802dea30     strings:ctype-extra.obj
 0002:0027ea40       ??_C@_0L@MHJKNNFC@latin7_bin?$AA@ 00000001802dea40     strings:ctype-extra.obj
 0002:0027ea50       ??_C@_09OJBLPPKL@cp850_bin?$AA@ 00000001802dea50     strings:ctype-extra.obj
 0002:0027ea60       ??_C@_09KENDFOKA@cp852_bin?$AA@ 00000001802dea60     strings:ctype-extra.obj
 0002:0027ea70       ??_C@_08CBKIAJIL@swe7_bin?$AA@ 00000001802dea70     strings:ctype-extra.obj
 0002:0027ea80       ??_C@_07GCLBCFCK@geostd8?$AA@ 00000001802dea80     strings:ctype-extra.obj
 0002:0027ea88       ??_C@_0BD@IFKPCMBG@geostd8_general_ci?$AA@ 00000001802dea88     strings:ctype-extra.obj
 0002:0027eaa0       ??_C@_0M@DIHPIFMI@geostd8_bin?$AA@ 00000001802deaa0     strings:ctype-extra.obj
 0002:0027eab0       ??_C@_0BC@DDCCPNHL@latin1_spanish_ci?$AA@ 00000001802deab0     strings:ctype-extra.obj
 0002:0027eac8       ??_C@_0BB@LGBJIEIE@cp1250_polish_ci?$AA@ 00000001802deac8     strings:ctype-extra.obj
 0002:0027eae0       ??_C@_0BB@DFBLLFM@sjis_japanese_ci?$AA@ 00000001802deae0     strings:ctype-sjis.obj
 0002:0027eaf8       ??_C@_08JFHPAPHP@sjis_bin?$AA@ 00000001802deaf8     strings:ctype-sjis.obj
 0002:0027eb08       ??_C@_0P@GNPIDCFN@gbk_chinese_ci?$AA@ 00000001802deb08     strings:ctype-gbk.obj
 0002:0027eb18       ??_C@_07KJPNPKHF@gbk_bin?$AA@ 00000001802deb18     strings:ctype-gbk.obj
 0002:0027eb20       ??_C@_0N@KFMDIEOD@END?9OF?9INPUT?$AA@ 00000001802deb20     strings:xml.obj
 0002:0027eb30       ??_C@_06IGECGLFO@STRING?$AA@ 00000001802deb30     strings:xml.obj
 0002:0027eb38       ??_C@_05MDAAGLOE@IDENT?$AA@ 00000001802deb38     strings:xml.obj
 0002:0027eb40       ??_C@_05MLPNBPGH@CDATA?$AA@ 00000001802deb40     strings:xml.obj
 0002:0027eb48       ??_C@_03BFCIHDMC@?8?$DN?8?$AA@ 00000001802deb48     strings:xml.obj
 0002:0027eb4c       ??_C@_03BEOKBJPF@?8?$DM?8?$AA@ 00000001802deb4c     strings:xml.obj
 0002:0027eb50       ??_C@_03BHGOMNJL@?8?$DO?8?$AA@ 00000001802deb50     strings:xml.obj
 0002:0027eb54       ??_C@_03KIKAENM@?8?1?8?$AA@ 00000001802deb54     strings:xml.obj
 0002:0027eb58       ??_C@_07JEDAPFNH@COMMENT?$AA@ 00000001802deb58     strings:xml.obj
 0002:0027eb60       ??_C@_04OEPMCOLO@TEXT?$AA@ 00000001802deb60     strings:xml.obj
 0002:0027eb68       ??_C@_03BGKMKHKM@?8?$DP?8?$AA@ 00000001802deb68     strings:xml.obj
 0002:0027eb6c       ??_C@_03BECJNG@?8?$CB?8?$AA@ 00000001802deb6c     strings:xml.obj
 0002:0027eb70       ??_C@_0O@IDJJBCJJ@unknown?5token?$AA@ 00000001802deb70     strings:xml.obj
 0002:0027eb80       ??_C@_04FFDNBKGC@?$DM?$CB?9?9?$AA@ 00000001802deb80     strings:xml.obj
 0002:0027eb88       ??_C@_03PNLDJJMO@?9?9?$DO?$AA@ 00000001802deb88     strings:xml.obj
 0002:0027eb90       ??_C@_09BLLNCBLF@?$DM?$CB?$FLCDATA?$FL?$AA@ 00000001802deb90     strings:xml.obj
 0002:0027eb9c       ??_C@_06NPFKMDPM@?$DP?$DN?1?$DM?$DO?$CB?$AA@ 00000001802deb9c     strings:xml.obj
 0002:0027eba8       ??_C@_0CE@HIBBMALO@?8?$DM?1?$CFs?$DO?8?5unexpected?5?$CI?8?$DM?1?$CFs?$DO?8?5want@ 00000001802deba8     strings:xml.obj
 0002:0027ebd0       ??_C@_0CJ@FBAHKBHA@?8?$DM?1?$CFs?$DO?8?5unexpected?5?$CIEND?9OF?9INPUT@ 00000001802debd0     strings:xml.obj
 0002:0027ec00       ??_C@_0BN@GIJBNIHN@?$CFs?5unexpected?5?$CIident?5wanted?$CJ?$AA@ 00000001802dec00     strings:xml.obj
 0002:0027ec20       ??_C@_0CE@KDMBOGDF@?$CFs?5unexpected?5?$CIident?5or?5?8?1?8?5want@ 00000001802dec20     strings:xml.obj
 0002:0027ec48       ??_C@_0CH@MBBDFLOA@?$CFs?5unexpected?5?$CIident?5or?5string?5w@ 00000001802dec48     strings:xml.obj
 0002:0027ec70       ??_C@_0BL@DBFJAODI@?$CFs?5unexpected?5?$CI?8?$DP?8?5wanted?$CJ?$AA@ 00000001802dec70     strings:xml.obj
 0002:0027ec90       ??_C@_0BL@PANHNBPI@?$CFs?5unexpected?5?$CI?8?$DO?8?5wanted?$CJ?$AA@ 00000001802dec90     strings:xml.obj
 0002:0027ecb0       ??_C@_0BI@GOAECBLB@unexpected?5END?9OF?9INPUT?$AA@ 00000001802decb0     strings:xml.obj
 0002:0027ecc8       ??_C@_06DJHHAOFP@TCP?1IP?$AA@ 00000001802decc8     vio:vio.obj
 0002:0027ecd0       ??_C@_0L@BGAKJGHL@named?5pipe?$AA@ 00000001802decd0     vio:vio.obj
 0002:0027ece0       ??_C@_0O@CPADDGOO@shared?5memory?$AA@ 00000001802dece0     vio:vio.obj
 0002:0027ecf0       ??_C@_0L@COJLGOAG@CancelIoEx?$AA@ 00000001802decf0     vio:viosocket.obj
 0002:0027ed00       ??_C@_09PFCHIMEP@127?40?40?41?$AA@ 00000001802ded00     vio:viosocket.obj
 0002:0027ed10       ??_C@_0BH@LIBMMIGA@incorrect?5header?5check?$AA@ 00000001802ded10     zlib:inflate.obj
 0002:0027ed28       ??_C@_0BL@IHKGDAEE@unknown?5compression?5method?$AA@ 00000001802ded28     zlib:inflate.obj
 0002:0027ed48       ??_C@_0BE@EMOGCLGO@invalid?5window?5size?$AA@ 00000001802ded48     zlib:inflate.obj
 0002:0027ed60       ??_C@_0BJ@BLBBCOMO@unknown?5header?5flags?5set?$AA@ 00000001802ded60     zlib:inflate.obj
 0002:0027ed80       ??_C@_0BE@GONKLEPM@header?5crc?5mismatch?$AA@ 00000001802ded80     zlib:inflate.obj
 0002:0027ed98       ??_C@_0BD@PJCBIDD@invalid?5block?5type?$AA@ 00000001802ded98     zlib:inflate.obj
 0002:0027edb0       ??_C@_0BN@LGAADGOK@invalid?5stored?5block?5lengths?$AA@ 00000001802dedb0     zlib:inflate.obj
 0002:0027edd0       ??_C@_0CE@GMIGFPBB@too?5many?5length?5or?5distance?5symb@ 00000001802dedd0     zlib:inflate.obj
 0002:0027edf8       ??_C@_0BJ@HDEPPGOH@invalid?5code?5lengths?5set?$AA@ 00000001802dedf8     zlib:inflate.obj
 0002:0027ee18       ??_C@_0BK@BMMPFBBH@invalid?5bit?5length?5repeat?$AA@ 00000001802dee18     zlib:inflate.obj
 0002:0027ee38       ??_C@_0CF@DGDMADCD@invalid?5code?5?9?9?5missing?5end?9of?9b@ 00000001802dee38     zlib:inflate.obj
 0002:0027ee60       ??_C@_0BM@IIMGAINC@invalid?5literal?1lengths?5set?$AA@ 00000001802dee60     zlib:inflate.obj
 0002:0027ee80       ??_C@_0BG@GMDFCBGP@invalid?5distances?5set?$AA@ 00000001802dee80     zlib:inflate.obj
 0002:0027ee98       ??_C@_0BM@FFFLPBBC@invalid?5literal?1length?5code?$AA@ 00000001802dee98     zlib:inflate.obj
 0002:0027eeb8       ??_C@_0BG@LBKINIKP@invalid?5distance?5code?$AA@ 00000001802deeb8     zlib:inflate.obj
 0002:0027eed0       ??_C@_0BO@ECPMAOGG@invalid?5distance?5too?5far?5back?$AA@ 00000001802deed0     zlib:inflate.obj
 0002:0027eef0       ??_C@_0BF@MEIGEHBE@incorrect?5data?5check?$AA@ 00000001802deef0     zlib:inflate.obj
 0002:0027ef08       ??_C@_0BH@FGKKJGOC@incorrect?5length?5check?$AA@ 00000001802def08     zlib:inflate.obj
 0002:0027ef20       ??_C@_0BA@MOKMMFOD@need?5dictionary?$AA@ 00000001802def20     zlib:zutil.obj
 0002:0027ef30       ??_C@_0L@FNAOCBOG@stream?5end?$AA@ 00000001802def30     zlib:zutil.obj
 0002:0027ef40       ??_C@_0L@KIJFAKBJ@file?5error?$AA@ 00000001802def40     zlib:zutil.obj
 0002:0027ef50       ??_C@_0N@MKKNPMJD@stream?5error?$AA@ 00000001802def50     zlib:zutil.obj
 0002:0027ef60       ??_C@_0L@HAHMBNLP@data?5error?$AA@ 00000001802def60     zlib:zutil.obj
 0002:0027ef70       ??_C@_0BE@OGGJBMCE@insufficient?5memory?$AA@ 00000001802def70     zlib:zutil.obj
 0002:0027ef88       ??_C@_0N@DFPGLBGC@buffer?5error?$AA@ 00000001802def88     zlib:zutil.obj
 0002:0027ef98       ??_C@_0BF@CJFPCCEG@incompatible?5version?$AA@ 00000001802def98     zlib:zutil.obj
 0002:0027efb0       ??_C@_07OCFLHCIN@RC4?9MD5?$AA@ 00000001802defb0     yassl:yassl_int.obj
 0002:0027efb8       ??_C@_07BANEBHLH@RC4?9SHA?$AA@ 00000001802defb8     yassl:yassl_int.obj
 0002:0027efc0       ??_C@_0M@LLIFGIFE@DES?9CBC?9SHA?$AA@ 00000001802defc0     yassl:yassl_int.obj
 0002:0027efd0       ??_C@_0N@HCCILIJF@DES?9CBC3?9SHA?$AA@ 00000001802defd0     yassl:yassl_int.obj
 0002:0027efe0       ??_C@_0BE@COMFBKAK@EDH?9DSS?9DES?9CBC?9SHA?$AA@ 00000001802defe0     yassl:yassl_int.obj
 0002:0027eff8       ??_C@_0BF@POGOIEBE@EDH?9DSS?9DES?9CBC3?9SHA?$AA@ 00000001802deff8     yassl:yassl_int.obj
 0002:0027f010       ??_C@_0BE@BMKPLFLB@EDH?9RSA?9DES?9CBC?9SHA?$AA@ 00000001802df010     yassl:yassl_int.obj
 0002:0027f028       ??_C@_0BF@KCOPIELP@EDH?9RSA?9DES?9CBC3?9SHA?$AA@ 00000001802df028     yassl:yassl_int.obj
 0002:0027f040       ??_C@_0L@FJECLCPG@AES128?9SHA?$AA@ 00000001802df040     yassl:yassl_int.obj
 0002:0027f050       ??_C@_0BD@HPNPDEHO@DHE?9DSS?9AES128?9SHA?$AA@ 00000001802df050     yassl:yassl_int.obj
 0002:0027f068       ??_C@_0BD@MNBMGMFC@DHE?9RSA?9AES128?9SHA?$AA@ 00000001802df068     yassl:yassl_int.obj
 0002:0027f080       ??_C@_0L@CIGAOKOL@AES256?9SHA?$AA@ 00000001802df080     yassl:yassl_int.obj
 0002:0027f090       ??_C@_0BD@OPNGMGD@DHE?9DSS?9AES256?9SHA?$AA@ 00000001802df090     yassl:yassl_int.obj
 0002:0027f0a8       ??_C@_0BD@LMDODEEP@DHE?9RSA?9AES256?9SHA?$AA@ 00000001802df0a8     yassl:yassl_int.obj
 0002:0027f0c0       ??_C@_0BF@EGKJPLJF@DHE?9DSS?9DES?9CBC3?9RMD?$AA@ 00000001802df0c0     yassl:yassl_int.obj
 0002:0027f0d8       ??_C@_0BD@LMNPGFLF@DHE?9DSS?9AES128?9RMD?$AA@ 00000001802df0d8     yassl:yassl_int.obj
 0002:0027f0f0       ??_C@_0BD@MNPNDNKI@DHE?9DSS?9AES256?9RMD?$AA@ 00000001802df0f0     yassl:yassl_int.obj
 0002:0027f108       ??_C@_0BF@BKCIPLDO@DHE?9RSA?9DES?9CBC3?9RMD?$AA@ 00000001802df108     yassl:yassl_int.obj
 0002:0027f120       ??_C@_0BD@OBMDNJJ@DHE?9RSA?9AES128?9RMD?$AA@ 00000001802df120     yassl:yassl_int.obj
 0002:0027f138       ??_C@_0BD@HPDOGFIE@DHE?9RSA?9AES256?9RMD?$AA@ 00000001802df138     yassl:yassl_int.obj
 0002:0027f150       ??_C@_0N@LBCIOJFO@DES?9CBC3?9RMD?$AA@ 00000001802df150     yassl:yassl_int.obj
 0002:0027f160       ??_C@_0L@JKECODDN@AES128?9RMD?$AA@ 00000001802df160     yassl:yassl_int.obj
 0002:0027f170       ??_C@_0L@OLGALLCA@AES256?9RMD?$AA@ 00000001802df170     yassl:yassl_int.obj
 0002:0027f17c       ??_C@_01IHBHIGKO@?0?$AA@   00000001802df17c     yassl:crypto_wrapper.obj
 0002:0027f180       __real@3fc68a288b60c8b3    00000001802df180     strings:dtoa.obj
 0002:0027f188       __real@3fcfffff94a03595    00000001802df188     strings:dtoa.obj
 0002:0027f190       __real@3fd287a7636f4361    00000001802df190     strings:dtoa.obj
 0002:0027f198       __real@3fd34413509f79fb    00000001802df198     strings:dtoa.obj
 0002:0027f1a0       __real@3fdfffff94a03595    00000001802df1a0     strings:dtoa.obj
 0002:0027f1a8       __real@3fe0000000000000    00000001802df1a8     strings:dtoa.obj
 0002:0027f1b0       __real@3fe0000035afe535    00000001802df1b0     strings:dtoa.obj
 0002:0027f1b8       __real@3ff0000000000000    00000001802df1b8     strings:dtoa.obj
 0002:0027f1c0       __real@3ff8000000000000    00000001802df1c0     strings:dtoa.obj
 0002:0027f1c8       __real@4000000000000000    00000001802df1c8     strings:dtoa.obj
 0002:0027f1d0       __real@4014000000000000    00000001802df1d0     taocrypt:dh.obj
 0002:0027f1d8       __real@401c000000000000    00000001802df1d8     strings:dtoa.obj
 0002:0027f1e0       __real@4024000000000000    00000001802df1e0     strings:dtoa.obj
 0002:0027f1e8       __real@403f000000000000    00000001802df1e8     clientlib:password.obj
 0002:0027f1f0       __real@4050000000000000    00000001802df1f0     clientlib:password.obj
 0002:0027f1f8       __real@408f400000000000    00000001802df1f8     clientlib:client.obj
 0002:0027f200       __real@41cfffffff800000    00000001802df200     clientlib:password.obj
 0002:0027f208       __real@41dfffffffc00000    00000001802df208     strings:dtoa.obj
 0002:0027f210       __real@75154fdd7f73bf3c    00000001802df210     strings:dtoa.obj
 0002:0027f218       __real@7fefffffffffffff    00000001802df218     strings:dtoa.obj
 0002:0027f220       __real@bff0000000000000    00000001802df220     binding.obj
 0002:0027f228       __real@c014000000000000    00000001802df228     strings:dtoa.obj
 0002:0027f230       __real@ffefffffffffffff    00000001802df230     strings:dtoa.obj
 0002:0027f240       __xmm@80000000000000008000000000000000 00000001802df240     strings:dtoa.obj
 0002:0027f250       __xmm@ffffffffffffffffffffffffffffffff 00000001802df250     strings:ctype-simple.obj
 0002:00280820       __log_256_lead             00000001802e0820     libucrt:log_256_lead_tail_table.obj
 0002:00281030       __log_256_tail             00000001802e1030     libucrt:log_256_lead_tail_table.obj
 0002:00281840       __two_to_jby64_head_table  00000001802e1840     libucrt:two_to_jby64_head_tail_table.obj
 0002:00281a40       __two_to_jby64_tail_table  00000001802e1a40     libucrt:two_to_jby64_head_tail_table.obj
 0002:00281cb0       ??_R4exception@std@@6B@    00000001802e1cb0     LIBCMT:throw_bad_alloc.obj
 0002:00281cd8       ??_R3exception@std@@8      00000001802e1cd8     LIBCMT:throw_bad_alloc.obj
 0002:00281cf0       ??_R2exception@std@@8      00000001802e1cf0     LIBCMT:throw_bad_alloc.obj
 0002:00281d00       ??_R1A@?0A@EA@exception@std@@8 00000001802e1d00     LIBCMT:throw_bad_alloc.obj
 0002:00281d28       ??_R4bad_alloc@std@@6B@    00000001802e1d28     LIBCMT:throw_bad_alloc.obj
 0002:00281d50       ??_R3bad_alloc@std@@8      00000001802e1d50     LIBCMT:throw_bad_alloc.obj
 0002:00281d68       ??_R2bad_alloc@std@@8      00000001802e1d68     LIBCMT:throw_bad_alloc.obj
 0002:00281d80       ??_R1A@?0A@EA@bad_alloc@std@@8 00000001802e1d80     LIBCMT:throw_bad_alloc.obj
 0002:00281da8       ??_R4bad_array_new_length@std@@6B@ 00000001802e1da8     LIBCMT:throw_bad_alloc.obj
 0002:00281dd0       ??_R3bad_array_new_length@std@@8 00000001802e1dd0     LIBCMT:throw_bad_alloc.obj
 0002:00281de8       ??_R2bad_array_new_length@std@@8 00000001802e1de8     LIBCMT:throw_bad_alloc.obj
 0002:00281e08       ??_R1A@?0A@EA@bad_array_new_length@std@@8 00000001802e1e08     LIBCMT:throw_bad_alloc.obj
 0002:00281e30       ??_R4type_info@@6B@        00000001802e1e30     LIBCMT:std_type_info_static.obj
 0002:00281e58       ??_R3type_info@@8          00000001802e1e58     LIBCMT:std_type_info_static.obj
 0002:00281e70       ??_R2type_info@@8          00000001802e1e70     LIBCMT:std_type_info_static.obj
 0002:00281e80       ??_R1A@?0A@EA@type_info@@8 00000001802e1e80     LIBCMT:std_type_info_static.obj
 0002:002822b0       __rtc_iaa                  00000001802e22b0     LIBCMT:_initsect_.obj
 0002:002822b8       __rtc_izz                  00000001802e22b8     LIBCMT:_initsect_.obj
 0002:002822c0       __rtc_taa                  00000001802e22c0     LIBCMT:_initsect_.obj
 0002:002822c8       __rtc_tzz                  00000001802e22c8     LIBCMT:_initsect_.obj
 0002:002871e0       _TI2?AVbad_alloc@std@@     00000001802e71e0     LIBCMT:throw_bad_alloc.obj
 0002:00287200       _CTA2?AVbad_alloc@std@@    00000001802e7200     LIBCMT:throw_bad_alloc.obj
 0002:00287218       _CT??_R0?AVbad_alloc@std@@@8??0bad_alloc@std@@QEAA@AEBV01@@Z24 00000001802e7218     LIBCMT:throw_bad_alloc.obj
 0002:00287240       _CT??_R0?AVexception@std@@@8??0exception@std@@QEAA@AEBV01@@Z24 00000001802e7240     LIBCMT:throw_bad_alloc.obj
 0002:00287268       _TI3?AVbad_array_new_length@std@@ 00000001802e7268     LIBCMT:throw_bad_alloc.obj
 0002:00287288       _CTA3?AVbad_array_new_length@std@@ 00000001802e7288     LIBCMT:throw_bad_alloc.obj
 0002:002872a8       _CT??_R0?AVbad_array_new_length@std@@@8??0bad_array_new_length@std@@QEAA@AEBV01@@Z24 00000001802e72a8     LIBCMT:throw_bad_alloc.obj
 0002:002872cc       __DELAY_IMPORT_DESCRIPTOR_node_exe 00000001802e72cc     node:node.exe
 0002:002872ec       __NULL_DELAY_IMPORT_DESCRIPTOR 00000001802e72ec     node:node.exe
 0002:00287500       \177node_NULL_THUNK_DATA_DLN 00000001802e7500     node:node.exe
 0002:00288498       \177node_NULL_THUNK_DATA_DLB 00000001802e8498     node:node.exe
 0002:002886e8       __IMPORT_DESCRIPTOR_KERNEL32 00000001802e86e8     kernel32:KERNEL32.dll
 0002:002886fc       __IMPORT_DESCRIPTOR_WS2_32 00000001802e86fc     ws2_32:WS2_32.dll
 0002:00288710       __IMPORT_DESCRIPTOR_ADVAPI32 00000001802e8710     advapi32:ADVAPI32.dll
 0002:00288724       __NULL_IMPORT_DESCRIPTOR   00000001802e8724     kernel32:KERNEL32.dll
 0003:00000000       __scrt_native_dllmain_reason 00000001802ea000     LIBCMT:utility.obj
 0003:00000008       __security_cookie          00000001802ea008     LIBCMT:gs_cookie.obj
 0003:00000010       __security_cookie_complement 00000001802ea010     LIBCMT:gs_cookie.obj
 0003:00000018       __isa_available            00000001802ea018     LIBCMT:_cpu_disp_.obj
 0003:0000001c       __isa_enabled              00000001802ea01c     LIBCMT:_cpu_disp_.obj
 0003:00000020       __memcpy_nt_iters          00000001802ea020     LIBCMT:_cpu_disp_.obj
 0003:00000050       _iob                       00000001802ea050     libucrt:_file.obj
 0003:0000017c       __abort_behavior           00000001802ea17c     libucrt:abort.obj
 0003:00000190       __acrt_initial_locale_data 00000001802ea190     libucrt:nlsdata.obj
 0003:000002e8       __acrt_initial_locale_pointers 00000001802ea2e8     libucrt:nlsdata.obj
 0003:000002f8       __acrt_wide_c_locale_string 00000001802ea2f8     libucrt:nlsdata.obj
 0003:00000300       __badioinfo                00000001802ea300     libucrt:ioinit.obj
 0003:00000340       _pwctype                   00000001802ea340     libucrt:ctype.obj
 0003:000003e0       _lookuptrailbytes          00000001802ea3e0     libucrt:read.obj
 0003:000004e0       __acrt_initial_multibyte_data 00000001802ea4e0     libucrt:mbctype.obj
 0003:00000708       __acrt_current_multibyte_data 00000001802ea708     libucrt:mbctype.obj
 0003:00000810       _mbctype                   00000001802ea810     libucrt:mbctype.obj
 0003:00000920       _mbcasemap                 00000001802ea920     libucrt:mbctype.obj
 0003:00000a20       __globallocalestatus       00000001802eaa20     libucrt:glstatus.obj
 0003:00000a30       __acrt_lconv_c             00000001802eaa30     libucrt:localeconv.obj
 0003:00000ac8       __acrt_lconv_static_decimal 00000001802eaac8     libucrt:localeconv.obj
 0003:00000acc       __acrt_lconv_static_W_decimal 00000001802eaacc     libucrt:localeconv.obj
 0003:00000ae0       __dcrt_lowio_console_output_handle 00000001802eaae0     libucrt:initcon.obj
 0003:00000b00       _fltused                   00000001802eab00     LIBCMT:fltused.obj
 0003:00000b70       mysql_client_builtins      00000001802eab70     clientlib:client.obj
 0003:00000b88       sql_protocol_typelib       00000001802eab88     clientlib:client.obj
 0003:00000ba8       sql_protocol_names_lib     00000001802eaba8     clientlib:client.obj
 0003:00000e44       max_allowed_packet         00000001802eae44     clientlib:libmysql.obj
 0003:00000e48       net_buffer_length          00000001802eae48     clientlib:libmysql.obj
 0003:00000ea0       client_errors              00000001802eaea0     clientlib:errmsg.obj
 0003:000010f8       my_thread_stack_size       00000001802eb0f8     mysys:my_init.obj
 0003:00001100       globerrs                   00000001802eb100     mysys:errors.obj
 0003:00001218       error_handler_hook         00000001802eb218     mysys:my_static.obj
 0003:00001220       my_file_info               00000001802eb220     mysys:my_static.obj
 0003:00001460       my_charset_bin             00000001802eb460     strings:ctype-bin.obj
 0003:00001510       my_charset_latin1          00000001802eb510     strings:ctype-latin1.obj
 0003:000015c0       my_charset_latin1_german2_ci 00000001802eb5c0     strings:ctype-latin1.obj
 0003:00001670       my_charset_latin1_bin      00000001802eb670     strings:ctype-latin1.obj
 0003:00001880       my_charset_utf8_unicode_ci 00000001802eb880     strings:ctype-uca.obj
 0003:00001930       my_charset_utf16_unicode_ci 00000001802eb930     strings:ctype-uca.obj
 0003:000019e0       my_charset_utf8mb4_unicode_ci 00000001802eb9e0     strings:ctype-uca.obj
 0003:00001a90       my_charset_utf32_unicode_ci 00000001802eba90     strings:ctype-uca.obj
 0003:00001b40       my_charset_ucs2_unicode_ci 00000001802ebb40     strings:ctype-uca.obj
 0003:00001bf0       my_charset_utf8_spanish_uca_ci 00000001802ebbf0     strings:ctype-uca.obj
 0003:00001ca0       my_charset_ucs2_croatian_mysql561_uca_ci 00000001802ebca0     strings:ctype-uca.obj
 0003:00001d50       my_charset_utf32_latvian_uca_ci 00000001802ebd50     strings:ctype-uca.obj
 0003:00001e00       my_charset_utf8mb4_lithuanian_uca_ci 00000001802ebe00     strings:ctype-uca.obj
 0003:00001eb0       my_charset_utf8mb4_swedish_uca_ci 00000001802ebeb0     strings:ctype-uca.obj
 0003:00001f60       my_charset_utf32_german2_uca_ci 00000001802ebf60     strings:ctype-uca.obj
 0003:00002010       my_charset_utf16_unicode_520_ci 00000001802ec010     strings:ctype-uca.obj
 0003:000020c0       my_charset_utf32_spanish2_uca_ci 00000001802ec0c0     strings:ctype-uca.obj
 0003:00002170       my_charset_utf16_czech_uca_ci 00000001802ec170     strings:ctype-uca.obj
 0003:00002220       my_charset_ucs2_spanish2_uca_ci 00000001802ec220     strings:ctype-uca.obj
 0003:000022d0       my_charset_utf16_romanian_uca_ci 00000001802ec2d0     strings:ctype-uca.obj
 0003:00002380       my_charset_ucs2_roman_uca_ci 00000001802ec380     strings:ctype-uca.obj
 0003:00002430       my_charset_utf32_roman_uca_ci 00000001802ec430     strings:ctype-uca.obj
 0003:000024e0       my_charset_utf16_croatian_uca_ci 00000001802ec4e0     strings:ctype-uca.obj
 0003:00002590       my_charset_utf32_romanian_uca_ci 00000001802ec590     strings:ctype-uca.obj
 0003:00002640       my_charset_utf8mb4_esperanto_uca_ci 00000001802ec640     strings:ctype-uca.obj
 0003:000026f0       my_charset_utf32_myanmar_uca_ci 00000001802ec6f0     strings:ctype-uca.obj
 0003:000027a0       my_charset_ucs2_turkish_uca_ci 00000001802ec7a0     strings:ctype-uca.obj
 0003:00002850       my_charset_utf8mb4_croatian_uca_ci 00000001802ec850     strings:ctype-uca.obj
 0003:00002900       my_charset_utf8_sinhala_uca_ci 00000001802ec900     strings:ctype-uca.obj
 0003:000029b0       my_charset_utf32_swedish_uca_ci 00000001802ec9b0     strings:ctype-uca.obj
 0003:00002a60       my_charset_utf8mb4_roman_uca_ci 00000001802eca60     strings:ctype-uca.obj
 0003:00002b10       my_charset_utf16_hungarian_uca_ci 00000001802ecb10     strings:ctype-uca.obj
 0003:00002bc0       my_charset_ucs2_slovak_uca_ci 00000001802ecbc0     strings:ctype-uca.obj
 0003:00002c70       my_charset_utf8_lithuanian_uca_ci 00000001802ecc70     strings:ctype-uca.obj
 0003:00002d20       my_charset_ucs2_esperanto_uca_ci 00000001802ecd20     strings:ctype-uca.obj
 0003:00002dd0       my_charset_utf32_estonian_uca_ci 00000001802ecdd0     strings:ctype-uca.obj
 0003:00002e80       my_charset_utf8mb4_icelandic_uca_ci 00000001802ece80     strings:ctype-uca.obj
 0003:00002f30       my_charset_utf16_spanish2_uca_ci 00000001802ecf30     strings:ctype-uca.obj
 0003:00002fe0       my_charset_utf8_persian_uca_ci 00000001802ecfe0     strings:ctype-uca.obj
 0003:00003090       my_charset_utf8mb4_sinhala_uca_ci 00000001802ed090     strings:ctype-uca.obj
 0003:00003140       my_charset_ucs2_romanian_uca_ci 00000001802ed140     strings:ctype-uca.obj
 0003:000031f0       my_charset_ucs2_myanmar_uca_ci 00000001802ed1f0     strings:ctype-uca.obj
 0003:000032a0       my_charset_ucs2_estonian_uca_ci 00000001802ed2a0     strings:ctype-uca.obj
 0003:00003350       my_charset_ucs2_czech_uca_ci 00000001802ed350     strings:ctype-uca.obj
 0003:00003400       my_charset_utf8mb4_slovak_uca_ci 00000001802ed400     strings:ctype-uca.obj
 0003:000034b0       my_charset_utf8_danish_uca_ci 00000001802ed4b0     strings:ctype-uca.obj
 0003:00003560       my_charset_utf16_swedish_uca_ci 00000001802ed560     strings:ctype-uca.obj
 0003:00003610       my_charset_utf8_roman_uca_ci 00000001802ed610     strings:ctype-uca.obj
 0003:000036c0       my_charset_utf8_spanish2_uca_ci 00000001802ed6c0     strings:ctype-uca.obj
 0003:00003770       my_charset_utf8mb4_spanish_uca_ci 00000001802ed770     strings:ctype-uca.obj
 0003:00003820       my_charset_utf16_esperanto_uca_ci 00000001802ed820     strings:ctype-uca.obj
 0003:000038d0       my_charset_utf16_persian_uca_ci 00000001802ed8d0     strings:ctype-uca.obj
 0003:00003980       my_charset_ucs2_polish_uca_ci 00000001802ed980     strings:ctype-uca.obj
 0003:00003a30       my_charset_utf8mb4_latvian_uca_ci 00000001802eda30     strings:ctype-uca.obj
 0003:00003ae0       my_charset_utf8mb4_croatian_mysql561_uca_ci 00000001802edae0     strings:ctype-uca.obj
 0003:00003b90       my_charset_utf8mb4_slovenian_uca_ci 00000001802edb90     strings:ctype-uca.obj
 0003:00003c40       my_charset_utf32_croatian_mysql561_uca_ci 00000001802edc40     strings:ctype-uca.obj
 0003:00003cf0       my_charset_utf32_esperanto_uca_ci 00000001802edcf0     strings:ctype-uca.obj
 0003:00003da0       my_charset_utf32_hungarian_uca_ci 00000001802edda0     strings:ctype-uca.obj
 0003:00003e50       my_charset_utf8_swedish_uca_ci 00000001802ede50     strings:ctype-uca.obj
 0003:00003f00       my_charset_utf8mb4_german2_uca_ci 00000001802edf00     strings:ctype-uca.obj
 0003:00003fb0       my_charset_ucs2_danish_uca_ci 00000001802edfb0     strings:ctype-uca.obj
 0003:00004060       my_charset_ucs2_icelandic_uca_ci 00000001802ee060     strings:ctype-uca.obj
 0003:00004110       my_charset_utf8_croatian_uca_ci 00000001802ee110     strings:ctype-uca.obj
 0003:000041c0       my_charset_utf8_latvian_uca_ci 00000001802ee1c0     strings:ctype-uca.obj
 0003:00004270       my_charset_utf16_danish_uca_ci 00000001802ee270     strings:ctype-uca.obj
 0003:00004320       my_charset_utf32_unicode_520_ci 00000001802ee320     strings:ctype-uca.obj
 0003:000043d0       my_charset_ucs2_spanish_uca_ci 00000001802ee3d0     strings:ctype-uca.obj
 0003:00004480       my_charset_utf8_croatian_mysql561_uca_ci 00000001802ee480     strings:ctype-uca.obj
 0003:00004530       my_charset_ucs2_lithuanian_uca_ci 00000001802ee530     strings:ctype-uca.obj
 0003:000045e0       my_charset_utf16_lithuanian_uca_ci 00000001802ee5e0     strings:ctype-uca.obj
 0003:00004690       my_charset_utf16_spanish_uca_ci 00000001802ee690     strings:ctype-uca.obj
 0003:00004740       my_charset_utf8_estonian_uca_ci 00000001802ee740     strings:ctype-uca.obj
 0003:000047f0       my_charset_utf32_spanish_uca_ci 00000001802ee7f0     strings:ctype-uca.obj
 0003:000048a0       my_charset_utf8_esperanto_uca_ci 00000001802ee8a0     strings:ctype-uca.obj
 0003:00004950       my_charset_utf32_icelandic_uca_ci 00000001802ee950     strings:ctype-uca.obj
 0003:00004a00       my_charset_utf32_persian_uca_ci 00000001802eea00     strings:ctype-uca.obj
 0003:00004ab0       my_charset_utf8mb4_romanian_uca_ci 00000001802eeab0     strings:ctype-uca.obj
 0003:00004b60       my_charset_utf32_vietnamese_ci 00000001802eeb60     strings:ctype-uca.obj
 0003:00004c10       my_charset_utf8_slovak_uca_ci 00000001802eec10     strings:ctype-uca.obj
 0003:00004cc0       my_charset_utf32_sinhala_uca_ci 00000001802eecc0     strings:ctype-uca.obj
 0003:00004d70       my_charset_utf8_czech_uca_ci 00000001802eed70     strings:ctype-uca.obj
 0003:00004e20       my_charset_utf32_polish_uca_ci 00000001802eee20     strings:ctype-uca.obj
 0003:00004ed0       my_charset_utf8mb4_vietnamese_ci 00000001802eeed0     strings:ctype-uca.obj
 0003:00004f80       my_charset_utf16_latvian_uca_ci 00000001802eef80     strings:ctype-uca.obj
 0003:00005030       my_charset_utf8_turkish_uca_ci 00000001802ef030     strings:ctype-uca.obj
 0003:000050e0       my_charset_utf8_polish_uca_ci 00000001802ef0e0     strings:ctype-uca.obj
 0003:00005190       my_charset_utf32_czech_uca_ci 00000001802ef190     strings:ctype-uca.obj
 0003:00005240       my_charset_utf16_sinhala_uca_ci 00000001802ef240     strings:ctype-uca.obj
 0003:000052f0       my_charset_utf8mb4_spanish2_uca_ci 00000001802ef2f0     strings:ctype-uca.obj
 0003:000053a0       my_charset_utf8mb4_unicode_520_ci 00000001802ef3a0     strings:ctype-uca.obj
 0003:00005450       my_charset_utf8mb4_myanmar_uca_ci 00000001802ef450     strings:ctype-uca.obj
 0003:00005500       my_charset_ucs2_latvian_uca_ci 00000001802ef500     strings:ctype-uca.obj
 0003:000055b0       my_charset_utf32_turkish_uca_ci 00000001802ef5b0     strings:ctype-uca.obj
 0003:00005660       my_charset_ucs2_vietnamese_ci 00000001802ef660     strings:ctype-uca.obj
 0003:00005710       my_charset_utf16_estonian_uca_ci 00000001802ef710     strings:ctype-uca.obj
 0003:000057c0       my_charset_utf16_slovak_uca_ci 00000001802ef7c0     strings:ctype-uca.obj
 0003:00005870       my_charset_utf8mb4_polish_uca_ci 00000001802ef870     strings:ctype-uca.obj
 0003:00005920       my_charset_utf16_myanmar_uca_ci 00000001802ef920     strings:ctype-uca.obj
 0003:000059d0       my_charset_utf8_unicode_520_ci 00000001802ef9d0     strings:ctype-uca.obj
 0003:00005a80       my_charset_utf32_croatian_uca_ci 00000001802efa80     strings:ctype-uca.obj
 0003:00005b30       my_charset_utf8_icelandic_uca_ci 00000001802efb30     strings:ctype-uca.obj
 0003:00005be0       my_charset_utf16_icelandic_uca_ci 00000001802efbe0     strings:ctype-uca.obj
 0003:00005c90       my_charset_ucs2_persian_uca_ci 00000001802efc90     strings:ctype-uca.obj
 0003:00005d40       my_charset_ucs2_slovenian_uca_ci 00000001802efd40     strings:ctype-uca.obj
 0003:00005df0       my_charset_ucs2_hungarian_uca_ci 00000001802efdf0     strings:ctype-uca.obj
 0003:00005ea0       my_charset_ucs2_sinhala_uca_ci 00000001802efea0     strings:ctype-uca.obj
 0003:00005f50       my_charset_utf8_myanmar_uca_ci 00000001802eff50     strings:ctype-uca.obj
 0003:00006000       my_charset_utf32_danish_uca_ci 00000001802f0000     strings:ctype-uca.obj
 0003:000060b0       my_charset_utf8_romanian_uca_ci 00000001802f00b0     strings:ctype-uca.obj
 0003:00006160       my_charset_utf16_slovenian_uca_ci 00000001802f0160     strings:ctype-uca.obj
 0003:00006210       my_charset_utf8_hungarian_uca_ci 00000001802f0210     strings:ctype-uca.obj
 0003:000062c0       my_charset_utf16_german2_uca_ci 00000001802f02c0     strings:ctype-uca.obj
 0003:00006370       my_charset_ucs2_unicode_520_ci 00000001802f0370     strings:ctype-uca.obj
 0003:00006420       my_charset_utf16_vietnamese_ci 00000001802f0420     strings:ctype-uca.obj
 0003:000064d0       my_charset_utf16_croatian_mysql561_uca_ci 00000001802f04d0     strings:ctype-uca.obj
 0003:00006580       my_charset_utf8_slovenian_uca_ci 00000001802f0580     strings:ctype-uca.obj
 0003:00006630       my_charset_utf8_vietnamese_ci 00000001802f0630     strings:ctype-uca.obj
 0003:000066e0       my_charset_utf8mb4_persian_uca_ci 00000001802f06e0     strings:ctype-uca.obj
 0003:00006790       my_charset_ucs2_german2_uca_ci 00000001802f0790     strings:ctype-uca.obj
 0003:00006840       my_charset_utf32_slovak_uca_ci 00000001802f0840     strings:ctype-uca.obj
 0003:000068f0       my_charset_utf32_slovenian_uca_ci 00000001802f08f0     strings:ctype-uca.obj
 0003:000069a0       my_charset_utf8mb4_turkish_uca_ci 00000001802f09a0     strings:ctype-uca.obj
 0003:00006a50       my_charset_utf8mb4_danish_uca_ci 00000001802f0a50     strings:ctype-uca.obj
 0003:00006b00       my_charset_utf8_german2_uca_ci 00000001802f0b00     strings:ctype-uca.obj
 0003:00006bb0       my_charset_utf32_lithuanian_uca_ci 00000001802f0bb0     strings:ctype-uca.obj
 0003:00006c60       my_charset_utf16_polish_uca_ci 00000001802f0c60     strings:ctype-uca.obj
 0003:00006d10       my_charset_utf16_roman_uca_ci 00000001802f0d10     strings:ctype-uca.obj
 0003:00006dc0       my_charset_utf8mb4_czech_uca_ci 00000001802f0dc0     strings:ctype-uca.obj
 0003:00006e70       my_charset_ucs2_swedish_uca_ci 00000001802f0e70     strings:ctype-uca.obj
 0003:00006f20       my_charset_utf16_turkish_uca_ci 00000001802f0f20     strings:ctype-uca.obj
 0003:00006fd0       my_charset_ucs2_croatian_uca_ci 00000001802f0fd0     strings:ctype-uca.obj
 0003:00007080       my_charset_utf8mb4_hungarian_uca_ci 00000001802f1080     strings:ctype-uca.obj
 0003:00007130       my_charset_utf8mb4_estonian_uca_ci 00000001802f1130     strings:ctype-uca.obj
 0003:000071e0       my_uca_v400                00000001802f11e0     strings:ctype-uca.obj
 0003:0000fb60       my_uca_v520                00000001802f9b60     strings:ctype-uca.obj
 0003:0000fbc0       my_charset_utf8_general_ci 00000001802f9bc0     strings:ctype-utf8.obj
 0003:0000fc70       my_charset_utf8_general_mysql500_ci 00000001802f9c70     strings:ctype-utf8.obj
 0003:0000fd20       my_charset_utf8mb4_general_ci 00000001802f9d20     strings:ctype-utf8.obj
 0003:0000fdd0       my_charset_utf8mb4_bin     00000001802f9dd0     strings:ctype-utf8.obj
 0003:0000fe80       my_charset_utf8_bin        00000001802f9e80     strings:ctype-utf8.obj
 0003:0000ff30       my_charset_filename        00000001802f9f30     strings:ctype-utf8.obj
 0003:000154f0       my_unicase_pages_unicode520 00000001802ff4f0     strings:ctype-utf8.obj
 0003:00021ef0       my_unicase_pages_mysql500  000000018030bef0     strings:ctype-utf8.obj
 0003:000352f0       my_charset_cp932_japanese_ci 000000018031f2f0     strings:ctype-cp932.obj
 0003:000353a0       my_charset_cp932_bin       000000018031f3a0     strings:ctype-cp932.obj
 0003:0003b050       my_charset_cp1250_czech_ci 0000000180325050     strings:ctype-win1250ch.obj
 0003:0003b100       my_charset_ucs2_general_ci 0000000180325100     strings:ctype-ucs2.obj
 0003:0003b1b0       my_charset_utf16le_bin     00000001803251b0     strings:ctype-ucs2.obj
 0003:0003b260       my_charset_utf16_general_ci 0000000180325260     strings:ctype-ucs2.obj
 0003:0003b310       my_charset_ucs2_bin        0000000180325310     strings:ctype-ucs2.obj
 0003:0003b3c0       my_charset_ucs2_general_mysql500_ci 00000001803253c0     strings:ctype-ucs2.obj
 0003:0003b470       my_charset_utf16le_general_ci 0000000180325470     strings:ctype-ucs2.obj
 0003:0003b520       my_charset_utf32_general_ci 0000000180325520     strings:ctype-ucs2.obj
 0003:0003b5d0       my_charset_utf32_bin       00000001803255d0     strings:ctype-ucs2.obj
 0003:0003b680       my_charset_utf16_bin       0000000180325680     strings:ctype-ucs2.obj
 0003:0003b730       my_charset_euckr_korean_ci 0000000180325730     strings:ctype-euc_kr.obj
 0003:0003b7e0       my_charset_euckr_bin       00000001803257e0     strings:ctype-euc_kr.obj
 0003:00040890       my_charset_eucjpms_japanese_ci 000000018032a890     strings:ctype-eucjpms.obj
 0003:00040940       my_charset_eucjpms_bin     000000018032a940     strings:ctype-eucjpms.obj
 0003:0004a9f0       my_charset_ujis_bin        00000001803349f0     strings:ctype-ujis.obj
 0003:0004aaa0       my_charset_ujis_japanese_ci 0000000180334aa0     strings:ctype-ujis.obj
 0003:00052750       my_charset_gb2312_chinese_ci 000000018033c750     strings:ctype-gb2312.obj
 0003:00052800       my_charset_gb2312_bin      000000018033c800     strings:ctype-gb2312.obj
 0003:00056cb0       my_charset_latin2_czech_ci 0000000180340cb0     strings:ctype-czech.obj
 0003:00056d60       my_charset_big5_chinese_ci 0000000180340d60     strings:ctype-big5.obj
 0003:00056e10       my_charset_big5_bin        0000000180340e10     strings:ctype-big5.obj
 0003:00059ac0       my_charset_tis620_thai_ci  0000000180343ac0     strings:ctype-tis620.obj
 0003:00059b70       my_charset_tis620_bin      0000000180343b70     strings:ctype-tis620.obj
 0003:00059f30       compiled_charsets          0000000180343f30     strings:ctype-extra.obj
 0003:0005c9d0       my_charset_sjis_bin        00000001803469d0     strings:ctype-sjis.obj
 0003:0005ca80       my_charset_sjis_japanese_ci 0000000180346a80     strings:ctype-sjis.obj
 0003:00060330       my_charset_gbk_chinese_ci  000000018034a330     strings:ctype-gbk.obj
 0003:000603e0       my_charset_gbk_bin         000000018034a3e0     strings:ctype-gbk.obj
 0003:000645f0       ??_R0?AVbad_alloc@std@@@8  000000018034e5f0     LIBCMT:throw_bad_alloc.obj
 0003:00064618       ??_R0?AVexception@std@@@8  000000018034e618     LIBCMT:throw_bad_alloc.obj
 0003:00064640       ??_R0?AVbad_array_new_length@std@@@8 000000018034e640     LIBCMT:throw_bad_alloc.obj
 0003:00064670       ??_R0?AVtype_info@@@8      000000018034e670     LIBCMT:std_type_info_static.obj
 0003:00064690       __imp_?Global@Context@v8@@QEAA?AV?$Local@VObject@v8@@@2@XZ 000000018034e690     node:node.exe
 0003:00064698       __imp_?Value@External@v8@@QEBAPEAXXZ 000000018034e698     node:node.exe
 0003:000646a0       __imp_?New@External@v8@@SA?AV?$Local@VExternal@v8@@@2@PEAVIsolate@2@PEAX@Z 000000018034e6a0     node:node.exe
 0003:000646a8       __imp_?NewFromUnsigned@Integer@v8@@SA?AV?$Local@VInteger@v8@@@2@PEAVIsolate@2@I@Z 000000018034e6a8     node:node.exe
 0003:000646b0       __imp_?New@Signature@v8@@SA?AV?$Local@VSignature@v8@@@2@PEAVIsolate@2@V?$Local@VFunctionTemplate@v8@@@2@@Z 000000018034e6b0     node:node.exe
 0003:000646b8       __imp_?ThrowException@Isolate@v8@@QEAA?AV?$Local@VValue@v8@@@2@V32@@Z 000000018034e6b8     node:node.exe
 0003:000646c0       __imp_?GetCurrentContext@Isolate@v8@@QEAA?AV?$Local@VContext@v8@@@2@XZ 000000018034e6c0     node:node.exe
 0003:000646c8       __imp_?GetCurrent@Isolate@v8@@SAPEAV12@XZ 000000018034e6c8     node:node.exe
 0003:000646d0       __imp_?CreateHandle@HandleScope@v8@@KAPEAPEAVObject@internal@2@PEAVIsolate@42@PEAV342@@Z 000000018034e6d0     node:node.exe
 0003:000646d8       __imp_?CreateHandle@HandleScope@v8@@CAPEAPEAVObject@internal@2@PEAVHeapObject@42@PEAV342@@Z 000000018034e6d8     node:node.exe
 0003:000646e0       __imp_??1HandleScope@v8@@QEAA@XZ 000000018034e6e0     node:node.exe
 0003:000646e8       __imp_??0HandleScope@v8@@QEAA@PEAVIsolate@1@@Z 000000018034e6e8     node:node.exe
 0003:000646f0       __imp_?Set@Template@v8@@QEAAXV?$Local@VName@v8@@@2@V?$Local@VData@v8@@@2@W4PropertyAttribute@2@@Z 000000018034e6f0     node:node.exe
 0003:000646f8       __imp_?Error@Exception@v8@@SA?AV?$Local@VValue@v8@@@2@V?$Local@VString@v8@@@2@@Z 000000018034e6f8     node:node.exe
 0003:00064700       __imp_?TypeError@Exception@v8@@SA?AV?$Local@VValue@v8@@@2@V?$Local@VString@v8@@@2@@Z 000000018034e700     node:node.exe
 0003:00064708       __imp_?New@Array@v8@@SA?AV?$Local@VArray@v8@@@2@PEAVIsolate@2@H@Z 000000018034e708     node:node.exe
 0003:00064710       __imp_?SetClassName@FunctionTemplate@v8@@QEAAXV?$Local@VString@v8@@@2@@Z 000000018034e710     node:node.exe
 0003:00064718       __imp_?PrototypeTemplate@FunctionTemplate@v8@@QEAA?AV?$Local@VObjectTemplate@v8@@@2@XZ 000000018034e718     node:node.exe
 0003:00064720       __imp_?InstanceTemplate@FunctionTemplate@v8@@QEAA?AV?$Local@VObjectTemplate@v8@@@2@XZ 000000018034e720     node:node.exe
 0003:00064728       __imp_?GetFunction@FunctionTemplate@v8@@QEAA?AV?$Local@VFunction@v8@@@2@XZ 000000018034e728     node:node.exe
 0003:00064730       __imp_?New@FunctionTemplate@v8@@SA?AV?$Local@VFunctionTemplate@v8@@@2@PEAVIsolate@2@P6AXAEBV?$FunctionCallbackInfo@VValue@v8@@@2@@ZV?$Local@VValue@v8@@@2@V?$Local@VSignature@v8@@@2@HW4ConstructorBehavior@2@@Z 000000018034e730     node:node.exe
 0003:00064738       __imp_?ToLocalEmpty@V8@v8@@CAXXZ 000000018034e738     node:node.exe
 0003:00064740       __imp_?ClearWeak@V8@v8@@CAPEAXPEAPEAVObject@internal@2@@Z 000000018034e740     node:node.exe
 0003:00064748       __imp_?MakeWeak@V8@v8@@CAXPEAPEAVObject@internal@2@PEAXP6AXAEBV?$WeakCallbackInfo@X@2@@ZW4WeakCallbackType@2@@Z 000000018034e748     node:node.exe
 0003:00064750       __imp_?DisposeGlobal@V8@v8@@CAXPEAPEAVObject@internal@2@@Z 000000018034e750     node:node.exe
 0003:00064758       __imp_?GlobalizeReference@V8@v8@@CAPEAPEAVObject@internal@2@PEAVIsolate@42@PEAPEAV342@@Z 000000018034e758     node:node.exe
 0003:00064760       __imp_?Uint32Value@Value@v8@@QEBAIXZ 000000018034e760     node:node.exe
 0003:00064768       __imp_?BooleanValue@Value@v8@@QEBA_NXZ 000000018034e768     node:node.exe
 0003:00064770       __imp_?ToInteger@Value@v8@@QEBA?AV?$MaybeLocal@VInteger@v8@@@2@V?$Local@VContext@v8@@@2@@Z 000000018034e770     node:node.exe
 0003:00064778       __imp_?IsUint32@Value@v8@@QEBA_NXZ 000000018034e778     node:node.exe
 0003:00064780       __imp_?IsBoolean@Value@v8@@QEBA_NXZ 000000018034e780     node:node.exe
 0003:00064788       __imp_?IsObject@Value@v8@@QEBA_NXZ 000000018034e788     node:node.exe
 0003:00064790       __imp_?IsFunction@Value@v8@@QEBA_NXZ 000000018034e790     node:node.exe
 0003:00064798       __imp_?Escape@EscapableHandleScope@v8@@AEAAPEAPEAVObject@internal@2@PEAPEAV342@@Z 000000018034e798     node:node.exe
 0003:000647a0       __imp_??0EscapableHandleScope@v8@@QEAA@PEAVIsolate@1@@Z 000000018034e7a0     node:node.exe
 0003:000647a8       __imp_?NewFromTwoByte@String@v8@@SA?AV?$MaybeLocal@VString@v8@@@2@PEAVIsolate@2@PEBGW4NewStringType@2@H@Z 000000018034e7a8     node:node.exe
 0003:000647b0       __imp_?NewFromUtf8@String@v8@@SA?AV?$MaybeLocal@VString@v8@@@2@PEAVIsolate@2@PEBDW4NewStringType@2@H@Z 000000018034e7b0     node:node.exe
 0003:000647b8       __imp_?WriteUtf8@String@v8@@QEBAHPEADHPEAHH@Z 000000018034e7b8     node:node.exe
 0003:000647c0       __imp_?Length@String@v8@@QEBAHXZ 000000018034e7c0     node:node.exe
 0003:000647c8       __imp_?SlowGetAlignedPointerFromInternalField@Object@v8@@AEAAPEAXH@Z 000000018034e7c8     node:node.exe
 0003:000647d0       __imp_?SlowGetInternalField@Object@v8@@AEAA?AV?$Local@VValue@v8@@@2@H@Z 000000018034e7d0     node:node.exe
 0003:000647d8       __imp_?New@Object@v8@@SA?AV?$Local@VObject@v8@@@2@PEAVIsolate@2@@Z 000000018034e7d8     node:node.exe
 0003:000647e0       __imp_?SetAlignedPointerInInternalField@Object@v8@@QEAAXHPEAX@Z 000000018034e7e0     node:node.exe
 0003:000647e8       __imp_?SetInternalField@Object@v8@@QEAAXHV?$Local@VValue@v8@@@2@@Z 000000018034e7e8     node:node.exe
 0003:000647f0       __imp_?InternalFieldCount@Object@v8@@QEAAHXZ 000000018034e7f0     node:node.exe
 0003:000647f8       __imp_?Get@Object@v8@@QEAA?AV?$Local@VValue@v8@@@2@V32@@Z 000000018034e7f8     node:node.exe
 0003:00064800       __imp_?Set@Object@v8@@QEAA_NV?$Local@VValue@v8@@@2@0@Z 000000018034e800     node:node.exe
 0003:00064808       __imp_?Set@Object@v8@@QEAA_NIV?$Local@VValue@v8@@@2@@Z 000000018034e808     node:node.exe
 0003:00064810       __imp_?SetInternalFieldCount@ObjectTemplate@v8@@QEAAXH@Z 000000018034e810     node:node.exe
 0003:00064818       __imp_?NewInstance@ObjectTemplate@v8@@QEAA?AV?$MaybeLocal@VObject@v8@@@2@V?$Local@VContext@v8@@@2@@Z 000000018034e818     node:node.exe
 0003:00064820       __imp_?New@ObjectTemplate@v8@@SA?AV?$Local@VObjectTemplate@v8@@@2@PEAVIsolate@2@V?$Local@VFunctionTemplate@v8@@@2@@Z 000000018034e820     node:node.exe
 0003:00064828       __imp_uv_close             000000018034e828     node:node.exe
 0003:00064830       __imp_uv_poll_stop         000000018034e830     node:node.exe
 0003:00064838       __imp_?EmitAsyncDestroy@node@@YAXPEAVIsolate@v8@@Uasync_context@1@@Z 000000018034e838     node:node.exe
 0003:00064840       __imp_node_module_register 000000018034e840     node:node.exe
 0003:00064848       __imp_?MakeCallback@node@@YA?AV?$MaybeLocal@VValue@v8@@@v8@@PEAVIsolate@3@V?$Local@VObject@v8@@@3@V?$Local@VFunction@v8@@@3@HPEAV?$Local@VValue@v8@@@3@Uasync_context@1@@Z 000000018034e848     node:node.exe
 0003:00064850       __imp_?EmitAsyncInit@node@@YA?AUasync_context@1@PEAVIsolate@v8@@V?$Local@VObject@v8@@@4@V?$Local@VString@v8@@@4@N@Z 000000018034e850     node:node.exe
 0003:00064858       __imp_uv_poll_init_socket  000000018034e858     node:node.exe
 0003:00064860       __imp_uv_poll_start        000000018034e860     node:node.exe
 0003:00064868       __imp_uv_default_loop      000000018034e868     node:node.exe
 0003:00064870       __imp_?ToObject@Value@v8@@QEBA?AV?$Local@VObject@v8@@@2@XZ 000000018034e870     node:node.exe
 0003:00064878       __imp_?ToString@Value@v8@@QEBA?AV?$Local@VString@v8@@@2@XZ 000000018034e878     node:node.exe
 0003:00064880       \177node_NULL_THUNK_DATA_DLA 000000018034e880     node:node.exe
 0003:000648a0       __hmod__node_exe           000000018034e8a0     node:node.exe
 0003:000648a8       __scrt_current_native_startup_state 000000018034e8a8     LIBCMT:utility.obj
 0003:000648b0       __scrt_native_startup_lock 000000018034e8b0     LIBCMT:utility.obj
 0003:00064e60       __favor                    000000018034ee60     LIBCMT:_cpu_disp_.obj
 0003:00064e64       __scrt_debugger_hook_flag  000000018034ee64     LIBCMT:utility_desktop.obj
 0003:00064e70       ?__type_info_root_node@@3U__type_info_node@@A 000000018034ee70     LIBCMT:tncleanup.obj
 0003:00064e80       ?_OptionsStorage@?1??__local_stdio_scanf_options@@9@4_KA 000000018034ee80     LIBCMT:default_local_stdio_options.obj
 0003:00064e88       __pPurecall                000000018034ee88     libvcruntime:purevirt_data.obj
 0003:00064fa8       ?pArgList@UnDecorator@@0PEAVReplicator@@EA 000000018034efa8     libvcruntime:undname.obj
 0003:00064fb0       ?pZNameList@UnDecorator@@0PEAVReplicator@@EA 000000018034efb0     libvcruntime:undname.obj
 0003:00064fb8       ?pTemplateArgList@UnDecorator@@0PEAVReplicator@@EA 000000018034efb8     libvcruntime:undname.obj
 0003:00064fc0       ?gName@UnDecorator@@0PEBDEB 000000018034efc0     libvcruntime:undname.obj
 0003:00064fc8       ?name@UnDecorator@@0PEBDEB 000000018034efc8     libvcruntime:undname.obj
 0003:00064fd0       ?outputString@UnDecorator@@0PEADEA 000000018034efd0     libvcruntime:undname.obj
 0003:00064fd8       ?maxStringLength@UnDecorator@@0HA 000000018034efd8     libvcruntime:undname.obj
 0003:00064fdc       ?disableFlags@UnDecorator@@0KA 000000018034efdc     libvcruntime:undname.obj
 0003:00064fe0       ?fExplicitTemplateParams@UnDecorator@@0_NA 000000018034efe0     libvcruntime:undname.obj
 0003:00064fe1       ?fGetTemplateArgumentList@UnDecorator@@0_NA 000000018034efe1     libvcruntime:undname.obj
 0003:00064fe8       ?m_pGetParameter@UnDecorator@@0P6APEADJ@ZEA 000000018034efe8     libvcruntime:undname.obj
 0003:00065030       _nstream                   000000018034f030     libucrt:_file.obj
 0003:00065038       __piob                     000000018034f038     libucrt:_file.obj
 0003:00065040       _cflush                    000000018034f040     libucrt:_file.obj
 0003:00065138       _umaskval                  000000018034f138     libucrt:umask.obj
 0003:00065258       _environ_table             000000018034f258     libucrt:environment_initialization.obj
 0003:00065260       _wenviron_table            000000018034f260     libucrt:environment_initialization.obj
 0003:00065268       __dcrt_initial_wide_environment 000000018034f268     libucrt:environment_initialization.obj
 0003:00065270       __dcrt_initial_narrow_environment 000000018034f270     libucrt:environment_initialization.obj
 0003:00065278       __acrt_atexit_table        000000018034f278     libucrt:onexit.obj
 0003:00065290       __acrt_at_quick_exit_table 000000018034f290     libucrt:onexit.obj
 0003:000652b0       __acrt_stdout_buffer       000000018034f2b0     libucrt:_sftbuf.obj
 0003:000652b8       __acrt_stderr_buffer       000000018034f2b8     libucrt:_sftbuf.obj
 0003:000652c0       __acrt_locale_changed_data 000000018034f2c0     libucrt:wsetlocale.obj
 0003:000652c8       __acrt_current_locale_data 000000018034f2c8     libucrt:nlsdata.obj
 0003:000652d0       __pioinfo                  000000018034f2d0     libucrt:ioinit.obj
 0003:000656d0       _nhandle                   000000018034f6d0     libucrt:ioinit.obj
 0003:00065a98       ?_timezone@@3V?$dual_state_global@J@__crt_state_management@@A 000000018034fa98     libucrt:timeset.obj
 0003:00065a9c       ?_daylight@@3V?$dual_state_global@H@__crt_state_management@@A 000000018034fa9c     libucrt:timeset.obj
 0003:00065aa0       ?_dstbias@@3V?$dual_state_global@J@__crt_state_management@@A 000000018034faa0     libucrt:timeset.obj
 0003:00065ab0       __mbcodepage               000000018034fab0     libucrt:mbctype.obj
 0003:00065ab4       __ismbcodepage             000000018034fab4     libucrt:mbctype.obj
 0003:00065ab8       __mbulinfo                 000000018034fab8     libucrt:mbctype.obj
 0003:00065ac8       __mblocalename             000000018034fac8     libucrt:mbctype.obj
 0003:00065ad4       __argc                     000000018034fad4     libucrt:argv_data.obj
 0003:00065ad8       __argv                     000000018034fad8     libucrt:argv_data.obj
 0003:00065ae0       __wargv                    000000018034fae0     libucrt:argv_data.obj
 0003:00065ae8       _acmdln                    000000018034fae8     libucrt:argv_data.obj
 0003:00065af0       _wcmdln                    000000018034faf0     libucrt:argv_data.obj
 0003:00065af8       _pgmptr                    000000018034faf8     libucrt:argv_data.obj
 0003:00065b00       __acrt_heap                000000018034fb00     libucrt:heap_handle.obj
 0003:00065b10       _commode                   000000018034fb10     libucrt:ncommode.obj
 0003:00065b18       __acrt_lconv_static_null   000000018034fb18     libucrt:localeconv.obj
 0003:00065b1c       __acrt_lconv_static_W_null 000000018034fb1c     libucrt:localeconv.obj
 0003:00065b20       __fma3_is_available        000000018034fb20     libucrt:fma3_available.obj
 0003:00065b24       __use_fma3_lib             000000018034fb24     libucrt:fma3_available.obj
 0003:00065b28       _fmode                     000000018034fb28     libucrt:txtmode.obj
 0003:00065b30       ?DloadKernel32@@3PEAUHINSTANCE__@@EA 000000018034fb30     DelayImp:delayhlp.obj
 0003:00065b38       ?DloadAcquireSRWLockExclusive@@3P6AXPEA_K@ZEA 000000018034fb38     DelayImp:delayhlp.obj
 0003:00065b40       ?DloadReleaseSRWLockExclusive@@3P6AXPEA_K@ZEA 000000018034fb40     DelayImp:delayhlp.obj
 0003:00065b48       ?DloadSrwLock@@3_KA        000000018034fb48     DelayImp:delayhlp.obj
 0003:00065b50       ?DloadSectionLockCount@@3KA 000000018034fb50     DelayImp:delayhlp.obj
 0003:00065b54       ?DloadSectionOldProtection@@3KA 000000018034fb54     DelayImp:delayhlp.obj
 0003:00065b58       ?DloadSectionCommitPermanent@@3KA 000000018034fb58     DelayImp:delayhlp.obj
 0003:00065b60       ?conn_check_buf@@3PADA     000000018034fb60     binding.obj
 0003:00065b64       mysql_port                 000000018034fb64     clientlib:client.obj
 0003:00065b68       ?u64_buf@@3PADA            000000018034fb68     binding.obj
 0003:00065b7e       my_getopt_use_args_separator 000000018034fb7e     mysys:my_default.obj
 0003:00065b7f       have_tcpip                 000000018034fb7f     mysys:my_init.obj
 0003:00065b88       mysql_unix_port            000000018034fb88     clientlib:client.obj
 0003:00065ba8       charsets_dir               000000018034fba8     mysys:charset.obj
 0003:00065bb0       all_charsets               000000018034fbb0     mysys:charset.obj
 0003:00069bc0       my_defaults_file           0000000180353bc0     mysys:my_default.obj
 0003:00069bd0       my_defaults_group_suffix   0000000180353bd0     mysys:my_default.obj
 0003:00069bd8       my_defaults_extra_file     0000000180353bd8     mysys:my_default.obj
 0003:00069be0       my_init_done               0000000180353be0     mysys:my_init.obj
 0003:00069be2       my_use_symdir              0000000180353be2     mysys:mf_pack.obj
 0003:00069be4       mysys_usage_id             0000000180353be4     mysys:my_init.obj
 0003:00069be8       THR_thread_count           0000000180353be8     mysys:my_thr_init.obj
 0003:00069bf0       my_progname                0000000180353bf0     mysys:my_static.obj
 0003:00069bf8       my_global_flags            0000000180353bf8     mysys:my_static.obj
 0003:00069bfc       my_stream_opened           0000000180353bfc     mysys:my_static.obj
 0003:00069c00       home_dir_buff              0000000180353c00     mysys:my_static.obj
 0003:00069e00       home_dir                   0000000180353e00     mysys:my_static.obj
 0003:00069e08       my_file_opened             0000000180353e08     mysys:my_static.obj
 0003:00069e0c       my_file_total_opened       0000000180353e0c     mysys:my_static.obj
 0003:00069e10       my_once_root_block         0000000180353e10     mysys:my_static.obj
 0003:00069e20       curr_dir                   0000000180353e20     mysys:my_static.obj
 0003:0006a028       my_string_stack_guard      0000000180354028     strings:ctype.obj
 0003:0006a080       ?cfg_port_symbol@@3V?$Persistent@VString@v8@@V?$NonCopyablePersistentTraits@VString@v8@@@2@@Nan@@A 0000000180354080     binding.obj
 0003:0006a088       ?col_set_symbol@@3V?$Persistent@VString@v8@@V?$NonCopyablePersistentTraits@VString@v8@@@2@@Nan@@A 0000000180354088     binding.obj
 0003:0006a090       ?col_bit_symbol@@3V?$Persistent@VString@v8@@V?$NonCopyablePersistentTraits@VString@v8@@@2@@Nan@@A 0000000180354090     binding.obj
 0003:0006a098       ?ev_error_symbol@@3V?$Persistent@VString@v8@@V?$NonCopyablePersistentTraits@VString@v8@@@2@@Nan@@A 0000000180354098     binding.obj
 0003:0006a0a0       ?cfg_local_infile_symbol@@3V?$Persistent@VString@v8@@V?$NonCopyablePersistentTraits@VString@v8@@@2@@Nan@@A 00000001803540a0     binding.obj
 0003:0006a0a8       ?col_enum_symbol@@3V?$Persistent@VString@v8@@V?$NonCopyablePersistentTraits@VString@v8@@@2@@Nan@@A 00000001803540a8     binding.obj
 0003:0006a0b0       ?col_vstr_symbol@@3V?$Persistent@VString@v8@@V?$NonCopyablePersistentTraits@VString@v8@@@2@@Nan@@A 00000001803540b0     binding.obj
 0003:0006a0b8       ?col_null_symbol@@3V?$Persistent@VString@v8@@V?$NonCopyablePersistentTraits@VString@v8@@@2@@Nan@@A 00000001803540b8     binding.obj
 0003:0006a0c0       ?col_vchar_symbol@@3V?$Persistent@VString@v8@@V?$NonCopyablePersistentTraits@VString@v8@@@2@@Nan@@A 00000001803540c0     binding.obj
 0003:0006a0c8       ?code_symbol@@3V?$Persistent@VString@v8@@V?$NonCopyablePersistentTraits@VString@v8@@@2@@Nan@@A 00000001803540c8     binding.obj
 0003:0006a0d0       ?cfg_tcpKeepaliveIntvl_symbol@@3V?$Persistent@VString@v8@@V?$NonCopyablePersistentTraits@VString@v8@@@2@@Nan@@A 00000001803540d0     binding.obj
 0003:0006a0d8       ?col_newdate_symbol@@3V?$Persistent@VString@v8@@V?$NonCopyablePersistentTraits@VString@v8@@@2@@Nan@@A 00000001803540d8     binding.obj
 0003:0006a0e0       ?col_tiny_symbol@@3V?$Persistent@VString@v8@@V?$NonCopyablePersistentTraits@VString@v8@@@2@@Nan@@A 00000001803540e0     binding.obj
 0003:0006a0e8       ?col_short_symbol@@3V?$Persistent@VString@v8@@V?$NonCopyablePersistentTraits@VString@v8@@@2@@Nan@@A 00000001803540e8     binding.obj
 0003:0006a0f0       ?cfg_tcpKeepalive_symbol@@3V?$Persistent@VString@v8@@V?$NonCopyablePersistentTraits@VString@v8@@@2@@Nan@@A 00000001803540f0     binding.obj
 0003:0006a0f8       ?col_double_symbol@@3V?$Persistent@VString@v8@@V?$NonCopyablePersistentTraits@VString@v8@@@2@@Nan@@A 00000001803540f8     binding.obj
 0003:0006a100       ?col_lngblob_symbol@@3V?$Persistent@VString@v8@@V?$NonCopyablePersistentTraits@VString@v8@@@2@@Nan@@A 0000000180354100     binding.obj
 0003:0006a108       ?cfg_secureAuth_symbol@@3V?$Persistent@VString@v8@@V?$NonCopyablePersistentTraits@VString@v8@@@2@@Nan@@A 0000000180354108     binding.obj
 0003:0006a110       ?col_long_symbol@@3V?$Persistent@VString@v8@@V?$NonCopyablePersistentTraits@VString@v8@@@2@@Nan@@A 0000000180354110     binding.obj
 0003:0006a118       ?cfg_key_symbol@@3V?$Persistent@VString@v8@@V?$NonCopyablePersistentTraits@VString@v8@@@2@@Nan@@A 0000000180354118     binding.obj
 0003:0006a120       ?col_char_symbol@@3V?$Persistent@VString@v8@@V?$NonCopyablePersistentTraits@VString@v8@@@2@@Nan@@A 0000000180354120     binding.obj
 0003:0006a128       ?col_newdec_symbol@@3V?$Persistent@VString@v8@@V?$NonCopyablePersistentTraits@VString@v8@@@2@@Nan@@A 0000000180354128     binding.obj
 0003:0006a130       ?col_dtime_symbol@@3V?$Persistent@VString@v8@@V?$NonCopyablePersistentTraits@VString@v8@@@2@@Nan@@A 0000000180354130     binding.obj
 0003:0006a138       ?ev_resultinfo_symbol@@3V?$Persistent@VString@v8@@V?$NonCopyablePersistentTraits@VString@v8@@@2@@Nan@@A 0000000180354138     binding.obj
 0003:0006a140       ?cfg_db_symbol@@3V?$Persistent@VString@v8@@V?$NonCopyablePersistentTraits@VString@v8@@@2@@Nan@@A 0000000180354140     binding.obj
 0003:0006a148       ?cfg_cipher_symbol@@3V?$Persistent@VString@v8@@V?$NonCopyablePersistentTraits@VString@v8@@@2@@Nan@@A 0000000180354148     binding.obj
 0003:0006a150       ?cfg_password_symbol@@3V?$Persistent@VString@v8@@V?$NonCopyablePersistentTraits@VString@v8@@@2@@Nan@@A 0000000180354150     binding.obj
 0003:0006a158       ?col_time_symbol@@3V?$Persistent@VString@v8@@V?$NonCopyablePersistentTraits@VString@v8@@@2@@Nan@@A 0000000180354158     binding.obj
 0003:0006a160       ?cfg_cert_symbol@@3V?$Persistent@VString@v8@@V?$NonCopyablePersistentTraits@VString@v8@@@2@@Nan@@A 0000000180354160     binding.obj
 0003:0006a168       ?col_medblob_symbol@@3V?$Persistent@VString@v8@@V?$NonCopyablePersistentTraits@VString@v8@@@2@@Nan@@A 0000000180354168     binding.obj
 0003:0006a170       ?constructor@@3V?$Persistent@VFunctionTemplate@v8@@V?$NonCopyablePersistentTraits@VFunctionTemplate@v8@@@2@@Nan@@A 0000000180354170     binding.obj
 0003:0006a178       ?col_big_symbol@@3V?$Persistent@VString@v8@@V?$NonCopyablePersistentTraits@VString@v8@@@2@@Nan@@A 0000000180354178     binding.obj
 0003:0006a180       ?cfg_connTimeout_symbol@@3V?$Persistent@VString@v8@@V?$NonCopyablePersistentTraits@VString@v8@@@2@@Nan@@A 0000000180354180     binding.obj
 0003:0006a188       ?cfg_read_default_group_symbol@@3V?$Persistent@VString@v8@@V?$NonCopyablePersistentTraits@VString@v8@@@2@@Nan@@A 0000000180354188     binding.obj
 0003:0006a190       ?cfg_compress_symbol@@3V?$Persistent@VString@v8@@V?$NonCopyablePersistentTraits@VString@v8@@@2@@Nan@@A 0000000180354190     binding.obj
 0003:0006a198       ?col_date_symbol@@3V?$Persistent@VString@v8@@V?$NonCopyablePersistentTraits@VString@v8@@@2@@Nan@@A 0000000180354198     binding.obj
 0003:0006a1a0       ?col_tinyblob_symbol@@3V?$Persistent@VString@v8@@V?$NonCopyablePersistentTraits@VString@v8@@@2@@Nan@@A 00000001803541a0     binding.obj
 0003:0006a1a8       ?col_geo_symbol@@3V?$Persistent@VString@v8@@V?$NonCopyablePersistentTraits@VString@v8@@@2@@Nan@@A 00000001803541a8     binding.obj
 0003:0006a1b0       ?col_float_symbol@@3V?$Persistent@VString@v8@@V?$NonCopyablePersistentTraits@VString@v8@@@2@@Nan@@A 00000001803541b0     binding.obj
 0003:0006a1b8       ?col_unsup_symbol@@3V?$Persistent@VString@v8@@V?$NonCopyablePersistentTraits@VString@v8@@@2@@Nan@@A 00000001803541b8     binding.obj
 0003:0006a1c0       ?context_symbol@@3V?$Persistent@VString@v8@@V?$NonCopyablePersistentTraits@VString@v8@@@2@@Nan@@A 00000001803541c0     binding.obj
 0003:0006a1c8       ?cfg_protocol_symbol@@3V?$Persistent@VString@v8@@V?$NonCopyablePersistentTraits@VString@v8@@@2@@Nan@@A 00000001803541c8     binding.obj
 0003:0006a1d0       ?cfg_unixSocket_symbol@@3V?$Persistent@VString@v8@@V?$NonCopyablePersistentTraits@VString@v8@@@2@@Nan@@A 00000001803541d0     binding.obj
 0003:0006a1d8       ?ev_ping_symbol@@3V?$Persistent@VString@v8@@V?$NonCopyablePersistentTraits@VString@v8@@@2@@Nan@@A 00000001803541d8     binding.obj
 0003:0006a1e0       ?cfg_read_default_file_symbol@@3V?$Persistent@VString@v8@@V?$NonCopyablePersistentTraits@VString@v8@@@2@@Nan@@A 00000001803541e0     binding.obj
 0003:0006a1e8       ?conncfg_symbol@@3V?$Persistent@VString@v8@@V?$NonCopyablePersistentTraits@VString@v8@@@2@@Nan@@A 00000001803541e8     binding.obj
 0003:0006a1f0       ?ev_row_symbol@@3V?$Persistent@VString@v8@@V?$NonCopyablePersistentTraits@VString@v8@@@2@@Nan@@A 00000001803541f0     binding.obj
 0003:0006a1f8       ?neg_one_symbol@@3V?$Persistent@VString@v8@@V?$NonCopyablePersistentTraits@VString@v8@@@2@@Nan@@A 00000001803541f8     binding.obj
 0003:0006a200       ?cfg_charset_symbol@@3V?$Persistent@VString@v8@@V?$NonCopyablePersistentTraits@VString@v8@@@2@@Nan@@A 0000000180354200     binding.obj
 0003:0006a208       ?ev_resultend_symbol@@3V?$Persistent@VString@v8@@V?$NonCopyablePersistentTraits@VString@v8@@@2@@Nan@@A 0000000180354208     binding.obj
 0003:0006a210       ?cfg_user_symbol@@3V?$Persistent@VString@v8@@V?$NonCopyablePersistentTraits@VString@v8@@@2@@Nan@@A 0000000180354210     binding.obj
 0003:0006a218       ?cfg_multiStatements_symbol@@3V?$Persistent@VString@v8@@V?$NonCopyablePersistentTraits@VString@v8@@@2@@Nan@@A 0000000180354218     binding.obj
 0003:0006a220       ?col_dec_symbol@@3V?$Persistent@VString@v8@@V?$NonCopyablePersistentTraits@VString@v8@@@2@@Nan@@A 0000000180354220     binding.obj
 0003:0006a228       ?cfg_capath_symbol@@3V?$Persistent@VString@v8@@V?$NonCopyablePersistentTraits@VString@v8@@@2@@Nan@@A 0000000180354228     binding.obj
 0003:0006a230       ?cfg_tcpKeepaliveCnt_symbol@@3V?$Persistent@VString@v8@@V?$NonCopyablePersistentTraits@VString@v8@@@2@@Nan@@A 0000000180354230     binding.obj
 0003:0006a238       ?cfg_ssl_symbol@@3V?$Persistent@VString@v8@@V?$NonCopyablePersistentTraits@VString@v8@@@2@@Nan@@A 0000000180354238     binding.obj
 0003:0006a240       ?ev_close_symbol@@3V?$Persistent@VString@v8@@V?$NonCopyablePersistentTraits@VString@v8@@@2@@Nan@@A 0000000180354240     binding.obj
 0003:0006a248       ?ev_connect_symbol@@3V?$Persistent@VString@v8@@V?$NonCopyablePersistentTraits@VString@v8@@@2@@Nan@@A 0000000180354248     binding.obj
 0003:0006a250       ?col_ts_symbol@@3V?$Persistent@VString@v8@@V?$NonCopyablePersistentTraits@VString@v8@@@2@@Nan@@A 0000000180354250     binding.obj
 0003:0006a258       ?cfg_rejectUnauthorized_symbol@@3V?$Persistent@VString@v8@@V?$NonCopyablePersistentTraits@VString@v8@@@2@@Nan@@A 0000000180354258     binding.obj
 0003:0006a260       ?cfg_ca_symbol@@3V?$Persistent@VString@v8@@V?$NonCopyablePersistentTraits@VString@v8@@@2@@Nan@@A 0000000180354260     binding.obj
 0003:0006a268       ?ev_idle_symbol@@3V?$Persistent@VString@v8@@V?$NonCopyablePersistentTraits@VString@v8@@@2@@Nan@@A 0000000180354268     binding.obj
 0003:0006a270       ?col_int24_symbol@@3V?$Persistent@VString@v8@@V?$NonCopyablePersistentTraits@VString@v8@@@2@@Nan@@A 0000000180354270     binding.obj
 0003:0006a278       ?cfg_host_symbol@@3V?$Persistent@VString@v8@@V?$NonCopyablePersistentTraits@VString@v8@@@2@@Nan@@A 0000000180354278     binding.obj
 0003:0006a280       ?col_year_symbol@@3V?$Persistent@VString@v8@@V?$NonCopyablePersistentTraits@VString@v8@@@2@@Nan@@A 0000000180354280     binding.obj
 0003:0006ff20       ?_OptionsStorage@?1??__local_stdio_printf_options@@9@4_KA 0000000180359f20     binding.obj
 0003:0006ff28       __dyn_tls_init_callback    0000000180359f28     <common>
 0003:0006ff30       __scrt_ucrt_dll_is_in_use  0000000180359f30     <common>
 0003:0006ff38       _pDestructExceptionObject  0000000180359f38     <common>
 0003:0006ff40       my_file_info_default       0000000180359f40     <common>
 0003:000dbf40       THR_LOCK_net               00000001803c5f40     <common>
 0003:000dbf80       THR_LOCK_open              00000001803c5f80     <common>
 0003:000dbfc0       THR_LOCK_heap              00000001803c5fc0     <common>
 0003:000dc000       THR_LOCK_malloc            00000001803c6000     <common>
 0003:000dc040       THR_COND_threads           00000001803c6040     <common>
 0003:000dc0a0       THR_LOCK_threads           00000001803c60a0     <common>
 0003:000dc0e0       THR_LOCK_myisam_mmap       00000001803c60e0     <common>
 0003:000dc120       THR_LOCK_myisam            00000001803c6120     <common>
 0003:000dc160       THR_LOCK_lock              00000001803c6160     <common>
 0003:000dc190       THR_KEY_mysys              00000001803c6190     <common>
 0003:000dc1a0       THR_LOCK_charset           00000001803c61a0     <common>
 0003:000dc1e0       plugin_list                00000001803c61e0     <common>
 0003:000dc200       mysql_server_last_error    00000001803c6200     <common>
 0003:000dc400       mysql_server_last_errno    00000001803c6400     <common>

 entry point at        0001:000419e8

 Static symbols

 0000:ffc2d000       .debug$S                   0000000180000000     kernel32:KERNEL32.dll
 0000:ffc2d000       .debug$S                   0000000180000000     kernel32:KERNEL32.dll
 0000:ffc2d000       .debug$S                   0000000180000000     sqlclient.exp
 0000:ffc2d000       .debug$S                   0000000180000000     kernel32:KERNEL32.dll
 0000:ffc2d000       .debug$S                   0000000180000000     kernel32:KERNEL32.dll
 0000:ffc2d000       .debug$S                   0000000180000000     kernel32:KERNEL32.dll
 0000:ffc2d000       .debug$S                   0000000180000000     kernel32:KERNEL32.dll
 0000:ffc2d000       .debug$S                   0000000180000000     kernel32:KERNEL32.dll
 0000:ffc2d000       .debug$S                   0000000180000000     kernel32:KERNEL32.dll
 0000:ffc2d000       .debug$S                   0000000180000000     kernel32:KERNEL32.dll
 0000:ffc2d000       .debug$S                   0000000180000000     kernel32:KERNEL32.dll
 0000:ffc2d000       .debug$S                   0000000180000000     kernel32:KERNEL32.dll
 0000:ffc2d000       .debug$S                   0000000180000000     kernel32:KERNEL32.dll
 0000:ffc2d000       .debug$S                   0000000180000000     kernel32:KERNEL32.dll
 0000:ffc2d000       .debug$S                   0000000180000000     kernel32:KERNEL32.dll
 0000:ffc2d000       .debug$S                   0000000180000000     kernel32:KERNEL32.dll
 0000:ffc2d000       .debug$S                   0000000180000000     kernel32:KERNEL32.dll
 0000:ffc2d000       .debug$S                   0000000180000000     kernel32:KERNEL32.dll
 0000:ffc2d000       .debug$S                   0000000180000000     kernel32:KERNEL32.dll
 0000:ffc2d000       .debug$S                   0000000180000000     kernel32:KERNEL32.dll
 0000:ffc2d000       .debug$S                   0000000180000000     kernel32:KERNEL32.dll
 0000:ffc2d000       .debug$S                   0000000180000000     kernel32:KERNEL32.dll
 0000:ffc2d000       .debug$S                   0000000180000000     kernel32:KERNEL32.dll
 0000:ffc2d000       .debug$S                   0000000180000000     kernel32:KERNEL32.dll
 0000:ffc2d000       .debug$S                   0000000180000000     kernel32:KERNEL32.dll
 0000:ffc2d000       .debug$S                   0000000180000000     kernel32:KERNEL32.dll
 0000:ffc2d000       .debug$S                   0000000180000000     kernel32:KERNEL32.dll
 0000:ffc2d000       .debug$S                   0000000180000000     kernel32:KERNEL32.dll
 0000:ffc2d000       .debug$S                   0000000180000000     kernel32:KERNEL32.dll
 0000:ffc2d000       .debug$S                   0000000180000000     kernel32:KERNEL32.dll
 0000:ffc2d000       .debug$S                   0000000180000000     kernel32:KERNEL32.dll
 0000:ffc2d000       .debug$S                   0000000180000000     kernel32:KERNEL32.dll
 0000:ffc2d000       .debug$S                   0000000180000000     kernel32:KERNEL32.dll
 0000:ffc2d000       .debug$S                   0000000180000000     kernel32:KERNEL32.dll
 0000:ffc2d000       .debug$S                   0000000180000000     kernel32:KERNEL32.dll
 0000:ffc2d000       .debug$S                   0000000180000000     kernel32:KERNEL32.dll
 0000:ffc2d000       .debug$S                   0000000180000000     kernel32:KERNEL32.dll
 0000:ffc2d000       .debug$S                   0000000180000000     kernel32:KERNEL32.dll
 0000:ffc2d000       .debug$S                   0000000180000000     kernel32:KERNEL32.dll
 0000:ffc2d000       .debug$S                   0000000180000000     kernel32:KERNEL32.dll
 0000:ffc2d000       .debug$S                   0000000180000000     kernel32:KERNEL32.dll
 0000:ffc2d000       .debug$S                   0000000180000000     kernel32:KERNEL32.dll
 0000:ffc2d000       .debug$S                   0000000180000000     kernel32:KERNEL32.dll
 0000:ffc2d000       .debug$S                   0000000180000000     kernel32:KERNEL32.dll
 0000:ffc2d000       .debug$S                   0000000180000000     kernel32:KERNEL32.dll
 0000:ffc2d000       .debug$S                   0000000180000000     kernel32:KERNEL32.dll
 0000:ffc2d000       .debug$S                   0000000180000000     kernel32:KERNEL32.dll
 0000:ffc2d000       .debug$S                   0000000180000000     kernel32:KERNEL32.dll
 0000:ffc2d000       .debug$S                   0000000180000000     kernel32:KERNEL32.dll
 0000:ffc2d000       .debug$S                   0000000180000000     kernel32:KERNEL32.dll
 0000:ffc2d000       .debug$S                   0000000180000000     kernel32:KERNEL32.dll
 0000:ffc2d000       .debug$S                   0000000180000000     kernel32:KERNEL32.dll
 0000:ffc2d000       .debug$S                   0000000180000000     kernel32:KERNEL32.dll
 0000:ffc2d000       .debug$S                   0000000180000000     kernel32:KERNEL32.dll
 0000:ffc2d000       .debug$S                   0000000180000000     kernel32:KERNEL32.dll
 0000:ffc2d000       .debug$S                   0000000180000000     kernel32:KERNEL32.dll
 0000:ffc2d000       .debug$S                   0000000180000000     kernel32:KERNEL32.dll
 0000:ffc2d000       .debug$S                   0000000180000000     kernel32:KERNEL32.dll
 0000:ffc2d000       .debug$S                   0000000180000000     kernel32:KERNEL32.dll
 0000:ffc2d000       .debug$S                   0000000180000000     kernel32:KERNEL32.dll
 0000:ffc2d000       .debug$S                   0000000180000000     kernel32:KERNEL32.dll
 0000:ffc2d000       .debug$S                   0000000180000000     kernel32:KERNEL32.dll
 0000:ffc2d000       .debug$S                   0000000180000000     kernel32:KERNEL32.dll
 0000:ffc2d000       .debug$S                   0000000180000000     kernel32:KERNEL32.dll
 0000:ffc2d000       .debug$S                   0000000180000000     kernel32:KERNEL32.dll
 0000:ffc2d000       .debug$S                   0000000180000000     kernel32:KERNEL32.dll
 0000:ffc2d000       .debug$S                   0000000180000000     kernel32:KERNEL32.dll
 0000:ffc2d000       .debug$S                   0000000180000000     kernel32:KERNEL32.dll
 0000:ffc2d000       .debug$S                   0000000180000000     kernel32:KERNEL32.dll
 0000:ffc2d000       .debug$S                   0000000180000000     kernel32:KERNEL32.dll
 0000:ffc2d000       .debug$S                   0000000180000000     kernel32:KERNEL32.dll
 0000:ffc2d000       .debug$S                   0000000180000000     kernel32:KERNEL32.dll
 0000:ffc2d000       .debug$S                   0000000180000000     kernel32:KERNEL32.dll
 0000:ffc2d000       .debug$S                   0000000180000000     kernel32:KERNEL32.dll
 0000:ffc2d000       .debug$S                   0000000180000000     kernel32:KERNEL32.dll
 0000:ffc2d000       .debug$S                   0000000180000000     kernel32:KERNEL32.dll
 0000:ffc2d000       .debug$S                   0000000180000000     kernel32:KERNEL32.dll
 0000:ffc2d000       .debug$S                   0000000180000000     kernel32:KERNEL32.dll
 0000:ffc2d000       .debug$S                   0000000180000000     kernel32:KERNEL32.dll
 0000:ffc2d000       .debug$S                   0000000180000000     kernel32:KERNEL32.dll
 0000:ffc2d000       .debug$S                   0000000180000000     kernel32:KERNEL32.dll
 0000:ffc2d000       .debug$S                   0000000180000000     kernel32:KERNEL32.dll
 0000:ffc2d000       .debug$S                   0000000180000000     kernel32:KERNEL32.dll
 0000:ffc2d000       .debug$S                   0000000180000000     kernel32:KERNEL32.dll
 0000:ffc2d000       .debug$S                   0000000180000000     kernel32:KERNEL32.dll
 0000:ffc2d000       .debug$S                   0000000180000000     kernel32:KERNEL32.dll
 0000:ffc2d000       .debug$S                   0000000180000000     kernel32:KERNEL32.dll
 0000:ffc2d000       .debug$S                   0000000180000000     kernel32:KERNEL32.dll
 0000:ffc2d000       .debug$S                   0000000180000000     kernel32:KERNEL32.dll
 0000:ffc2d000       .debug$S                   0000000180000000     kernel32:KERNEL32.dll
 0000:ffc2d000       .debug$S                   0000000180000000     kernel32:KERNEL32.dll
 0000:ffc2d000       .debug$S                   0000000180000000     kernel32:KERNEL32.dll
 0000:ffc2d000       .debug$S                   0000000180000000     kernel32:KERNEL32.dll
 0000:ffc2d000       .debug$S                   0000000180000000     kernel32:KERNEL32.dll
 0000:ffc2d000       .debug$S                   0000000180000000     kernel32:KERNEL32.dll
 0000:ffc2d000       .debug$S                   0000000180000000     kernel32:KERNEL32.dll
 0000:ffc2d000       .debug$S                   0000000180000000     kernel32:KERNEL32.dll
 0000:ffc2d000       .debug$S                   0000000180000000     kernel32:KERNEL32.dll
 0000:ffc2d000       .debug$S                   0000000180000000     kernel32:KERNEL32.dll
 0000:ffc2d000       .debug$S                   0000000180000000     kernel32:KERNEL32.dll
 0000:ffc2d000       .debug$S                   0000000180000000     kernel32:KERNEL32.dll
 0000:ffc2d000       .debug$S                   0000000180000000     kernel32:KERNEL32.dll
 0000:ffc2d000       .debug$S                   0000000180000000     kernel32:KERNEL32.dll
 0000:ffc2d000       .debug$S                   0000000180000000     kernel32:KERNEL32.dll
 0000:ffc2d000       .debug$S                   0000000180000000     kernel32:KERNEL32.dll
 0000:ffc2d000       .debug$S                   0000000180000000     kernel32:KERNEL32.dll
 0000:ffc2d000       .debug$S                   0000000180000000     kernel32:KERNEL32.dll
 0000:ffc2d000       .debug$S                   0000000180000000     kernel32:KERNEL32.dll
 0000:ffc2d000       .debug$S                   0000000180000000     kernel32:KERNEL32.dll
 0000:ffc2d000       .debug$S                   0000000180000000     kernel32:KERNEL32.dll
 0000:ffc2d000       .debug$S                   0000000180000000     kernel32:KERNEL32.dll
 0000:ffc2d000       .debug$S                   0000000180000000     kernel32:KERNEL32.dll
 0000:ffc2d000       .debug$S                   0000000180000000     kernel32:KERNEL32.dll
 0000:ffc2d000       .debug$S                   0000000180000000     kernel32:KERNEL32.dll
 0000:ffc2d000       .debug$S                   0000000180000000     kernel32:KERNEL32.dll
 0000:ffc2d000       .debug$S                   0000000180000000     kernel32:KERNEL32.dll
 0000:ffc2d000       .debug$S                   0000000180000000     kernel32:KERNEL32.dll
 0000:ffc2d000       .debug$S                   0000000180000000     kernel32:KERNEL32.dll
 0000:ffc2d000       .debug$S                   0000000180000000     kernel32:KERNEL32.dll
 0000:ffc2d000       .debug$S                   0000000180000000     kernel32:KERNEL32.dll
 0000:ffc2d000       .debug$S                   0000000180000000     kernel32:KERNEL32.dll
 0000:ffc2d000       .debug$S                   0000000180000000     kernel32:KERNEL32.dll
 0000:ffc2d000       .debug$S                   0000000180000000     kernel32:KERNEL32.dll
 0000:ffc2d000       .debug$S                   0000000180000000     kernel32:KERNEL32.dll
 0000:ffc2d000       .debug$S                   0000000180000000     ws2_32:WS2_32.dll
 0000:ffc2d000       .debug$S                   0000000180000000     ws2_32:WS2_32.dll
 0000:ffc2d000       .debug$S                   0000000180000000     ws2_32:WS2_32.dll
 0000:ffc2d000       .debug$S                   0000000180000000     ws2_32:WS2_32.dll
 0000:ffc2d000       .debug$S                   0000000180000000     ws2_32:WS2_32.dll
 0000:ffc2d000       .debug$S                   0000000180000000     ws2_32:WS2_32.dll
 0000:ffc2d000       .debug$S                   0000000180000000     ws2_32:WS2_32.dll
 0000:ffc2d000       .debug$S                   0000000180000000     ws2_32:WS2_32.dll
 0000:ffc2d000       .debug$S                   0000000180000000     ws2_32:WS2_32.dll
 0000:ffc2d000       .debug$S                   0000000180000000     ws2_32:WS2_32.dll
 0000:ffc2d000       .debug$S                   0000000180000000     ws2_32:WS2_32.dll
 0000:ffc2d000       .debug$S                   0000000180000000     ws2_32:WS2_32.dll
 0000:ffc2d000       .debug$S                   0000000180000000     ws2_32:WS2_32.dll
 0000:ffc2d000       .debug$S                   0000000180000000     ws2_32:WS2_32.dll
 0000:ffc2d000       .debug$S                   0000000180000000     ws2_32:WS2_32.dll
 0000:ffc2d000       .debug$S                   0000000180000000     ws2_32:WS2_32.dll
 0000:ffc2d000       .debug$S                   0000000180000000     ws2_32:WS2_32.dll
 0000:ffc2d000       .debug$S                   0000000180000000     ws2_32:WS2_32.dll
 0000:ffc2d000       .debug$S                   0000000180000000     ws2_32:WS2_32.dll
 0000:ffc2d000       .debug$S                   0000000180000000     ws2_32:WS2_32.dll
 0000:ffc2d000       .debug$S                   0000000180000000     ws2_32:WS2_32.dll
 0000:ffc2d000       .debug$S                   0000000180000000     ws2_32:WS2_32.dll
 0000:ffc2d000       .debug$S                   0000000180000000     ws2_32:WS2_32.dll
 0000:ffc2d000       .debug$S                   0000000180000000     ws2_32:WS2_32.dll
 0000:ffc2d000       .debug$S                   0000000180000000     node:node.exe
 0000:ffc2d000       .debug$S                   0000000180000000     node:node.exe
 0000:ffc2d000       .debug$S                   0000000180000000     node:node.exe
 0000:ffc2d000       .debug$S                   0000000180000000     node:node.exe
 0000:ffc2d000       .debug$S                   0000000180000000     node:node.exe
 0000:ffc2d000       .debug$S                   0000000180000000     node:node.exe
 0000:ffc2d000       .debug$S                   0000000180000000     node:node.exe
 0000:ffc2d000       .debug$S                   0000000180000000     node:node.exe
 0000:ffc2d000       .debug$S                   0000000180000000     node:node.exe
 0000:ffc2d000       .debug$S                   0000000180000000     node:node.exe
 0000:ffc2d000       .debug$S                   0000000180000000     node:node.exe
 0000:ffc2d000       .debug$S                   0000000180000000     node:node.exe
 0000:ffc2d000       .debug$S                   0000000180000000     node:node.exe
 0000:ffc2d000       .debug$S                   0000000180000000     node:node.exe
 0000:ffc2d000       .debug$S                   0000000180000000     node:node.exe
 0000:ffc2d000       .debug$S                   0000000180000000     node:node.exe
 0000:ffc2d000       .debug$S                   0000000180000000     node:node.exe
 0000:ffc2d000       .debug$S                   0000000180000000     node:node.exe
 0000:ffc2d000       .debug$S                   0000000180000000     node:node.exe
 0000:ffc2d000       .debug$S                   0000000180000000     node:node.exe
 0000:ffc2d000       .debug$S                   0000000180000000     node:node.exe
 0000:ffc2d000       .debug$S                   0000000180000000     node:node.exe
 0000:ffc2d000       .debug$S                   0000000180000000     node:node.exe
 0000:ffc2d000       .debug$S                   0000000180000000     node:node.exe
 0000:ffc2d000       .debug$S                   0000000180000000     node:node.exe
 0000:ffc2d000       .debug$S                   0000000180000000     node:node.exe
 0000:ffc2d000       .debug$S                   0000000180000000     node:node.exe
 0000:ffc2d000       .debug$S                   0000000180000000     node:node.exe
 0000:ffc2d000       .debug$S                   0000000180000000     node:node.exe
 0000:ffc2d000       .debug$S                   0000000180000000     node:node.exe
 0000:ffc2d000       .debug$S                   0000000180000000     node:node.exe
 0000:ffc2d000       .debug$S                   0000000180000000     node:node.exe
 0000:ffc2d000       .debug$S                   0000000180000000     node:node.exe
 0000:ffc2d000       .debug$S                   0000000180000000     node:node.exe
 0000:ffc2d000       .debug$S                   0000000180000000     node:node.exe
 0000:ffc2d000       .debug$S                   0000000180000000     node:node.exe
 0000:ffc2d000       .debug$S                   0000000180000000     node:node.exe
 0000:ffc2d000       .debug$S                   0000000180000000     node:node.exe
 0000:ffc2d000       .debug$S                   0000000180000000     node:node.exe
 0000:ffc2d000       .debug$S                   0000000180000000     node:node.exe
 0000:ffc2d000       .debug$S                   0000000180000000     node:node.exe
 0000:ffc2d000       .debug$S                   0000000180000000     node:node.exe
 0000:ffc2d000       .debug$S                   0000000180000000     node:node.exe
 0000:ffc2d000       .debug$S                   0000000180000000     node:node.exe
 0000:ffc2d000       .debug$S                   0000000180000000     node:node.exe
 0000:ffc2d000       .debug$S                   0000000180000000     node:node.exe
 0000:ffc2d000       .debug$S                   0000000180000000     node:node.exe
 0000:ffc2d000       .debug$S                   0000000180000000     node:node.exe
 0000:ffc2d000       .debug$S                   0000000180000000     node:node.exe
 0000:ffc2d000       .debug$S                   0000000180000000     node:node.exe
 0000:ffc2d000       .debug$S                   0000000180000000     node:node.exe
 0000:ffc2d000       .debug$S                   0000000180000000     node:node.exe
 0000:ffc2d000       .debug$S                   0000000180000000     node:node.exe
 0000:ffc2d000       .debug$S                   0000000180000000     node:node.exe
 0000:ffc2d000       .debug$S                   0000000180000000     node:node.exe
 0000:ffc2d000       .debug$S                   0000000180000000     node:node.exe
 0000:ffc2d000       .debug$S                   0000000180000000     node:node.exe
 0000:ffc2d000       .debug$S                   0000000180000000     node:node.exe
 0000:ffc2d000       .debug$S                   0000000180000000     node:node.exe
 0000:ffc2d000       .debug$S                   0000000180000000     node:node.exe
 0000:ffc2d000       .debug$S                   0000000180000000     node:node.exe
 0000:ffc2d000       .debug$S                   0000000180000000     node:node.exe
 0000:ffc2d000       .debug$S                   0000000180000000     node:node.exe
 0000:ffc2d000       .debug$S                   0000000180000000     node:node.exe
 0000:ffc2d000       .debug$S                   0000000180000000     node:node.exe
 0000:ffc2d000       .debug$S                   0000000180000000     node:node.exe
 0000:ffc2d000       .debug$S                   0000000180000000     node:node.exe
 0000:ffc2d000       .debug$S                   0000000180000000     node:node.exe
 0000:ffc2d000       .debug$S                   0000000180000000     node:node.exe
 0000:ffc2d000       .debug$S                   0000000180000000     node:node.exe
 0000:ffc2d000       .debug$S                   0000000180000000     node:node.exe
 0000:ffc2d000       .debug$S                   0000000180000000     node:node.exe
 0000:ffc2d000       .debug$S                   0000000180000000     node:node.exe
 0000:ffc2d000       .debug$S                   0000000180000000     node:node.exe
 0000:ffc2d000       .debug$S                   0000000180000000     node:node.exe
 0000:ffc2d000       .debug$S                   0000000180000000     advapi32:ADVAPI32.dll
 0000:ffc2d000       .debug$S                   0000000180000000     advapi32:ADVAPI32.dll
 0000:ffc2d000       .debug$S                   0000000180000000     advapi32:ADVAPI32.dll
 0000:ffc2d000       .debug$S                   0000000180000000     advapi32:ADVAPI32.dll
 0000:ffc2d000       .debug$S                   0000000180000000     advapi32:ADVAPI32.dll
 0000:ffc2d000       .debug$S                   0000000180000000     advapi32:ADVAPI32.dll
 0000:ffc2d000       .debug$S                   0000000180000000     kernel32:KERNEL32.dll
 0000:ffc2d000       .debug$S                   0000000180000000     kernel32:KERNEL32.dll
 0000:ffc2d000       .debug$S                   0000000180000000     kernel32:KERNEL32.dll
 0000:ffc2d000       .debug$S                   0000000180000000     kernel32:KERNEL32.dll
 0000:ffc2d000       .debug$S                   0000000180000000     kernel32:KERNEL32.dll
 0000:ffc2d000       .debug$S                   0000000180000000     kernel32:KERNEL32.dll
 0000:ffc2d000       .debug$S                   0000000180000000     kernel32:KERNEL32.dll
 0000:ffc2d000       .debug$S                   0000000180000000     kernel32:KERNEL32.dll
 0000:ffc2d000       .debug$S                   0000000180000000     kernel32:KERNEL32.dll
 0000:ffc2d000       .debug$S                   0000000180000000     kernel32:KERNEL32.dll
 0000:ffc2d000       .debug$S                   0000000180000000     kernel32:KERNEL32.dll
 0000:ffc2d000       .debug$S                   0000000180000000     kernel32:KERNEL32.dll
 0000:ffc2d000       .debug$S                   0000000180000000     kernel32:KERNEL32.dll
 0000:ffc2d000       .debug$S                   0000000180000000     kernel32:KERNEL32.dll
 0000:ffc2d000       .debug$S                   0000000180000000     kernel32:KERNEL32.dll
 0000:ffc2d000       .debug$S                   0000000180000000     kernel32:KERNEL32.dll
 0000:ffc2d000       .debug$S                   0000000180000000     kernel32:KERNEL32.dll
 0000:ffc2d000       .debug$S                   0000000180000000     kernel32:KERNEL32.dll
 0000:ffc2d000       .debug$S                   0000000180000000     kernel32:KERNEL32.dll
 0000:ffc2d000       .debug$S                   0000000180000000     kernel32:KERNEL32.dll
 0001:00000000       ??__Econstructor@@YAXXZ    0000000180001000 f   binding.obj
 0001:00000010       ??__Ecode_symbol@@YAXXZ    0000000180001010 f   binding.obj
 0001:00000020       ??__Econtext_symbol@@YAXXZ 0000000180001020 f   binding.obj
 0001:00000030       ??__Econncfg_symbol@@YAXXZ 0000000180001030 f   binding.obj
 0001:00000040       ??__Eneg_one_symbol@@YAXXZ 0000000180001040 f   binding.obj
 0001:00000050       ??__Eev_connect_symbol@@YAXXZ 0000000180001050 f   binding.obj
 0001:00000060       ??__Eev_error_symbol@@YAXXZ 0000000180001060 f   binding.obj
 0001:00000070       ??__Eev_idle_symbol@@YAXXZ 0000000180001070 f   binding.obj
 0001:00000080       ??__Eev_resultinfo_symbol@@YAXXZ 0000000180001080 f   binding.obj
 0001:00000090       ??__Eev_row_symbol@@YAXXZ  0000000180001090 f   binding.obj
 0001:000000a0       ??__Eev_resultend_symbol@@YAXXZ 00000001800010a0 f   binding.obj
 0001:000000b0       ??__Eev_ping_symbol@@YAXXZ 00000001800010b0 f   binding.obj
 0001:000000c0       ??__Eev_close_symbol@@YAXXZ 00000001800010c0 f   binding.obj
 0001:000000d0       ??__Ecol_tiny_symbol@@YAXXZ 00000001800010d0 f   binding.obj
 0001:000000e0       ??__Ecol_short_symbol@@YAXXZ 00000001800010e0 f   binding.obj
 0001:000000f0       ??__Ecol_long_symbol@@YAXXZ 00000001800010f0 f   binding.obj
 0001:00000100       ??__Ecol_int24_symbol@@YAXXZ 0000000180001100 f   binding.obj
 0001:00000110       ??__Ecol_big_symbol@@YAXXZ 0000000180001110 f   binding.obj
 0001:00000120       ??__Ecol_dec_symbol@@YAXXZ 0000000180001120 f   binding.obj
 0001:00000130       ??__Ecol_newdec_symbol@@YAXXZ 0000000180001130 f   binding.obj
 0001:00000140       ??__Ecol_float_symbol@@YAXXZ 0000000180001140 f   binding.obj
 0001:00000150       ??__Ecol_double_symbol@@YAXXZ 0000000180001150 f   binding.obj
 0001:00000160       ??__Ecol_bit_symbol@@YAXXZ 0000000180001160 f   binding.obj
 0001:00000170       ??__Ecol_ts_symbol@@YAXXZ  0000000180001170 f   binding.obj
 0001:00000180       ??__Ecol_date_symbol@@YAXXZ 0000000180001180 f   binding.obj
 0001:00000190       ??__Ecol_newdate_symbol@@YAXXZ 0000000180001190 f   binding.obj
 0001:000001a0       ??__Ecol_time_symbol@@YAXXZ 00000001800011a0 f   binding.obj
 0001:000001b0       ??__Ecol_dtime_symbol@@YAXXZ 00000001800011b0 f   binding.obj
 0001:000001c0       ??__Ecol_year_symbol@@YAXXZ 00000001800011c0 f   binding.obj
 0001:000001d0       ??__Ecol_char_symbol@@YAXXZ 00000001800011d0 f   binding.obj
 0001:000001e0       ??__Ecol_vstr_symbol@@YAXXZ 00000001800011e0 f   binding.obj
 0001:000001f0       ??__Ecol_vchar_symbol@@YAXXZ 00000001800011f0 f   binding.obj
 0001:00000200       ??__Ecol_tinyblob_symbol@@YAXXZ 0000000180001200 f   binding.obj
 0001:00000210       ??__Ecol_medblob_symbol@@YAXXZ 0000000180001210 f   binding.obj
 0001:00000220       ??__Ecol_lngblob_symbol@@YAXXZ 0000000180001220 f   binding.obj
 0001:00000230       ??__Ecol_set_symbol@@YAXXZ 0000000180001230 f   binding.obj
 0001:00000240       ??__Ecol_enum_symbol@@YAXXZ 0000000180001240 f   binding.obj
 0001:00000250       ??__Ecol_geo_symbol@@YAXXZ 0000000180001250 f   binding.obj
 0001:00000260       ??__Ecol_null_symbol@@YAXXZ 0000000180001260 f   binding.obj
 0001:00000270       ??__Ecol_unsup_symbol@@YAXXZ 0000000180001270 f   binding.obj
 0001:00000280       ??__Ecfg_user_symbol@@YAXXZ 0000000180001280 f   binding.obj
 0001:00000290       ??__Ecfg_password_symbol@@YAXXZ 0000000180001290 f   binding.obj
 0001:000002a0       ??__Ecfg_host_symbol@@YAXXZ 00000001800012a0 f   binding.obj
 0001:000002b0       ??__Ecfg_port_symbol@@YAXXZ 00000001800012b0 f   binding.obj
 0001:000002c0       ??__Ecfg_unixSocket_symbol@@YAXXZ 00000001800012c0 f   binding.obj
 0001:000002d0       ??__Ecfg_db_symbol@@YAXXZ  00000001800012d0 f   binding.obj
 0001:000002e0       ??__Ecfg_connTimeout_symbol@@YAXXZ 00000001800012e0 f   binding.obj
 0001:000002f0       ??__Ecfg_secureAuth_symbol@@YAXXZ 00000001800012f0 f   binding.obj
 0001:00000300       ??__Ecfg_multiStatements_symbol@@YAXXZ 0000000180001300 f   binding.obj
 0001:00000310       ??__Ecfg_compress_symbol@@YAXXZ 0000000180001310 f   binding.obj
 0001:00000320       ??__Ecfg_local_infile_symbol@@YAXXZ 0000000180001320 f   binding.obj
 0001:00000330       ??__Ecfg_read_default_file_symbol@@YAXXZ 0000000180001330 f   binding.obj
 0001:00000340       ??__Ecfg_read_default_group_symbol@@YAXXZ 0000000180001340 f   binding.obj
 0001:00000350       ??__Ecfg_charset_symbol@@YAXXZ 0000000180001350 f   binding.obj
 0001:00000360       ??__Ecfg_tcpKeepalive_symbol@@YAXXZ 0000000180001360 f   binding.obj
 0001:00000370       ??__Ecfg_tcpKeepaliveCnt_symbol@@YAXXZ 0000000180001370 f   binding.obj
 0001:00000380       ??__Ecfg_tcpKeepaliveIntvl_symbol@@YAXXZ 0000000180001380 f   binding.obj
 0001:00000390       ??__Ecfg_ssl_symbol@@YAXXZ 0000000180001390 f   binding.obj
 0001:000003a0       ??__Ecfg_protocol_symbol@@YAXXZ 00000001800013a0 f   binding.obj
 0001:000003b0       ??__Ecfg_key_symbol@@YAXXZ 00000001800013b0 f   binding.obj
 0001:000003c0       ??__Ecfg_cert_symbol@@YAXXZ 00000001800013c0 f   binding.obj
 0001:000003d0       ??__Ecfg_ca_symbol@@YAXXZ  00000001800013d0 f   binding.obj
 0001:000003e0       ??__Ecfg_capath_symbol@@YAXXZ 00000001800013e0 f   binding.obj
 0001:000003f0       ??__Ecfg_cipher_symbol@@YAXXZ 00000001800013f0 f   binding.obj
 0001:00000400       ??__Ecfg_rejectUnauthorized_symbol@@YAXXZ 0000000180001400 f   binding.obj
 0001:00000480       ?FunctionCallbackWrapper@imp@Nan@@YAXAEBV?$FunctionCallbackInfo@VValue@v8@@@v8@@@Z 0000000180001480 f   binding.obj
 0001:00001f88       $LN299                     0000000180002f88     binding.obj
 0001:00003118       $LN643                     0000000180004118     binding.obj
 0001:0000315c       $LN642                     000000018000415c     binding.obj
 0001:00007340       ?Escape@@YAXAEBV?$FunctionCallbackInfo@VValue@v8@@@Nan@@@Z 0000000180008340 f   binding.obj
 0001:000074b0       ?Version@@YAXAEBV?$FunctionCallbackInfo@VValue@v8@@@Nan@@@Z 00000001800084b0 f   binding.obj
 0001:00007620       _register_sqlclient        0000000180008620 f   binding.obj
 0001:00007710       ?load_exe_hook@@YAP6A_JXZIPEAUDelayLoadInfo@@@Z 0000000180008710 f   win_delay_load_hook.obj
 0001:00007a40       mysql_real_connect_start_internal 0000000180008a40 f   clientlib:mysql_async.obj
 0001:00007c70       mysql_real_query_start_internal 0000000180008c70 f   clientlib:mysql_async.obj
 0001:00007d00       mysql_fetch_row_start_internal 0000000180008d00 f   clientlib:mysql_async.obj
 0001:00007f10       mysql_store_result_start_internal 0000000180008f10 f   clientlib:mysql_async.obj
 0001:00008020       mysql_free_result_start_internal 0000000180009020 f   clientlib:mysql_async.obj
 0001:00008140       mysql_ping_start_internal  0000000180009140 f   clientlib:mysql_async.obj
 0001:00008250       mysql_next_result_start_internal 0000000180009250 f   clientlib:mysql_async.obj
 0001:00009280       cli_flush_use_result       000000018000a280 f   clientlib:client.obj
 0001:00009430       cli_report_progress        000000018000a430 f   clientlib:client.obj
 0001:00009720       add_init_command           000000018000a720 f   clientlib:client.obj
 0001:00009df4       $LN173                     000000018000adf4     clientlib:client.obj
 0001:00009e90       cli_fetch_lengths          000000018000ae90 f   clientlib:client.obj
 0001:0000a980       read_one_row               000000018000b980 f   clientlib:client.obj
 0001:0000abe0       my_os_charset_to_mysql_charset 000000018000bbe0 f   clientlib:client.obj
 0001:0000aca0       mysql_autodetect_character_set 000000018000bca0 f   clientlib:client.obj
 0001:0000adb0       mysql_set_character_set_with_default_collation 000000018000bdb0 f   clientlib:client.obj
 0001:0000b190       get_length_store_length    000000018000c190 f   clientlib:client.obj
 0001:0000b200       write_length_encoded_string4 000000018000c200 f   clientlib:client.obj
 0001:0000b2c0       send_change_user_packet    000000018000c2c0 f   clientlib:client.obj
 0001:0000b4f0       send_client_reply_packet   000000018000c4f0 f   clientlib:client.obj
 0001:0000b890       client_mpvio_read_packet   000000018000c890 f   clientlib:client.obj
 0001:0000b950       client_mpvio_write_packet  000000018000c950 f   clientlib:client.obj
 0001:0000baf0       client_mpvio_info          000000018000caf0 f   clientlib:client.obj
 0001:0000bdd0       connect_sync_or_async      000000018000cdd0 f   clientlib:client.obj
 0001:0000be90       set_connect_attributes     000000018000ce90 f   clientlib:client.obj
 0001:0000ce70       my_suspend_hook            000000018000de70 f   clientlib:client.obj
 0001:0000d370       mysql_close_free_options   000000018000e370 f   clientlib:client.obj
 0001:0000d870       mysql_close_free           000000018000e870 f   clientlib:client.obj
 0001:0000d9f0       mysql_prune_stmt_list      000000018000e9f0 f   clientlib:client.obj
 0001:0000dc70       cli_read_query_result      000000018000ec70 f   clientlib:client.obj
 0001:0000e0e0       cli_use_result             000000018000f0e0 f   clientlib:client.obj
 0001:0000e998       $LN139                     000000018000f998     clientlib:client.obj
 0001:0000ef00       native_password_auth_client 000000018000ff00 f   clientlib:client.obj
 0001:0000efc0       old_password_auth_client   000000018000ffc0 f   clientlib:client.obj
 0001:0000f440       default_local_infile_init  0000000180010440 f   clientlib:libmysql.obj
 0001:0000f540       default_local_infile_read  0000000180010540 f   clientlib:libmysql.obj
 0001:0000f5a0       default_local_infile_end   00000001800105a0 f   clientlib:libmysql.obj
 0001:0000f600       default_local_infile_error 0000000180010600 f   clientlib:libmysql.obj
 0001:0000f900       my_realloc_str             0000000180010900 f   clientlib:libmysql.obj
 0001:0000fbf0       store_param                0000000180010bf0 f   clientlib:libmysql.obj
 0001:0000fc90       execute                    0000000180010c90 f   clientlib:libmysql.obj
 0001:00010230       ?EXTRA_DEBUG_fprintf@@YAXZZ 0000000180011230 f   clientlib:net_serv.obj
 0001:00010250       ?EXTRA_DEBUG_fflush@@YAHZZ 0000000180011250 f   clientlib:net_serv.obj
 0001:000103b0       ?net_data_is_ready@@YAH_K@Z 00000001800113b0 f   clientlib:net_serv.obj
 0001:000107c0       ?net_write_buff@@YADPEAUst_net@@PEBEK@Z 00000001800117c0 f   clientlib:net_serv.obj
 0001:00010ac0       ?my_real_read@@YAKPEAUst_net@@PEA_KD@Z 0000000180011ac0 f   clientlib:net_serv.obj
 0001:00011000       find_plugin                0000000180012000 f   clientlib:client_plugin.obj
 0001:00011060       add_plugin                 0000000180012060 f   clientlib:client_plugin.obj
 0001:000111c0       load_env_plugins           00000001800121c0 f   clientlib:client_plugin.obj
 0001:00011c00       my_context_trampoline      0000000180012c00 f   mysys:my_context.obj
 0001:00011e50       get_collation_number_internal 0000000180012e50 f   mysys:charset.obj
 0001:00011ed0       init_state_maps            0000000180012ed0 f   mysys:charset.obj
 0001:00012050       cs_copy_data               0000000180013050 f   mysys:charset.obj
 0001:00012280       add_collation              0000000180013280 f   mysys:charset.obj
 0001:00012850       default_reporter           0000000180013850 f   mysys:charset.obj
 0001:00012860       my_once_alloc_c            0000000180013860 f   mysys:charset.obj
 0001:00012870       my_malloc_c                0000000180013870 f   mysys:charset.obj
 0001:00012880       my_realloc_c               0000000180013880 f   mysys:charset.obj
 0001:00012890       my_read_charset_file       0000000180013890 f   mysys:charset.obj
 0001:00012b20       init_available_charsets    0000000180013b20 f   mysys:charset.obj
 0001:00012d60       get_charset_number_internal 0000000180013d60 f   mysys:charset.obj
 0001:00012e90       get_internal_charset       0000000180013e90 f   mysys:charset.obj
 0001:00013548       $LN45                      0000000180014548     mysys:charset.obj
 0001:00013568       $LN44                      0000000180014568     mysys:charset.obj
 0001:00013b50       find_type_eol              0000000180014b50 f   mysys:typelib.obj
 0001:00013fc0       my_hash_free_elements      0000000180014fc0 f   mysys:hash.obj
 0001:00014090       rec_hashnr                 0000000180015090 f   mysys:hash.obj
 0001:00014a50       fn_expand                  0000000180015a50 f   mysys:my_default.obj
 0001:00014f10       handle_default_option      0000000180015f10 f   mysys:my_default.obj
 0001:000155f0       search_default_file        00000001800165f0 f   mysys:my_default.obj
 0001:000156a0       search_default_file_with_ext 00000001800166a0 f   mysys:my_default.obj
 0001:00016050       $LN318                     0000000180017050     mysys:my_default.obj
 0001:00016074       $LN317                     0000000180017074     mysys:my_default.obj
 0001:000160d0       add_directory              00000001800170d0 f   mysys:my_default.obj
 0001:000161e0       init_default_directories   00000001800171e0 f   mysys:my_default.obj
 0001:00016570       my_sigabrt_handler         0000000180017570 f   mysys:my_thr_init.obj
 0001:00016580       win_init_registry          0000000180017580 f   mysys:my_init.obj
 0001:00016720       win32_have_tcpip           0000000180017720 f   mysys:my_init.obj
 0001:000167e0       win32_init_tcp_ip          00000001800177e0 f   mysys:my_init.obj
 0001:00016b50       my_thread_init_common_mutex 0000000180017b50 f   mysys:my_thr_init.obj
 0001:0001a3e0       check_native_cond_availability 000000018001b3e0 f   mysys:my_wincond.obj
 0001:0001a460       legacy_cond_init           000000018001b460 f   mysys:my_wincond.obj
 0001:0001b3b0       no_io_wait                 000000018001c3b0 f i vio:vio.obj
 0001:0001b5d0       backtick_string            000000018001c5d0 f   strings:my_vsnprintf.obj
 0001:0001b6f0       process_str_arg            000000018001c6f0 f   strings:my_vsnprintf.obj
 0001:0001b7d0       process_int_arg            000000018001c7d0 f   strings:my_vsnprintf.obj
 0001:0001b930       process_args               000000018001c930 f   strings:my_vsnprintf.obj
 0001:0001c0ec       $LN211                     000000018001d0ec     strings:my_vsnprintf.obj
 0001:0001c100       $LN210                     000000018001d100     strings:my_vsnprintf.obj
 0001:0001c12c       $LN209                     000000018001d12c     strings:my_vsnprintf.obj
 0001:0001c148       $LN208                     000000018001d148     strings:my_vsnprintf.obj
 0001:0001c7f0       skip_trailing_space        000000018001d7f0 f   strings:ctype-bin.obj
 0001:0001c7f0       skip_trailing_space        000000018001d7f0 f   strings:ctype-simple.obj
 0001:0001c7f0       skip_trailing_space        000000018001d7f0 f   strings:ctype-mb.obj
 0001:0001c7f0       skip_trailing_space        000000018001d7f0 f   strings:ctype-latin1.obj
 0001:0001c880       my_coll_init_8bit_bin      000000018001d880 f   strings:ctype-bin.obj
 0001:0001c890       my_strnncoll_8bit_bin      000000018001d890 f   strings:ctype-bin.obj
 0001:0001c890       my_strnncoll_binary        000000018001d890 f   strings:ctype-bin.obj
 0001:0001c8e0       my_case_bin                000000018001d8e0 f   strings:ctype-bin.obj
 0001:0001c8f0       my_strnncollsp_binary      000000018001d8f0 f   strings:ctype-bin.obj
 0001:0001c920       my_strnncollsp_8bit_bin    000000018001d920 f   strings:ctype-bin.obj
 0001:0001c9c0       my_strcasecmp_mb2_or_mb4   000000018001d9c0 f   strings:ctype-ucs2.obj
 0001:0001c9c0       my_casedn_str_mb2_or_mb4   000000018001d9c0 f   strings:ctype-ucs2.obj
 0001:0001c9c0       my_case_str_bin            000000018001d9c0 f   strings:ctype-bin.obj
 0001:0001c9c0       my_caseup_str_mb2_or_mb4   000000018001d9c0 f   strings:ctype-ucs2.obj
 0001:0001c9d0       my_strcasecmp_bin          000000018001d9d0 f   strings:ctype-bin.obj
 0001:0001c9f0       my_mb_wc_bin               000000018001d9f0 f   strings:ctype-bin.obj
 0001:0001cb30       my_wildcmp_bin_impl        000000018001db30 f   strings:ctype-bin.obj
 0001:0001cdb0       my_strnxfrm_8bit_bin       000000018001ddb0 f   strings:ctype-bin.obj
 0001:0001ce40       my_instr_bin               000000018001de40 f   strings:ctype-bin.obj
 0001:0001cf90       my_mb_wc_latin1            000000018001df90 f   strings:ctype-latin1.obj
 0001:0001cfc0       my_wc_mb_latin1            000000018001dfc0 f   strings:ctype-latin1.obj
 0001:0001d020       my_strnncoll_latin1_de     000000018001e020 f   strings:ctype-latin1.obj
 0001:0001d100       my_strnncollsp_latin1_de   000000018001e100 f   strings:ctype-latin1.obj
 0001:0001d210       my_strnxfrm_latin1_de      000000018001e210 f   strings:ctype-latin1.obj
 0001:0001da00       Balloc                     000000018001ea00 f   strings:dtoa.obj
 0001:0001da80       multadd                    000000018001ea80 f   strings:dtoa.obj
 0001:0001db70       s2b                        000000018001eb70 f   strings:dtoa.obj
 0001:0001dcd0       mult                       000000018001ecd0 f   strings:dtoa.obj
 0001:0001de10       pow5mult                   000000018001ee10 f   strings:dtoa.obj
 0001:0001dfa0       lshift                     000000018001efa0 f   strings:dtoa.obj
 0001:0001e150       cmp                        000000018001f150 f   strings:dtoa.obj
 0001:0001e1b0       diff                       000000018001f1b0 f   strings:dtoa.obj
 0001:0001e380       b2d                        000000018001f380 f   strings:dtoa.obj
 0001:0001e4d0       d2b                        000000018001f4d0 f   strings:dtoa.obj
 0001:0001e730       my_strtod_int              000000018001f730 f   strings:dtoa.obj
 0001:0001f920       quorem                     0000000180020920 f   strings:dtoa.obj
 0001:0001faf0       dtoa                       0000000180020af0 f   strings:dtoa.obj
 0001:00020c10       $LN331                     0000000180021c10     strings:dtoa.obj
 0001:00020f00       my_uca_alloc_contractions  0000000180021f00 f   strings:ctype-uca.obj
 0001:00020f90       my_uca_scanner_contraction_find 0000000180021f90 f   strings:ctype-uca.obj
 0001:00021120       my_uca_scanner_init_any    0000000180022120 f   strings:ctype-uca.obj
 0001:00021140       my_uca_scanner_next_any    0000000180022140 f   strings:ctype-uca.obj
 0001:00021390       my_strnncoll_uca           0000000180022390 f   strings:ctype-uca.obj
 0001:00021460       my_strnncollsp_uca         0000000180022460 f   strings:ctype-uca.obj
 0001:000215a0       my_hash_sort_uca           00000001800225a0 f   strings:ctype-uca.obj
 0001:00021710       my_strnxfrm_uca            0000000180022710 f   strings:ctype-uca.obj
 0001:000218a0       my_uca_charcmp             00000001800228a0 f   strings:ctype-uca.obj
 0001:000219f0       my_wildcmp_uca_impl        00000001800229f0 f   strings:ctype-uca.obj
 0001:00021d80       my_coll_lexem_num_to_str   0000000180022d80 f   strings:ctype-uca.obj
 0001:00021de0       $LN13                      0000000180022de0     strings:ctype-uca.obj
 0001:00021e10       my_coll_lexem_next         0000000180022e10 f   strings:ctype-uca.obj
 0001:00022000       $LN57                      0000000180023000     strings:ctype-uca.obj
 0001:00022020       $LN56                      0000000180023020     strings:ctype-uca.obj
 0001:000220a0       my_coll_rules_add          00000001800230a0 f   strings:ctype-uca.obj
 0001:00022150       my_coll_parser_scan_term   0000000180023150 f   strings:ctype-uca.obj
 0001:000221c0       my_coll_parser_scan_setting 00000001800231c0 f   strings:ctype-uca.obj
 0001:000222f0       my_coll_parser_scan_reset_before 00000001800232f0 f   strings:ctype-uca.obj
 0001:000224b0       my_coll_parser_scan_logical_position 00000001800234b0 f   strings:ctype-uca.obj
 0001:000227b0       my_coll_parser_scan_reset_sequence 00000001800237b0 f   strings:ctype-uca.obj
 0001:000228e0       my_coll_parser_scan_shift_sequence 00000001800238e0 f   strings:ctype-uca.obj
 0001:00022c50       my_coll_parser_scan_shift  0000000180023c50 f   strings:ctype-uca.obj
 0001:00022cf0       my_coll_parser_scan_rule   0000000180023cf0 f   strings:ctype-uca.obj
 0001:00022db0       my_coll_rule_parse         0000000180023db0 f   strings:ctype-uca.obj
 0001:00022fa0       my_char_weight_put         0000000180023fa0 f   strings:ctype-uca.obj
 0001:000231a0       my_charset_loader_error_for_rule 00000001800241a0 f   strings:ctype-uca.obj
 0001:00023290       apply_one_rule             0000000180024290 f   strings:ctype-uca.obj
 0001:00023570       init_weight_level          0000000180024570 f   strings:ctype-uca.obj
 0001:00023840       create_tailoring           0000000180024840 f   strings:ctype-uca.obj
 0001:00023a00       my_coll_init_uca           0000000180024a00 f   strings:ctype-uca.obj
 0001:00023a30       my_strnncoll_ucs2_uca      0000000180024a30 f   strings:ctype-uca.obj
 0001:00023a30       my_strnncoll_any_uca       0000000180024a30 f   strings:ctype-uca.obj
 0001:00023a60       my_strnncollsp_ucs2_uca    0000000180024a60 f   strings:ctype-uca.obj
 0001:00023a60       my_strnncollsp_any_uca     0000000180024a60 f   strings:ctype-uca.obj
 0001:00023a90       my_hash_sort_ucs2_uca      0000000180024a90 f   strings:ctype-uca.obj
 0001:00023a90       my_hash_sort_any_uca       0000000180024a90 f   strings:ctype-uca.obj
 0001:00023ac0       my_strnxfrm_any_uca        0000000180024ac0 f   strings:ctype-uca.obj
 0001:00023ac0       my_strnxfrm_ucs2_uca       0000000180024ac0 f   strings:ctype-uca.obj
 0001:00023b00       my_strnxfrmlen_any_uca     0000000180024b00 f   strings:ctype-uca.obj
 0001:00023d50       my_valid_mbcharlen_utf8mb3 0000000180024d50 f   strings:ctype-utf8.obj
 0001:00023dd0       my_wildcmp_unicode_impl    0000000180024dd0 f   strings:ctype-utf8.obj
 0001:00024520       my_utf8_uni                0000000180025520 f   strings:ctype-utf8.obj
 0001:000245f0       my_uni_utf8                00000001800255f0 f   strings:ctype-utf8.obj
 0001:00024680       my_caseup_utf8             0000000180025680 f   strings:ctype-utf8.obj
 0001:00024850       my_hash_sort_utf8          0000000180025850 f   strings:ctype-utf8.obj
 0001:00024a20       my_caseup_str_utf8         0000000180025a20 f   strings:ctype-utf8.obj
 0001:00024bb0       my_casedn_utf8             0000000180025bb0 f   strings:ctype-utf8.obj
 0001:00024d80       my_casedn_str_utf8         0000000180025d80 f   strings:ctype-utf8.obj
 0001:00024f10       my_strcasecmp_utf8         0000000180025f10 f   strings:ctype-utf8.obj
 0001:00025200       my_wildcmp_utf8            0000000180026200 f   strings:ctype-utf8.obj
 0001:00025200       my_wildcmp_utf32_ci        0000000180026200 f   strings:ctype-ucs2.obj
 0001:00025200       my_wildcmp_utf16_ci        0000000180026200 f   strings:ctype-ucs2.obj
 0001:00025200       my_wildcmp_utf8mb4         0000000180026200 f   strings:ctype-utf8.obj
 0001:00025200       my_wildcmp_ucs2_ci         0000000180026200 f   strings:ctype-ucs2.obj
 0001:00025250       my_charlen_utf8            0000000180026250 f   strings:ctype-utf8.obj
 0001:00025280       my_well_formed_len_utf8    0000000180026280 f   strings:ctype-utf8.obj
 0001:000252f0       my_well_formed_char_length_utf8 00000001800262f0 f   strings:ctype-utf8.obj
 0001:00025370       my_weight_mb2_utf8_general_ci 0000000180026370 f   strings:ctype-utf8.obj
 0001:000253b0       my_weight_mb3_utf8_general_ci 00000001800263b0 f   strings:ctype-utf8.obj
 0001:00025400       my_scan_weight_utf8_general_ci 0000000180026400 f   strings:ctype-utf8.obj
 0001:000254e0       my_strnncoll_utf8_general_ci 00000001800264e0 f   strings:ctype-utf8.obj
 0001:000255a0       my_strnncollsp_utf8_general_ci 00000001800265a0 f   strings:ctype-utf8.obj
 0001:00025760       my_scan_weight_utf8_general_mysql500_ci 0000000180026760 f   strings:ctype-utf8.obj
 0001:000258a0       my_strnncoll_utf8_general_mysql500_ci 00000001800268a0 f   strings:ctype-utf8.obj
 0001:00025960       my_strnncollsp_utf8_general_mysql500_ci 0000000180026960 f   strings:ctype-utf8.obj
 0001:00025a10       my_scan_weight_utf8_bin    0000000180026a10 f   strings:ctype-utf8.obj
 0001:00025af0       my_strnncoll_utf8_bin      0000000180026af0 f   strings:ctype-utf8.obj
 0001:00025bb0       my_strnncollsp_utf8_bin    0000000180026bb0 f   strings:ctype-utf8.obj
 0001:00025c60       my_ismbchar_utf8           0000000180026c60 f   strings:ctype-utf8.obj
 0001:00025cc0       my_mbcharlen_utf8          0000000180026cc0 f   strings:ctype-utf8.obj
 0001:00025d00       my_mb_wc_filename          0000000180026d00 f   strings:ctype-utf8.obj
 0001:00025ec0       my_wc_mb_filename          0000000180026ec0 f   strings:ctype-utf8.obj
 0001:00026050       my_charlen_utf16           0000000180027050 f   strings:ctype-ucs2.obj
 0001:00026050       my_charlen_filename        0000000180027050 f   strings:ctype-utf8.obj
 0001:00026070       my_ismbchar_filename       0000000180027070 f   strings:ctype-utf8.obj
 0001:000260a0       my_well_formed_char_length_filename 00000001800270a0 f   strings:ctype-utf8.obj
 0001:000260a0       my_well_formed_char_length_utf16 00000001800270a0 f   strings:ctype-ucs2.obj
 0001:00026140       my_mb_wc_utf8mb4           0000000180027140 f   strings:ctype-utf8.obj
 0001:000262b0       my_mb_wc_utf8mb4_no_range  00000001800272b0 f   strings:ctype-utf8.obj
 0001:000263e0       my_wc_mb_utf8mb4           00000001800273e0 f   strings:ctype-utf8.obj
 0001:000264a0       my_caseup_utf8mb4          00000001800274a0 f   strings:ctype-utf8.obj
 0001:00026580       my_hash_sort_utf8mb4       0000000180027580 f   strings:ctype-utf8.obj
 0001:00026700       my_caseup_str_utf8mb4      0000000180027700 f   strings:ctype-utf8.obj
 0001:00026840       my_casedn_utf8mb4          0000000180027840 f   strings:ctype-utf8.obj
 0001:00026920       my_casedn_str_utf8mb4      0000000180027920 f   strings:ctype-utf8.obj
 0001:00026a60       my_strcasecmp_utf8mb4      0000000180027a60 f   strings:ctype-utf8.obj
 0001:00026c00       my_charlen_utf8mb4         0000000180027c00 f   strings:ctype-utf8.obj
 0001:00026c80       my_well_formed_len_utf8mb4 0000000180027c80 f   strings:ctype-utf8.obj
 0001:00026d40       my_well_formed_char_length_utf8mb4 0000000180027d40 f   strings:ctype-utf8.obj
 0001:00026e10       my_scan_weight_utf8mb4_general_ci 0000000180027e10 f   strings:ctype-utf8.obj
 0001:00026f90       my_strnncoll_utf8mb4_general_ci 0000000180027f90 f   strings:ctype-utf8.obj
 0001:00027050       my_strnncollsp_utf8mb4_general_ci 0000000180028050 f   strings:ctype-utf8.obj
 0001:00027100       my_scan_weight_utf8mb4_bin 0000000180028100 f   strings:ctype-utf8.obj
 0001:000272c0       my_strnncoll_utf8mb4_bin   00000001800282c0 f   strings:ctype-utf8.obj
 0001:00027380       my_strnncollsp_utf8mb4_bin 0000000180028380 f   strings:ctype-utf8.obj
 0001:00027430       my_ismbchar_utf8mb4        0000000180028430 f   strings:ctype-utf8.obj
 0001:00027450       my_mbcharlen_utf8mb4       0000000180028450 f   strings:ctype-utf8.obj
 0001:000282c0       my_wildcmp_8bit_impl       00000001800292c0 f   strings:ctype-simple.obj
 0001:00028970       pcmp                       0000000180029970 f   strings:ctype-simple.obj
 0001:00028990       create_fromuni             0000000180029990 f   strings:ctype-simple.obj
 0001:00028c00       my_cset_init_8bit          0000000180029c00 f   strings:ctype-simple.obj
 0001:00028c20       set_max_sort_char          0000000180029c20 f   strings:ctype-simple.obj
 0001:00028cb0       my_coll_init_simple        0000000180029cb0 f   strings:ctype-simple.obj
 0001:00029120       uninitialize_global_state_isolation 000000018002a120 f   libucrt:initialization.obj
 0001:00029120       report_memory_leaks        000000018002a120 f   libucrt:initialization.obj
 0001:00029120       initialize_environment     000000018002a120 f   libucrt:initialization.obj
 0001:00029120       initialize_global_state_isolation 000000018002a120 f   libucrt:initialization.obj
 0001:00029120       uninitialize_c             000000018002a120 f   libucrt:initialization.obj
 0001:00029130       has_no_data                000000018002a130 f   vio:vio.obj
 0001:000292f0       cs_file_sec                000000018002a2f0 f   strings:ctype.obj
 0001:00029370       fill_uchar                 000000018002a370 f   strings:ctype.obj
 0001:00029440       fill_uint16                000000018002a440 f   strings:ctype.obj
 0001:00029520       tailoring_append           000000018002a520 f   strings:ctype.obj
 0001:000295f0       tailoring_append2          000000018002a5f0 f   strings:ctype.obj
 0001:000296d0       tailoring_append_abbreviation 000000018002a6d0 f   strings:ctype.obj
 0001:000297e0       cs_enter                   000000018002a7e0 f   strings:ctype.obj
 0001:000298b0       cs_leave                   000000018002a8b0 f   strings:ctype.obj
 0001:00029ad8       $LN27                      000000018002aad8     strings:ctype.obj
 0001:00029b10       cs_value                   000000018002ab10 f   strings:ctype.obj
 0001:00029f80       $LN62                      000000018002af80     strings:ctype.obj
 0001:00029ff0       $LN61                      000000018002aff0     strings:ctype.obj
 0001:0002a0c4       $LN60                      000000018002b0c4     strings:ctype.obj
 0001:0002a0e0       $LN59                      000000018002b0e0     strings:ctype.obj
 0001:0002a310       my_charlen_cp932           000000018002b310 f   strings:ctype-cp932.obj
 0001:0002a310       my_charlen_sjis            000000018002b310 f   strings:ctype-sjis.obj
 0001:0002a370       my_well_formed_len_sjis    000000018002b370 f   strings:ctype-sjis.obj
 0001:0002a370       my_well_formed_len_cp932   000000018002b370 f   strings:ctype-cp932.obj
 0001:0002a410       my_well_formed_char_length_sjis 000000018002b410 f   strings:ctype-sjis.obj
 0001:0002a410       my_well_formed_char_length_cp932 000000018002b410 f   strings:ctype-cp932.obj
 0001:0002a4b0       my_native_to_mb_gbk        000000018002b4b0 f   strings:ctype-gbk.obj
 0001:0002a4b0       my_native_to_mb_gb2312     000000018002b4b0 f   strings:ctype-gb2312.obj
 0001:0002a4b0       my_native_to_mb_eucjpms    000000018002b4b0 f   strings:ctype-eucjpms.obj
 0001:0002a4b0       my_native_to_mb_big5       000000018002b4b0 f   strings:ctype-big5.obj
 0001:0002a4b0       my_native_to_mb_cp932      000000018002b4b0 f   strings:ctype-cp932.obj
 0001:0002a4b0       my_native_to_mb_ujis       000000018002b4b0 f   strings:ctype-ujis.obj
 0001:0002a4b0       my_native_to_mb_sjis       000000018002b4b0 f   strings:ctype-sjis.obj
 0001:0002a4b0       my_native_to_mb_euckr      000000018002b4b0 f   strings:ctype-euc_kr.obj
 0001:0002a4f0       ismbchar_cp932             000000018002b4f0 f   strings:ctype-cp932.obj
 0001:0002a4f0       ismbchar_sjis              000000018002b4f0 f   strings:ctype-sjis.obj
 0001:0002a530       mbcharlen_cp932            000000018002b530 f   strings:ctype-cp932.obj
 0001:0002a530       mbcharlen_sjis             000000018002b530 f   strings:ctype-sjis.obj
 0001:0002a550       my_mb_wc_cp932             000000018002b550 f   strings:ctype-cp932.obj
 0001:0002a600       my_wc_mb_cp932             000000018002b600 f   strings:ctype-cp932.obj
 0001:0002a670       my_numcells_cp932          000000018002b670 f   strings:ctype-cp932.obj
 0001:0002a670       my_numcells_sjis           000000018002b670 f   strings:ctype-sjis.obj
 0001:0002a6b0       my_strnncoll_cp932_japanese_ci 000000018002b6b0 f   strings:ctype-cp932.obj
 0001:0002a830       my_strnncollsp_cp932_japanese_ci 000000018002b830 f   strings:ctype-cp932.obj
 0001:0002a9a0       my_strnncoll_sjis_bin      000000018002b9a0 f   strings:ctype-sjis.obj
 0001:0002a9a0       my_strnncoll_cp932_bin     000000018002b9a0 f   strings:ctype-cp932.obj
 0001:0002ab10       my_strnncollsp_sjis_bin    000000018002bb10 f   strings:ctype-sjis.obj
 0001:0002ab10       my_strnncollsp_cp932_bin   000000018002bb10 f   strings:ctype-cp932.obj
 0001:0002ae10       my_strnncoll_win1250ch     000000018002be10 f   strings:ctype-win1250ch.obj
 0001:0002b090       my_strnncollsp_win1250ch   000000018002c090 f   strings:ctype-win1250ch.obj
 0001:0002b0d0       my_strnxfrm_win1250ch      000000018002c0d0 f   strings:ctype-win1250ch.obj
 0001:0002b2a0       my_like_range_win1250ch    000000018002c2a0 f   strings:ctype-win1250ch.obj
 0001:0002b400       my_copy_incomplete_char    000000018002c400 f   strings:ctype-ucs2.obj
 0001:0002b4e0       my_copy_fix_mb2_or_mb4     000000018002c4e0 f   strings:ctype-ucs2.obj
 0001:0002b600       my_strntol_mb2_or_mb4      000000018002c600 f   strings:ctype-ucs2.obj
 0001:0002b830       my_strntoul_mb2_or_mb4     000000018002c830 f   strings:ctype-ucs2.obj
 0001:0002ba30       my_strntoll_mb2_or_mb4     000000018002ca30 f   strings:ctype-ucs2.obj
 0001:0002bc90       my_strntoull_mb2_or_mb4    000000018002cc90 f   strings:ctype-ucs2.obj
 0001:0002bea0       my_strntod_mb2_or_mb4      000000018002cea0 f   strings:ctype-ucs2.obj
 0001:0002bfd0       my_strntoull10rnd_mb2_or_mb4 000000018002cfd0 f   strings:ctype-ucs2.obj
 0001:0002c0f0       my_l10tostr_mb2_or_mb4     000000018002d0f0 f   strings:ctype-ucs2.obj
 0001:0002c210       my_ll10tostr_mb2_or_mb4    000000018002d210 f   strings:ctype-ucs2.obj
 0001:0002c370       my_strtoll10_mb2           000000018002d370 f   strings:ctype-ucs2.obj
 0001:0002c7e0       my_scan_mb2                000000018002d7e0 f   strings:ctype-ucs2.obj
 0001:0002c860       my_fill_mb2                000000018002d860 f   strings:ctype-ucs2.obj
 0001:0002c900       my_vsnprintf_mb2           000000018002d900 f   strings:ctype-ucs2.obj
 0001:0002cb90       my_snprintf_mb2            000000018002db90 f   strings:ctype-ucs2.obj
 0001:0002cbc0       my_lengthsp_mb2            000000018002dbc0 f   strings:ctype-ucs2.obj
 0001:0002cbf0       my_strnncoll_utf16_general_ci 000000018002dbf0 f   strings:ctype-ucs2.obj
 0001:0002cd90       my_strnncollsp_utf16_general_ci 000000018002dd90 f   strings:ctype-ucs2.obj
 0001:0002cf10       my_strnncoll_utf16_bin     000000018002df10 f   strings:ctype-ucs2.obj
 0001:0002d0c0       my_strnncollsp_utf16_bin   000000018002e0c0 f   strings:ctype-ucs2.obj
 0001:0002d250       my_utf16_uni               000000018002e250 f   strings:ctype-ucs2.obj
 0001:0002d2e0       my_uni_utf16               000000018002e2e0 f   strings:ctype-ucs2.obj
 0001:0002d370       my_caseup_utf16            000000018002e370 f   strings:ctype-ucs2.obj
 0001:0002d450       my_hash_sort_utf16         000000018002e450 f   strings:ctype-ucs2.obj
 0001:0002d570       my_casedn_utf16            000000018002e570 f   strings:ctype-ucs2.obj
 0001:0002d650       my_ismbchar_utf16          000000018002e650 f   strings:ctype-ucs2.obj
 0001:0002d680       my_mbcharlen_utf16         000000018002e680 f   strings:ctype-ucs2.obj
 0001:0002d6a0       my_numchars_utf16          000000018002e6a0 f   strings:ctype-ucs2.obj
 0001:0002d740       my_charpos_utf16           000000018002e740 f   strings:ctype-ucs2.obj
 0001:0002d7c0       my_well_formed_len_utf16   000000018002e7c0 f   strings:ctype-ucs2.obj
 0001:0002d860       my_wildcmp_ucs2_bin        000000018002e860 f   strings:ctype-ucs2.obj
 0001:0002d860       my_wildcmp_utf16_bin       000000018002e860 f   strings:ctype-ucs2.obj
 0001:0002d860       my_wildcmp_utf32_bin       000000018002e860 f   strings:ctype-ucs2.obj
 0001:0002d8b0       my_hash_sort_utf16_bin     000000018002e8b0 f   strings:ctype-ucs2.obj
 0001:0002d930       my_strnncoll_utf16le_general_ci 000000018002e930 f   strings:ctype-ucs2.obj
 0001:0002dad0       my_strnncollsp_utf16le_general_ci 000000018002ead0 f   strings:ctype-ucs2.obj
 0001:0002dc50       my_strnncoll_utf16le_bin   000000018002ec50 f   strings:ctype-ucs2.obj
 0001:0002de00       my_strnncollsp_utf16le_bin 000000018002ee00 f   strings:ctype-ucs2.obj
 0001:0002df90       my_utf16le_uni             000000018002ef90 f   strings:ctype-ucs2.obj
 0001:0002e010       my_uni_utf16le             000000018002f010 f   strings:ctype-ucs2.obj
 0001:0002e090       my_lengthsp_utf16le        000000018002f090 f   strings:ctype-ucs2.obj
 0001:0002e0c0       my_strnncoll_utf32_general_ci 000000018002f0c0 f   strings:ctype-ucs2.obj
 0001:0002e250       my_strnncollsp_utf32_general_ci 000000018002f250 f   strings:ctype-ucs2.obj
 0001:0002e3c0       my_strnncoll_utf32_bin     000000018002f3c0 f   strings:ctype-ucs2.obj
 0001:0002e4d0       my_strnncollsp_utf32_bin   000000018002f4d0 f   strings:ctype-ucs2.obj
 0001:0002e5b0       my_utf32_uni               000000018002f5b0 f   strings:ctype-ucs2.obj
 0001:0002e600       my_uni_utf32               000000018002f600 f   strings:ctype-ucs2.obj
 0001:0002e640       my_caseup_utf32            000000018002f640 f   strings:ctype-ucs2.obj
 0001:0002e740       my_hash_sort_utf32         000000018002f740 f   strings:ctype-ucs2.obj
 0001:0002e8d0       my_casedn_utf32            000000018002f8d0 f   strings:ctype-ucs2.obj
 0001:0002e9c0       my_ismbchar_utf32          000000018002f9c0 f   strings:ctype-ucs2.obj
 0001:0002e9e0       my_charlen_utf32           000000018002f9e0 f   strings:ctype-ucs2.obj
 0001:0002ea10       my_well_formed_char_length_utf32 000000018002fa10 f   strings:ctype-ucs2.obj
 0001:0002ea70       my_mbcharlen_utf32         000000018002fa70 f   strings:ctype-ucs2.obj
 0001:0002ea80       my_vsnprintf_utf32         000000018002fa80 f   strings:ctype-ucs2.obj
 0001:0002ed20       my_snprintf_utf32          000000018002fd20 f   strings:ctype-ucs2.obj
 0001:0002ed50       my_strtoll10_utf32         000000018002fd50 f   strings:ctype-ucs2.obj
 0001:0002f110       my_numchars_utf32          0000000180030110 f   strings:ctype-ucs2.obj
 0001:0002f120       my_charpos_utf32           0000000180030120 f   strings:ctype-ucs2.obj
 0001:0002f140       my_well_formed_len_utf32   0000000180030140 f   strings:ctype-ucs2.obj
 0001:0002f1a0       my_fill_utf32              00000001800301a0 f   strings:ctype-ucs2.obj
 0001:0002f230       my_lengthsp_utf32          0000000180030230 f   strings:ctype-ucs2.obj
 0001:0002f270       my_scan_utf32              0000000180030270 f   strings:ctype-ucs2.obj
 0001:0002f2e0       my_strnncoll_ucs2_general_ci 00000001800302e0 f   strings:ctype-ucs2.obj
 0001:0002f410       my_strnncollsp_ucs2_general_ci 0000000180030410 f   strings:ctype-ucs2.obj
 0001:0002f520       my_strnncoll_ucs2_bin      0000000180030520 f   strings:ctype-ucs2.obj
 0001:0002f600       my_strnncollsp_ucs2_bin    0000000180030600 f   strings:ctype-ucs2.obj
 0001:0002f6b0       my_charlen_ucs2            00000001800306b0 f   strings:ctype-ucs2.obj
 0001:0002f6d0       my_ucs2_uni                00000001800306d0 f   strings:ctype-ucs2.obj
 0001:0002f700       my_uni_ucs2                0000000180030700 f   strings:ctype-ucs2.obj
 0001:0002f730       my_caseup_ucs2             0000000180030730 f   strings:ctype-ucs2.obj
 0001:0002f7c0       my_hash_sort_ucs2          00000001800307c0 f   strings:ctype-ucs2.obj
 0001:0002f8e0       my_casedn_ucs2             00000001800308e0 f   strings:ctype-ucs2.obj
 0001:0002f970       my_fill_ucs2               0000000180030970 f   strings:ctype-ucs2.obj
 0001:0002f9a0       my_ismbchar_ucs2           00000001800309a0 f   strings:ctype-ucs2.obj
 0001:0002f9c0       my_mbcharlen_ucs2          00000001800309c0 f   strings:ctype-ucs2.obj
 0001:0002f9d0       my_numchars_ucs2           00000001800309d0 f   strings:ctype-ucs2.obj
 0001:0002f9e0       my_charpos_ucs2            00000001800309e0 f   strings:ctype-ucs2.obj
 0001:0002fa00       my_well_formed_len_ucs2    0000000180030a00 f   strings:ctype-ucs2.obj
 0001:0002fa20       my_well_formed_char_length_ucs2 0000000180030a20 f   strings:ctype-ucs2.obj
 0001:0002fa80       my_hash_sort_ucs2_bin      0000000180030a80 f   strings:ctype-ucs2.obj
 0001:0002fb20       my_charlen_euckr           0000000180030b20 f   strings:ctype-euc_kr.obj
 0001:0002fb80       my_well_formed_len_euckr   0000000180030b80 f   strings:ctype-euc_kr.obj
 0001:0002fc30       my_well_formed_char_length_euckr 0000000180030c30 f   strings:ctype-euc_kr.obj
 0001:0002fcc0       ismbchar_euc_kr            0000000180030cc0 f   strings:ctype-euc_kr.obj
 0001:0002fd10       mbcharlen_euc_kr           0000000180030d10 f   strings:ctype-euc_kr.obj
 0001:0002fd10       mbcharlen_gbk              0000000180030d10 f   strings:ctype-gbk.obj
 0001:0002fd20       func_uni_ksc5601_onechar   0000000180030d20 f   strings:ctype-euc_kr.obj
 0001:0002fed0       my_wc_mb_euc_kr            0000000180030ed0 f   strings:ctype-euc_kr.obj
 0001:0002ff40       my_mb_wc_euc_kr            0000000180030f40 f   strings:ctype-euc_kr.obj
 0001:00030010       my_strnncoll_euckr_korean_ci 0000000180031010 f   strings:ctype-euc_kr.obj
 0001:00030180       my_strnncollsp_euckr_korean_ci 0000000180031180 f   strings:ctype-euc_kr.obj
 0001:000302e0       my_strnncoll_euckr_bin     00000001800312e0 f   strings:ctype-euc_kr.obj
 0001:00030440       my_strnncollsp_euckr_bin   0000000180031440 f   strings:ctype-euc_kr.obj
 0001:00030590       my_charlen_eucjpms         0000000180031590 f   strings:ctype-eucjpms.obj
 0001:00030590       my_charlen_ujis            0000000180031590 f   strings:ctype-ujis.obj
 0001:00030610       my_well_formed_len_ujis    0000000180031610 f   strings:ctype-ujis.obj
 0001:00030610       my_well_formed_len_eucjpms 0000000180031610 f   strings:ctype-eucjpms.obj
 0001:000306d0       my_well_formed_char_length_ujis 00000001800316d0 f   strings:ctype-ujis.obj
 0001:000306d0       my_well_formed_char_length_eucjpms 00000001800316d0 f   strings:ctype-eucjpms.obj
 0001:00030780       my_scan_weight_eucjpms_japanese_ci 0000000180031780 f   strings:ctype-eucjpms.obj
 0001:00030850       my_strnncoll_eucjpms_japanese_ci 0000000180031850 f   strings:ctype-eucjpms.obj
 0001:00030910       my_strnncollsp_eucjpms_japanese_ci 0000000180031910 f   strings:ctype-eucjpms.obj
 0001:00030af0       my_strnncoll_eucjpms_bin   0000000180031af0 f   strings:ctype-eucjpms.obj
 0001:00030af0       my_strnncoll_ujis_bin      0000000180031af0 f   strings:ctype-ujis.obj
 0001:00030ce0       my_strnncollsp_ujis_bin    0000000180031ce0 f   strings:ctype-ujis.obj
 0001:00030ce0       my_strnncollsp_eucjpms_bin 0000000180031ce0 f   strings:ctype-eucjpms.obj
 0001:00030ea0       ismbchar_eucjpms           0000000180031ea0 f   strings:ctype-eucjpms.obj
 0001:00030ea0       ismbchar_ujis              0000000180031ea0 f   strings:ctype-ujis.obj
 0001:00030f20       mbcharlen_ujis             0000000180031f20 f   strings:ctype-ujis.obj
 0001:00030f20       mbcharlen_eucjpms          0000000180031f20 f   strings:ctype-eucjpms.obj
 0001:00030f50       my_mb_wc_eucjpms           0000000180031f50 f   strings:ctype-eucjpms.obj
 0001:00031060       my_wc_mb_eucjpms           0000000180032060 f   strings:ctype-eucjpms.obj
 0001:00031120       my_numcells_eucjp          0000000180032120 f   strings:ctype-ujis.obj
 0001:00031120       my_numcells_eucjpms        0000000180032120 f   strings:ctype-eucjpms.obj
 0001:00031170       my_scan_weight_ujis_japanese_ci 0000000180032170 f   strings:ctype-ujis.obj
 0001:00031240       my_strnncoll_ujis_japanese_ci 0000000180032240 f   strings:ctype-ujis.obj
 0001:00031300       my_strnncollsp_ujis_japanese_ci 0000000180032300 f   strings:ctype-ujis.obj
 0001:000314e0       my_mb_wc_euc_jp            00000001800324e0 f   strings:ctype-ujis.obj
 0001:000315f0       my_wc_mb_euc_jp            00000001800325f0 f   strings:ctype-ujis.obj
 0001:000316b0       my_casefold_ujis           00000001800326b0 f   strings:ctype-ujis.obj
 0001:00031830       my_charlen_gb2312          0000000180032830 f   strings:ctype-gb2312.obj
 0001:00031880       my_well_formed_len_gb2312  0000000180032880 f   strings:ctype-gb2312.obj
 0001:000318f0       my_well_formed_char_length_gb2312 00000001800328f0 f   strings:ctype-gb2312.obj
 0001:00031970       ismbchar_gb2312            0000000180032970 f   strings:ctype-gb2312.obj
 0001:000319a0       mbcharlen_gb2312           00000001800329a0 f   strings:ctype-gb2312.obj
 0001:000319b0       func_gb2312_uni_onechar    00000001800329b0 f   strings:ctype-gb2312.obj
 0001:00031a30       func_uni_gb2312_onechar    0000000180032a30 f   strings:ctype-gb2312.obj
 0001:00031bb0       my_wc_mb_gb2312            0000000180032bb0 f   strings:ctype-gb2312.obj
 0001:00031c20       my_mb_wc_gb2312            0000000180032c20 f   strings:ctype-gb2312.obj
 0001:00031cb0       my_strnncoll_gb2312_chinese_ci 0000000180032cb0 f   strings:ctype-gb2312.obj
 0001:00031df0       my_strnncollsp_gb2312_chinese_ci 0000000180032df0 f   strings:ctype-gb2312.obj
 0001:00031f10       my_strnncoll_gb2312_bin    0000000180032f10 f   strings:ctype-gb2312.obj
 0001:00032040       my_strnncollsp_gb2312_bin  0000000180033040 f   strings:ctype-gb2312.obj
 0001:00032140       my_strnncoll_czech         0000000180033140 f   strings:ctype-czech.obj
 0001:00032580       my_strnncollsp_czech       0000000180033580 f   strings:ctype-czech.obj
 0001:000325c0       my_strnxfrmlen_czech       00000001800335c0 f   strings:ctype-czech.obj
 0001:000325d0       my_strnxfrm_czech          00000001800335d0 f   strings:ctype-czech.obj
 0001:00032870       my_like_range_czech        0000000180033870 f   strings:ctype-czech.obj
 0001:000329a0       my_charlen_big5            00000001800339a0 f   strings:ctype-big5.obj
 0001:000329f0       my_well_formed_len_big5    00000001800339f0 f   strings:ctype-big5.obj
 0001:00032a70       my_well_formed_char_length_big5 0000000180033a70 f   strings:ctype-big5.obj
 0001:00032af0       big5strokexfrm             0000000180033af0 f   strings:ctype-big5.obj
 0001:00033160       my_strnxfrm_big5           0000000180034160 f   strings:ctype-big5.obj
 0001:00033270       ismbchar_big5              0000000180034270 f   strings:ctype-big5.obj
 0001:000332a0       mbcharlen_big5             00000001800342a0 f   strings:ctype-big5.obj
 0001:000332b0       func_uni_big5_onechar      00000001800342b0 f   strings:ctype-big5.obj
 0001:00033450       my_wc_mb_big5              0000000180034450 f   strings:ctype-big5.obj
 0001:000334b0       my_mb_wc_big5              00000001800344b0 f   strings:ctype-big5.obj
 0001:00033570       my_strnncoll_big5_chinese_ci 0000000180034570 f   strings:ctype-big5.obj
 0001:000336c0       my_strnncollsp_big5_chinese_ci 00000001800346c0 f   strings:ctype-big5.obj
 0001:00033800       my_strnncoll_big5_bin      0000000180034800 f   strings:ctype-big5.obj
 0001:00033940       my_strnncollsp_big5_bin    0000000180034940 f   strings:ctype-big5.obj
 0001:00033a50       thai2sortable              0000000180034a50 f   strings:ctype-tis620.obj
 0001:00033b70       my_strnncoll_tis620        0000000180034b70 f   strings:ctype-tis620.obj
 0001:00033c80       my_strnncollsp_tis620      0000000180034c80 f   strings:ctype-tis620.obj
 0001:00033de0       my_strnxfrm_tis620         0000000180034de0 f   strings:ctype-tis620.obj
 0001:00033ed0       my_mb_wc_tis620            0000000180034ed0 f   strings:ctype-tis620.obj
 0001:00033f00       my_wc_mb_tis620            0000000180034f00 f   strings:ctype-tis620.obj
 0001:00033f50       my_mb_wc_sjis              0000000180034f50 f   strings:ctype-sjis.obj
 0001:00034000       my_wc_mb_sjis              0000000180035000 f   strings:ctype-sjis.obj
 0001:00034080       my_strnncoll_sjis_japanese_ci 0000000180035080 f   strings:ctype-sjis.obj
 0001:00034200       my_strnncollsp_sjis_japanese_ci 0000000180035200 f   strings:ctype-sjis.obj
 0001:00034370       my_charlen_gbk             0000000180035370 f   strings:ctype-gbk.obj
 0001:000343c0       my_well_formed_len_gbk     00000001800353c0 f   strings:ctype-gbk.obj
 0001:00034440       my_well_formed_char_length_gbk 0000000180035440 f   strings:ctype-gbk.obj
 0001:000344c0       gbksortorder               00000001800354c0 f   strings:ctype-gbk.obj
 0001:00034500       my_strnxfrm_gbk            0000000180035500 f   strings:ctype-gbk.obj
 0001:00034660       ismbchar_gbk               0000000180035660 f   strings:ctype-gbk.obj
 0001:00034690       func_uni_gbk_onechar       0000000180035690 f   strings:ctype-gbk.obj
 0001:000347f0       my_wc_mb_gbk               00000001800357f0 f   strings:ctype-gbk.obj
 0001:00034860       my_mb_wc_gbk               0000000180035860 f   strings:ctype-gbk.obj
 0001:00034900       my_strnncoll_gbk_chinese_ci 0000000180035900 f   strings:ctype-gbk.obj
 0001:00034a70       my_strnncollsp_gbk_chinese_ci 0000000180035a70 f   strings:ctype-gbk.obj
 0001:00034bc0       my_strnncoll_gbk_bin       0000000180035bc0 f   strings:ctype-gbk.obj
 0001:00034d00       my_strnncollsp_gbk_bin     0000000180035d00 f   strings:ctype-gbk.obj
 0001:00034e20       my_str_malloc_default      0000000180035e20 f   strings:str_alloc.obj
 0001:00034e40       my_str_free_default        0000000180035e40 f   strings:str_alloc.obj
 0001:000350e0       my_casefold_mb_varlen      00000001800360e0 f   strings:ctype-mb.obj
 0001:000352b0       my_wildcmp_mb_impl         00000001800362b0 f   strings:ctype-mb.obj
 0001:000358d0       my_append_fix_badly_formed_tail 00000001800368d0 f   strings:ctype-mb.obj
 0001:00035e00       pad_max_char               0000000180036e00 f   strings:ctype-mb.obj
 0001:00036560       my_wildcmp_mb_bin_impl     0000000180037560 f   strings:ctype-mb.obj
 0001:00036af0       lex2str                    0000000180037af0 f   strings:xml.obj
 0001:00036b80       $LN18                      0000000180037b80     strings:xml.obj
 0001:00036bb4       $LN17                      0000000180037bb4     strings:xml.obj
 0001:00036bf0       my_xml_scan                0000000180037bf0 f   strings:xml.obj
 0001:00036f50       my_xml_enter               0000000180037f50 f   strings:xml.obj
 0001:000370d0       my_xml_leave               00000001800380d0 f   strings:xml.obj
 0001:00037730       vio_init                   0000000180038730 f   vio:vio.obj
 0001:00037d30       inline_mysql_socket_shutdown 0000000180038d30 f   vio:viosocket.obj
 0001:000381b0       cancel_io_apc              00000001800391b0 f   vio:viosocket.obj
 0001:00038580       vio_get_normalized_ip      0000000180039580 f   vio:viosocket.obj
 0001:00038de0       wait_overlapped_result     0000000180039de0 f   vio:viopipe.obj
 0001:00039410       flush_pending              000000018003a410 f   zlib:deflate.obj
 0001:00039e20       read_buf                   000000018003ae20 f   zlib:deflate.obj
 0001:00039ed0       lm_init                    000000018003aed0 f   zlib:deflate.obj
 0001:00039f80       longest_match              000000018003af80 f   zlib:deflate.obj
 0001:0003a150       fill_window                000000018003b150 f   zlib:deflate.obj
 0001:0003a3b0       deflate_stored             000000018003b3b0 f   zlib:deflate.obj
 0001:0003a660       deflate_fast               000000018003b660 f   zlib:deflate.obj
 0001:0003aac0       deflate_slow               000000018003bac0 f   zlib:deflate.obj
 0001:0003afd0       deflate_rle                000000018003bfd0 f   zlib:deflate.obj
 0001:0003b300       deflate_huff               000000018003c300 f   zlib:deflate.obj
 0001:0003b6a0       updatewindow               000000018003c6a0 f   zlib:inflate.obj
 0001:0003ceb0       $LN921                     000000018003deb0     zlib:inflate.obj
 0001:0003cf30       init_block                 000000018003df30 f   zlib:trees.obj
 0001:0003cfb0       pqdownheap                 000000018003dfb0 f   zlib:trees.obj
 0001:0003d0c0       gen_bitlen                 000000018003e0c0 f   zlib:trees.obj
 0001:0003d2d0       gen_codes                  000000018003e2d0 f   zlib:trees.obj
 0001:0003d390       build_tree                 000000018003e390 f   zlib:trees.obj
 0001:0003d5d0       scan_tree                  000000018003e5d0 f   zlib:trees.obj
 0001:0003d710       send_tree                  000000018003e710 f   zlib:trees.obj
 0001:0003dce0       build_bl_tree              000000018003ece0 f   zlib:trees.obj
 0001:0003ddb0       send_all_trees             000000018003edb0 f   zlib:trees.obj
 0001:0003e360       compress_block             000000018003f360 f   zlib:trees.obj
 0001:0003e7b0       detect_data_type           000000018003f7b0 f   zlib:trees.obj
 0001:0003e830       bi_flush                   000000018003f830 f   zlib:trees.obj
 0001:0003e8b0       copy_block                 000000018003f8b0 f   zlib:trees.obj
 0001:0003ecb0       crc32_little               000000018003fcb0 f   zlib:crc32.obj
 0001:00041240       $$000000                   0000000180042240     LIBCMT:_amdsecgs_.obj
 0001:0004169c       ?dllmain_crt_dispatch@@YAHQEAUHINSTANCE__@@KQEAX@Z 000000018004269c f   LIBCMT:dll_dllmain.obj
 0001:000416ec       ?dllmain_crt_process_attach@@YAHQEAUHINSTANCE__@@QEAX@Z 00000001800426ec f   LIBCMT:dll_dllmain.obj
 0001:00041818       ?dllmain_crt_process_detach@@YAH_N@Z 0000000180042818 f   LIBCMT:dll_dllmain.obj
 0001:0004189c       ?dllmain_dispatch@@YAHQEAUHINSTANCE__@@KQEAX@Z 000000018004289c f   LIBCMT:dll_dllmain.obj
 0001:00041994       ?dllmain_raw@@YAHQEAUHINSTANCE__@@KQEAX@Z 0000000180042994 f   LIBCMT:dll_dllmain.obj
 0001:00041be0       capture_current_context    0000000180042be0 f   LIBCMT:gs_report.obj
 0001:00041c50       capture_previous_context   0000000180042c50 f   LIBCMT:gs_report.obj
 0001:00042350       $$000000                   0000000180043350     libvcruntime:memcpy.obj
 0001:000423f7       MoveSmall                  00000001800433f7     libvcruntime:memcpy.obj
 0001:00042fb0       $$000000                   0000000180043fb0     libvcruntime:memset.obj
 0001:0004309c       MsetTab                    000000018004409c     libvcruntime:memset.obj
 0001:000433bc       ?try_get_function@@YAPEAXW4function_id@?A0x679b24ab@@QEBDQEBW4module_id@2@2@Z 00000001800443bc f   libvcruntime:winapi_downlevel.obj
 0001:000437f0       $$000000                   00000001800447f0     libvcruntime:_jmpuwind_.obj
 0001:00043ea8       ??R<lambda_0a64b6a4deda75c01876f29c44fc5eb3>@@QEBAHXZ 0000000180044ea8 f   libucrt:output.obj
 0001:00043f98       ??R<lambda_dd75445284c072d0bd3768540cc698fa>@@QEBAHXZ 0000000180044f98 f   libucrt:output.obj
 0001:000476d0       ??$common_assert_to_message_box@_W@@YAXQEB_W0IQEAX@Z 00000001800486d0 f   libucrt:assert.obj
 0001:00047794       ??$common_assert_to_message_box_build_string@_W@@YAXQEA_W_KQEB_W2IQEAX@Z 0000000180048794 f   libucrt:assert.obj
 0001:00047f68       ??$common_assert_to_stderr@_W@@YAXQEB_W0I@Z 0000000180048f68 f   libucrt:assert.obj
 0001:000480d8       ?get_assert_format@@YAPEB_W_W@Z 00000001800490d8 f   libucrt:assert.obj
 0001:000482dc       ?atexit_exception_filter@@YAHK@Z 00000001800492dc f   libucrt:exit.obj
 0001:000482e8       ?common_exit@@YAXHW4_crt_exit_cleanup_mode@@W4_crt_exit_return_mode@@@Z 00000001800492e8 f   libucrt:exit.obj
 0001:00048454       ?exit_or_terminate_process@@YAXI@Z 0000000180049454 f   libucrt:exit.obj
 0001:000484a0       ?try_cor_exit_process@@YAXI@Z 00000001800494a0 f   libucrt:exit.obj
 0001:00049190       $$000000                   000000018004a190     libucrt:strncmp.obj
 0001:00049260       ??$common_getenv@D@@YAPEADQEBD@Z 000000018004a260 f   libucrt:getenv.obj
 0001:000492cc       ??$common_getenv_nolock@D@@YAPEADQEBD@Z 000000018004a2cc f   libucrt:getenv.obj
 0001:00049354       ??$common_getenv_s@D@@YAHQEA_KQEAD_KQEBD@Z 000000018004a354 f   libucrt:getenv.obj
 0001:000494ac       ?ctrlevent_capture@@YAHK@Z 000000018004a4ac f   libucrt:signal.obj
 0001:00049554       ?get_global_action_nolock@@YAPEAP6AXH@ZH@Z 000000018004a554 f   libucrt:signal.obj
 0001:00049d5c       ??R<lambda_55f9cbce55698c0319f95c01c080475b>@@QEBAHXZ 000000018004ad5c f   libucrt:puts.obj
 0001:00049ee8       ??$common_fgets@D@@YAPEADQEADHV__crt_stdio_stream@@@Z 000000018004aee8 f   libucrt:fgets.obj
 0001:0004a00c       ??R<lambda_9a20e10065b92b5193c3597a66cba9d4>@@QEBAHXZ 000000018004b00c f   libucrt:fputs.obj
 0001:0004a1d4       ?_isindst_nolock@@YAHQEAUtm@@@Z 000000018004b1d4 f   libucrt:tzset.obj
 0001:0004a4f0       ?cvtdate@@YAXW4transition_type@?A0x1b14ceb2@@W4date_type@2@HHHHHHHHH@Z 000000018004b4f0 f   libucrt:tzset.obj
 0001:0004a6e4       ?tzset_from_environment_nolock@@YAXPEAD@Z 000000018004b6e4 f   libucrt:tzset.obj
 0001:0004a934       ?tzset_from_system_nolock@@YAXXZ 000000018004b934 f   libucrt:tzset.obj
 0001:0004ab08       ?tzset_nolock@@YAXXZ       000000018004bb08 f   libucrt:tzset.obj
 0001:0004afc4       ??$common_find_first_wide@U_wfinddata64i32_t@@@@YA_JQEB_WQEAU_wfinddata64i32_t@@@Z 000000018004bfc4 f   libucrt:findfile.obj
 0001:0004b10c       ??$common_find_next_wide@U_wfinddata64i32_t@@@@YAH_JQEAU_wfinddata64i32_t@@@Z 000000018004c10c f   libucrt:findfile.obj
 0001:0004b234       ??$convert_file_time_to_time_t@_J@@YA_JAEBU_FILETIME@@@Z 000000018004c234 f   libucrt:findfile.obj
 0001:0004b2c4       ??$copy_wide_to_narrow_find_data@U_wfinddata64i32_t@@U_finddata64i32_t@@@@YA_NAEBU_wfinddata64i32_t@@AEAU_finddata64i32_t@@@Z 000000018004c2c4 f   libucrt:findfile.obj
 0001:0004bdf4       common_flush_all           000000018004cdf4 f   libucrt:fflush.obj
 0001:0004bf1c       ??$common_fsopen@D@@YAPEAU_iobuf@@QEBD0H@Z 000000018004cf1c f   libucrt:fopen.obj
 0001:0004c0e8       ??$common_stat@U_stat64@@@@YAHQEB_WQEAU_stat64@@@Z 000000018004d0e8 f   libucrt:stat.obj
 0001:0004c2c0       ??$common_stat_handle_file_opened@U_stat64@@@@YA_NQEB_WHQEAXAEAU_stat64@@@Z 000000018004d2c0 f   libucrt:stat.obj
 0001:0004c4b0       ??$convert_large_integer_time_to_time_t@_J@@YA_JT_LARGE_INTEGER@@_J@Z 000000018004d4b0 f   libucrt:stat.obj
 0001:0004c568       ?convert_to_stat_mode@@YAGHQEB_W@Z 000000018004d568 f   libucrt:stat.obj
 0001:0004c694       ?get_drive_number_from_path@@YA_NQEB_WAEAH@Z 000000018004d694 f   libucrt:stat.obj
 0001:0004c700       ?is_root_unc_name@@YA_NQEB_W@Z 000000018004d700 f   libucrt:stat.obj
 0001:0004c7a4       ?is_usable_drive_or_unc_root@@YA_NQEB_W@Z 000000018004d7a4 f   libucrt:stat.obj
 0001:0004c908       ?internal_islower_l@@YA_NHQEAU__crt_locale_pointers@@@Z 000000018004d908 f   libucrt:tolower_toupper.obj
 0001:0004c958       ?internal_isupper_l@@YA_NHQEAU__crt_locale_pointers@@@Z 000000018004d958 f   libucrt:tolower_toupper.obj
 0001:0004d260       ?shortsort@@YAXPEAD0_KP6AHPEBX2@Z@Z 000000018004e260 f   libucrt:qsort.obj
 0001:0004d884       ??$parse_command_line@D@@YAXPEADPEAPEAD0PEA_K2@Z 000000018004e884 f   libucrt:argv_parsing.obj
 0001:0004dc1c       ??$common_get_or_create_environment_nolock@D@@YAPEAPEADXZ 000000018004ec1c f   libucrt:environment_initialization.obj
 0001:0004dc64       ??$common_get_or_create_environment_nolock@_W@@YAPEAPEA_WXZ 000000018004ec64 f   libucrt:environment_initialization.obj
 0001:0004dcac       ??$common_initialize_environment_nolock@D@@YAHXZ 000000018004ecac f   libucrt:environment_initialization.obj
 0001:0004dd18       ??$common_initialize_environment_nolock@_W@@YAHXZ 000000018004ed18 f   libucrt:environment_initialization.obj
 0001:0004dd80       ??$create_environment@D@@YAQEAPEADQEAD@Z 000000018004ed80 f   libucrt:environment_initialization.obj
 0001:0004de7c       ??$create_environment@_W@@YAQEAPEA_WQEA_W@Z 000000018004ee7c f   libucrt:environment_initialization.obj
 0001:0004df80       ??$free_environment@_W@@YAXQEAPEA_W@Z 000000018004ef80 f   libucrt:environment_initialization.obj
 0001:0004df80       ??$free_environment@D@@YAXQEAPEAD@Z 000000018004ef80 f   libucrt:environment_initialization.obj
 0001:0004dfc4       ??$initialize_environment_by_cloning_nolock@D@@YAHXZ 000000018004efc4 f   libucrt:environment_initialization.obj
 0001:0004e098       ??$initialize_environment_by_cloning_nolock@_W@@YAHXZ 000000018004f098 f   libucrt:environment_initialization.obj
 0001:0004e148       ??$uninitialize_environment_internal@D@@YAXAEAPEAPEAD@Z 000000018004f148 f   libucrt:environment_initialization.obj
 0001:0004e164       ??$uninitialize_environment_internal@_W@@YAXAEAPEAPEA_W@Z 000000018004f164 f   libucrt:environment_initialization.obj
 0001:0004e3ac       ??R<lambda_4e60a939b0d047cfe11ddc22648dfba9>@@QEBAHXZ 000000018004f3ac f   libucrt:onexit.obj
 0001:0004e65c       initialize_global_variables 000000018004f65c f   libucrt:initialization.obj
 0001:0004e670       initialize_c               000000018004f670 f   libucrt:initialization.obj
 0001:0004e694       uninitialize_environment   000000018004f694 f   libucrt:initialization.obj
 0001:0004e6a4       initialize_pointers        000000018004f6a4 f   libucrt:initialization.obj
 0001:0004e6f8       uninitialize_vcruntime     000000018004f6f8 f   libucrt:initialization.obj
 0001:0004e700       uninitialize_allocated_memory 000000018004f700 f   libucrt:initialization.obj
 0001:0004e950       ??$common_putenv@D@@YAHQEBD0@Z 000000018004f950 f   libucrt:putenv.obj
 0001:0004e990       ??$common_putenv_nolock@D@@YAHQEBD0@Z 000000018004f990 f   libucrt:putenv.obj
 0001:0004ea24       ??$create_environment_string@D@@YAPEADQEBD0@Z 000000018004fa24 f   libucrt:putenv.obj
 0001:0004eb64       ??$set_variable_in_other_environment@D@@YA_NQEBD0@Z 000000018004fb64 f   libucrt:putenv.obj
 0001:0004ec94       ??$common_getdcwd@D@@YAPEADHQEADHHQEBDH@Z 000000018004fc94 f   libucrt:getcwd.obj
 0001:0004edd8       ??$common_getdcwd@_W@@YAPEA_WHQEA_WHHQEBDH@Z 000000018004fdd8 f   libucrt:getcwd.obj
 0001:0004ef2c       ??$common_getdcwd_user_buffer@D@@YAPEADQEAD0I@Z 000000018004ff2c f   libucrt:getcwd.obj
 0001:0004ef98       ??$common_getdcwd_user_buffer@_W@@YAPEA_WQEA_W0I@Z 000000018004ff98 f   libucrt:getcwd.obj
 0001:0004f004       ?is_valid_drive@@YAHI@Z    0000000180050004 f   libucrt:getcwd.obj
 0001:0004f8f8       ?construct_ptd_array@@YAXQEAU__acrt_ptd@@@Z 00000001800508f8 f   libucrt:per_thread_data.obj
 0001:0004f9c8       ?destroy_fls@@YAXPEAX@Z    00000001800509c8 f   libucrt:per_thread_data.obj
 0001:0004f9e8       ?destroy_ptd_array@@YAXQEAU__acrt_ptd@@@Z 00000001800509e8 f   libucrt:per_thread_data.obj
 0001:0004fae0       ?replace_current_thread_locale_nolock@@YAXQEAU__acrt_ptd@@QEAU__crt_locale_data@@@Z 0000000180050ae0 f   libucrt:per_thread_data.obj
 0001:0004fdf0       ?fp_format_a@@YAHQEBNPEAD_KQEAD2H_NIQEAU__crt_locale_pointers@@@Z 0000000180050df0 f   libucrt:cvt.obj
 0001:00050150       ?fp_format_e@@YAHQEBNQEAD_K12H_NIQEAU__crt_locale_pointers@@@Z 0000000180051150 f   libucrt:cvt.obj
 0001:00050220       ?fp_format_e_internal@@YAHQEAD_KH_NIQEAU_strflt@@2QEAU__crt_locale_pointers@@@Z 0000000180051220 f   libucrt:cvt.obj
 0001:000503fc       ?fp_format_f_internal@@YAHQEAD_KHQEAU_strflt@@_NQEAU__crt_locale_pointers@@@Z 00000001800513fc f   libucrt:cvt.obj
 0001:00050544       ?fp_format_g@@YAHQEBNQEAD_K12H_NIQEAU__crt_locale_pointers@@@Z 0000000180051544 f   libucrt:cvt.obj
 0001:0005067c       ?fp_format_nan_or_infinity@@YAHW4__acrt_fp_class@@_NPEAD_K1@Z 000000018005167c f   libucrt:cvt.obj
 0001:00050cf8       ?initialize_inherited_file_handles_nolock@@YAXXZ 0000000180051cf8 f   libucrt:ioinit.obj
 0001:00050de4       ?initialize_stdio_handles_nolock@@YAXXZ 0000000180051de4 f   libucrt:ioinit.obj
 0001:00050f64       ??$common_xtox@K_W@@YAHKQEA_W_KI_N@Z 0000000180051f64 f   libucrt:xtoa.obj
 0001:00051010       ??$common_xtox_s@K_W@@YAHKQEA_W_KI_N@Z 0000000180052010 f   libucrt:xtoa.obj
 0001:000512d4       ??$message_box_wait_thread@_W@@YAKQEAX@Z 00000001800522d4 f   libucrt:crtmbox.obj
 0001:00051458       ??R<lambda_b721fa326cdb32351d23dfa67958c160>@@QEBAHXZ 0000000180052458 f   libucrt:setvbuf.obj
 0001:000516a0       ?try_get_function@@YAPEAXW4function_id@?A0x63058377@@QEBDQEBW4module_id@2@2@Z 00000001800526a0 f   libucrt:winapi_thunks.obj
 0001:0005277c       ??$write_buffer_nolock@D@@YA_NDV__crt_stdio_stream@@@Z 000000018005377c f   libucrt:_flsbuf.obj
 0001:00052880       ??$write_buffer_nolock@_W@@YA_N_WV__crt_stdio_stream@@@Z 0000000180053880 f   libucrt:_flsbuf.obj
 0001:00052eb0       ??$common_loctotime_t@_J@@YA_JHHHHHHH@Z 0000000180053eb0 f   libucrt:loctotime.obj
 0001:000532e0       ?write_double_translated_ansi_nolock@@YA?AUwrite_result@?A0x9c548279@@HQEBDI@Z 00000001800542e0 f   libucrt:write.obj
 0001:000534e8       ?write_text_ansi_nolock@@YA?AUwrite_result@?A0x9c548279@@HQEBDI@Z 00000001800544e8 f   libucrt:write.obj
 0001:000535f0       ?write_text_utf16le_nolock@@YA?AUwrite_result@?A0x9c548279@@HQEBDI@Z 00000001800545f0 f   libucrt:write.obj
 0001:0005370c       ?write_text_utf8_nolock@@YA?AUwrite_result@?A0x9c548279@@HQEBDI@Z 000000018005470c f   libucrt:write.obj
 0001:00053cf0       ?find_or_allocate_unused_stream_nolock@@YA?AV__crt_stdio_stream@@XZ 0000000180054cf0 f   libucrt:stream.obj
 0001:00053edc       ??$common_fullpath_user_buffer@_W@@YAPEA_WQEA_WQEB_W_K@Z 0000000180054edc f   libucrt:fullpath.obj
 0001:0005422c       ?__acrt_LCMapStringA_stat@@YAHPEAU__crt_locale_pointers@@PEB_WKPEBDHPEADHHH@Z 000000018005522c f   libucrt:lcmapstringa.obj
 0001:00054620       ??$common_lseek@_J@@YA_JH_JH@Z 0000000180055620 f   libucrt:lseek.obj
 0001:00054710       ??$common_lseek_nolock@_J@@YA_JH_JH@Z 0000000180055710 f   libucrt:lseek.obj
 0001:000547bc       ??$translate_text_mode_nolock@_W@@YAHHQEA_W_K@Z 00000001800557bc f   libucrt:read.obj
 0001:000549ec       ?translate_ansi_or_utf8_nolock@@YAHHQEAD_KQEA_W1@Z 00000001800559ec f   libucrt:read.obj
 0001:0005526c       ??$common_refill_and_read_nolock@D@@YAHV__crt_stdio_stream@@@Z 000000018005626c f   libucrt:_filbuf.obj
 0001:000554b4       ?<helper_func_cdecl>@<lambda_2feae5270eb4d0d5532525f423405775>@@CAHPEBX0@Z 00000001800564b4 f   libucrt:argv_wildcards.obj
 0001:000554c8       ??$common_expand_argv_wildcards@D@@YAHQEAPEADQEAPEAPEAD@Z 00000001800564c8 f   libucrt:argv_wildcards.obj
 0001:000556d4       ??$copy_and_add_argument_to_buffer@D@@YAHQEBD0_KAEAV?$argument_list@D@?A0xca0879c4@@@Z 00000001800566d4 f   libucrt:argv_wildcards.obj
 0001:000557e4       ??$expand_argument_wildcards@D@@YAHQEAD0AEAV?$argument_list@D@?A0xca0879c4@@@Z 00000001800567e4 f   libucrt:argv_wildcards.obj
 0001:00055a98       ??R<lambda_ad1ced32f4ac17aa236e5ef05d6b3b7c>@@QEBAXXZ 0000000180056a98 f   libucrt:mbctype.obj
 0001:00055cb0       ?getSystemCP@@YAHH@Z       0000000180056cb0 f   libucrt:mbctype.obj
 0001:00055d30       ?setSBCS@@YAXPEAU__crt_multibyte_data@@@Z 0000000180056d30 f   libucrt:mbctype.obj
 0001:00055dc0       ?setSBUpLow@@YAXPEAU__crt_multibyte_data@@@Z 0000000180056dc0 f   libucrt:mbctype.obj
 0001:00055fa4       ?setmbcp_internal@@YAHH_N@Z 0000000180056fa4 f   libucrt:mbctype.obj
 0001:000564ec       ?x_ismbbtype_l@@YAHPEAU__crt_locale_pointers@@IHH@Z 00000001800574ec f   libucrt:ismbbyte.obj
 0001:0005673c       ??$common_set_variable_in_environment_nolock@D@@YAHQEADH@Z 000000018005773c f   libucrt:setenv.obj
 0001:00056a2c       ??$common_set_variable_in_environment_nolock@_W@@YAHQEA_WH@Z 0000000180057a2c f   libucrt:setenv.obj
 0001:00056d1c       ??$copy_environment@D@@YAPEAPEADQEAPEAD@Z 0000000180057d1c f   libucrt:setenv.obj
 0001:00056e08       ??$copy_environment@_W@@YAPEAPEA_WQEAPEA_W@Z 0000000180057e08 f   libucrt:setenv.obj
 0001:00058e3c       memcpy_s                   0000000180059e3c f   libucrt:cfout.obj
 0001:0005909c       ?free_crt_array_internal@@YAXQEAPEBX_K@Z 000000018005a09c f   libucrt:inittime.obj
 0001:000593b0       ?GetTableIndexFromLocaleName@@YAHPEB_W@Z 000000018005a3b0 f   libucrt:lcidtoname_downlevel.obj
 0001:0005956c       ?InternalCompareStringA@@YAHPEAU__crt_locale_pointers@@PEB_WKPEBDH2HH@Z 000000018005a56c f   libucrt:comparestringa.obj
 0001:000599f0       ??$common_sopen_dispatch@D@@YAHQEBDHHHQEAHH@Z 000000018005a9f0 f   libucrt:open.obj
 0001:00059ad0       ?configure_text_mode@@YAHHUfile_options@?A0x656cf9f4@@HAEAW4__crt_lowio_text_mode@@@Z 000000018005aad0 f   libucrt:open.obj
 0001:00059d64       ?decode_options@@YA?AUfile_options@?A0x656cf9f4@@HHH@Z 000000018005ad64 f   libucrt:open.obj
 0001:00059f70       ?truncate_ctrl_z_if_present@@YAHH@Z 000000018005af70 f   libucrt:open.obj
 0001:0005a6c8       common_control87           000000018005b6c8 f   libucrt:ieee.obj
 0001:0005a960       $$000000                   000000018005b960     libucrt:fpsr.obj
 0001:0005ab00       ?initialize_multibyte@@YAHXZ 000000018005bb00 f   libucrt:multibyte_initializer.obj
 0001:0005ace0       $$000000                   000000018005bce0     libucrt:log10.obj
 0001:0005b5fc       _call_matherr              000000018005c5fc f   libucrt:libm_error.obj
 0001:0005b664       _exception_enabled         000000018005c664 f   libucrt:libm_error.obj
 0001:0005b920       _log_special_common        000000018005c920 f   libucrt:log_special.obj
 0001:0005c600       $$000000                   000000018005d600     LIBCMT:_chkstk_.obj
 0001:0005c7b0       $$000000                   000000018005d7b0     libvcruntime:memcmp.obj
 0001:0005c890       $$000000                   000000018005d890     libucrt:strncpy.obj
 0001:0005cac0       $$000000                   000000018005dac0     libucrt:log.obj
 0001:0005cff0       $$000000                   000000018005dff0     libucrt:pow.obj
 0001:0005e690       $$000000                   000000018005f690     libucrt:strcmp.obj
 0001:0005e840       $$000000                   000000018005f840     LIBCMT:_guard_dispatch_.obj
 0001:0005e860       __scrt_is_nonwritable_in_current_image$filt$0 000000018005f860 f   LIBCMT:utility.obj
 0001:0005e878       ?fin$0@?0??dllmain_crt_process_attach@@YAHQEAUHINSTANCE__@@QEAX@Z@4HA 000000018005f878 f   LIBCMT:dll_dllmain.obj
 0001:0005e88f       ?fin$0@?0??dllmain_crt_process_detach@@YAH_N@Z@4HA 000000018005f88f f   LIBCMT:dll_dllmain.obj
 0001:0005e8ab       ?filt$0@?0??dllmain_dispatch@@YAHQEAUHINSTANCE__@@KQEAX@Z@4HA 000000018005f8ab f   LIBCMT:dll_dllmain.obj
 0001:0005e8e1       ?filt$0@?0??common_exit@@YAXHW4_crt_exit_cleanup_mode@@W4_crt_exit_return_mode@@@Z@4HA 000000018005f8e1 f   libucrt:exit.obj
 0001:0005e8fc       ?fin$1@?0??common_exit@@YAXHW4_crt_exit_cleanup_mode@@W4_crt_exit_return_mode@@@Z@4HA 000000018005f8fc f   libucrt:exit.obj
 0001:0005e915       ?fin$0@?0???$common_getenv_s@D@@YAHQEA_KQEAD_KQEBD@Z@4HA 000000018005f915 f   libucrt:getenv.obj
 0001:0005e92e       raise$fin$0                000000018005f92e f   libucrt:signal.obj
 0001:0005e952       ?fin$0@?0??ctrlevent_capture@@YAHK@Z@4HA 000000018005f952 f   libucrt:signal.obj
 0001:0005e952       signal$fin$0               000000018005f952 f   libucrt:signal.obj
 0001:0005e96b       fputc$fin$0                000000018005f96b f   libucrt:fputc.obj
 0001:0005e985       ?fin$0@?0???$common_fgets@D@@YAPEADQEADHV__crt_stdio_stream@@@Z@4HA 000000018005f985 f   libucrt:fgets.obj
 0001:0005e99f       ?fin$0@?0???$?RV<lambda_7a5ef57ff966f610505f1d28a3d40618>@@AEAV<lambda_b721fa326cdb32351d23dfa67958c160>@@V<lambda_5e0fb27672408a07956fe59e48ccb2aa>@@@?$__crt_seh_guarded_call@H@@QEAAH$$QEAV<lambda_7a5ef57ff966f610505f1d28a3d40618>@@AEAV<lambda_b721fa326cdb32351d23dfa67958c160>@@$$QEAV<lambda_5e0fb27672408a07956fe59e48ccb2aa>@@@Z@4HA 000000018005f99f f   libucrt:setvbuf.obj
 0001:0005e99f       ?fin$0@?0???$?RV<lambda_25e01c9ba3607ae47bf7ea803dd53646>@@AEAV<lambda_55f9cbce55698c0319f95c01c080475b>@@V<lambda_1e572b46264c157efb34a6cfecbbfc9c>@@@?$__crt_seh_guarded_call@H@@QEAAH$$QEAV<lambda_25e01c9ba3607ae47bf7ea803dd53646>@@AEAV<lambda_55f9cbce55698c0319f95c01c080475b>@@$$QEAV<lambda_1e572b46264c157efb34a6cfecbbfc9c>@@@Z@4HA 000000018005f99f f   libucrt:puts.obj
 0001:0005e99f       ?fin$0@?0???$?RV<lambda_a81aa23bb2c9577c1e55b9d0b57d9de4>@@AEAV<lambda_9a20e10065b92b5193c3597a66cba9d4>@@V<lambda_cb3a421ff86d8a5f008440ee6b28fa9c>@@@?$__crt_seh_guarded_call@H@@QEAAH$$QEAV<lambda_a81aa23bb2c9577c1e55b9d0b57d9de4>@@AEAV<lambda_9a20e10065b92b5193c3597a66cba9d4>@@$$QEAV<lambda_cb3a421ff86d8a5f008440ee6b28fa9c>@@@Z@4HA 000000018005f99f f   libucrt:fputs.obj
 0001:0005e99f       ?fin$0@?0???$?RV<lambda_aa279a7bcb127014629d5b1d62c7325d>@@AEAV<lambda_0a64b6a4deda75c01876f29c44fc5eb3>@@V<lambda_3323e69fbefe9d1a11713e670d47cdfa>@@@?$__crt_seh_guarded_call@H@@QEAAH$$QEAV<lambda_aa279a7bcb127014629d5b1d62c7325d>@@AEAV<lambda_0a64b6a4deda75c01876f29c44fc5eb3>@@$$QEAV<lambda_3323e69fbefe9d1a11713e670d47cdfa>@@@Z@4HA 000000018005f99f f   libucrt:output.obj
 0001:0005e99f       ?fin$0@?0???$?RV<lambda_7b91131dde12e1c3dfc74ff76b3f2eac>@@AEAV<lambda_dd75445284c072d0bd3768540cc698fa>@@V<lambda_16bc4ecb55b4718497c16bceaea2ceaf>@@@?$__crt_seh_guarded_call@H@@QEAAH$$QEAV<lambda_7b91131dde12e1c3dfc74ff76b3f2eac>@@AEAV<lambda_dd75445284c072d0bd3768540cc698fa>@@$$QEAV<lambda_16bc4ecb55b4718497c16bceaea2ceaf>@@@Z@4HA 000000018005f99f f   libucrt:output.obj
 0001:0005e9ba       _tzset$fin$0               000000018005f9ba f   libucrt:tzset.obj
 0001:0005e9ba       _isindst$fin$0             000000018005f9ba f   libucrt:tzset.obj
 0001:0005e9ba       __tzset$fin$0              000000018005f9ba f   libucrt:tzset.obj
 0001:0005e9d3       ?fin$0@?0???$?RV<lambda_b521505b218e5242e90febf6bfebc422>@@AEAV<lambda_6978c1fb23f02e42e1d9e99668cc68aa>@@V<lambda_314360699dd331753a4119843814e9a7>@@@?$__crt_seh_guarded_call@H@@QEAAH$$QEAV<lambda_b521505b218e5242e90febf6bfebc422>@@AEAV<lambda_6978c1fb23f02e42e1d9e99668cc68aa>@@$$QEAV<lambda_314360699dd331753a4119843814e9a7>@@@Z@4HA 000000018005f9d3 f   libucrt:commit.obj
 0001:0005e9d3       ?fin$0@?0???$?RV<lambda_bfedae4ebbf01fab1bb6dcc6a9e276e0>@@AEAV<lambda_2fe9b910cf3cbf4a0ab98a02ba45b3ec>@@V<lambda_237c231691f317818eb88cc1d5d642d6>@@@?$__crt_seh_guarded_call@H@@QEAAH$$QEAV<lambda_bfedae4ebbf01fab1bb6dcc6a9e276e0>@@AEAV<lambda_2fe9b910cf3cbf4a0ab98a02ba45b3ec>@@$$QEAV<lambda_237c231691f317818eb88cc1d5d642d6>@@@Z@4HA 000000018005f9d3 f   libucrt:close.obj
 0001:0005e9ed       __acrt_initialize_lowio$fin$0 000000018005f9ed f   libucrt:ioinit.obj
 0001:0005e9ed       __acrt_lowio_ensure_fh_exists$fin$0 000000018005f9ed f   libucrt:osfinfo.obj
 0001:0005e9ed       _alloc_osfhnd$fin$0        000000018005f9ed f   libucrt:osfinfo.obj
 0001:0005ea06       common_flush_all$fin$0     000000018005fa06 f   libucrt:fflush.obj
 0001:0005ea20       common_flush_all$fin$1     000000018005fa20 f   libucrt:fflush.obj
 0001:0005ea39       fclose$fin$0               000000018005fa39 f   libucrt:fclose.obj
 0001:0005ea39       fflush$fin$0               000000018005fa39 f   libucrt:fflush.obj
 0001:0005ea51       ?fin$0@?0???$common_fsopen@D@@YAPEAU_iobuf@@QEBD0H@Z@4HA 000000018005fa51 f   libucrt:fopen.obj
 0001:0005ea7c       _query_new_handler$fin$0   000000018005fa7c f   libucrt:new_handler.obj
 0001:0005ea92       ?fin$0@?0???$?RV<lambda_e24bbb7b643b32fcea6fa61b31d4c984>@@AEAV<lambda_275893d493268fdec8709772e3fcec0e>@@V<lambda_9d71df4d7cf3f480f8d633942495c3b0>@@@?$__crt_seh_guarded_call@H@@QEAAH$$QEAV<lambda_e24bbb7b643b32fcea6fa61b31d4c984>@@AEAV<lambda_275893d493268fdec8709772e3fcec0e>@@$$QEAV<lambda_9d71df4d7cf3f480f8d633942495c3b0>@@@Z@4HA 000000018005fa92 f   libucrt:onexit.obj
 0001:0005eaaf       ?fin$0@?0???$common_putenv@D@@YAHQEBD0@Z@4HA 000000018005faaf f   libucrt:putenv.obj
 0001:0005eaaf       ?fin$0@?0???$common_getenv@D@@YAPEADQEBD@Z@4HA 000000018005faaf f   libucrt:getenv.obj
 0001:0005eac8       ?fin$0@?0???$?RV<lambda_fb3a7dec4e47f37f22dae91bb15c9095>@@AEAV<lambda_698284760c8add0bfb0756c19673e34b>@@V<lambda_dfb8eca1e75fef3034a8fb18dd509707>@@@?$__crt_seh_guarded_call@X@@QEAAX$$QEAV<lambda_fb3a7dec4e47f37f22dae91bb15c9095>@@AEAV<lambda_698284760c8add0bfb0756c19673e34b>@@$$QEAV<lambda_dfb8eca1e75fef3034a8fb18dd509707>@@@Z@4HA 000000018005fac8 f   libucrt:per_thread_data.obj
 0001:0005eac8       ?fin$0@?0???$?RV<lambda_99476a1ad63dd22509b5d3e65b0ffc95>@@AEAV<lambda_ad1ced32f4ac17aa236e5ef05d6b3b7c>@@V<lambda_f7424dd8d45958661754dc4f2697e9c3>@@@?$__crt_seh_guarded_call@X@@QEAAX$$QEAV<lambda_99476a1ad63dd22509b5d3e65b0ffc95>@@AEAV<lambda_ad1ced32f4ac17aa236e5ef05d6b3b7c>@@$$QEAV<lambda_f7424dd8d45958661754dc4f2697e9c3>@@@Z@4HA 000000018005fac8 f   libucrt:mbctype.obj
 0001:0005eac8       ?fin$0@?0???$?RV<lambda_c36588078e9f5dfd39652860aa6b3aaf>@@AEAV<lambda_ec61778202f4f5fc7e7711acc23c3bca>@@V<lambda_dc9d2797ccde5d239b4a0efae8ebd7db>@@@?$__crt_seh_guarded_call@P6AXH@Z@@QEAAP6AXH@Z$$QEAV<lambda_c36588078e9f5dfd39652860aa6b3aaf>@@AEAV<lambda_ec61778202f4f5fc7e7711acc23c3bca>@@$$QEAV<lambda_dc9d2797ccde5d239b4a0efae8ebd7db>@@@Z@4HA 000000018005fac8 f   libucrt:signal.obj
 0001:0005eac8       ?fin$0@?0???$?RV<lambda_5e887d1dcbef67a5eb4283622ba103bf>@@AEAV<lambda_4466841279450cc726390878d4a41900>@@V<lambda_341c25c0346d94847f1f3c463c57e077>@@@?$__crt_seh_guarded_call@X@@QEAAX$$QEAV<lambda_5e887d1dcbef67a5eb4283622ba103bf>@@AEAV<lambda_4466841279450cc726390878d4a41900>@@$$QEAV<lambda_341c25c0346d94847f1f3c463c57e077>@@@Z@4HA 000000018005fac8 f   libucrt:per_thread_data.obj
 0001:0005eac8       ?fin$0@?0???$?RV<lambda_72d1df2b273a38828b1ce30cbf4cdab5>@@AEAV<lambda_876a65b173b8412d3a47c70a915b0cf4>@@V<lambda_41932305e351933ebe8f8be3ed8bb5dc>@@@?$__crt_seh_guarded_call@X@@QEAAX$$QEAV<lambda_72d1df2b273a38828b1ce30cbf4cdab5>@@AEAV<lambda_876a65b173b8412d3a47c70a915b0cf4>@@$$QEAV<lambda_41932305e351933ebe8f8be3ed8bb5dc>@@@Z@4HA 000000018005fac8 f   libucrt:per_thread_data.obj
 0001:0005eac8       ?fin$0@?0???$?RV<lambda_b8c45f8f788dd370798f47cfe8ac3a86>@@AEAV<lambda_4e60a939b0d047cfe11ddc22648dfba9>@@V<lambda_332c3edc96d0294ec56c57d38c1cdfd5>@@@?$__crt_seh_guarded_call@H@@QEAAH$$QEAV<lambda_b8c45f8f788dd370798f47cfe8ac3a86>@@AEAV<lambda_4e60a939b0d047cfe11ddc22648dfba9>@@$$QEAV<lambda_332c3edc96d0294ec56c57d38c1cdfd5>@@@Z@4HA 000000018005fac8 f   libucrt:onexit.obj
 0001:0005eac8       ?fin$0@?0???$?RV<lambda_46352004c1216016012b18bd6f87e700>@@AEAV<lambda_3bd07e1a1191394380780325891bf33f>@@V<lambda_334532d3f185bcaa59b5be82d7d22bff>@@@?$__crt_seh_guarded_call@X@@QEAAX$$QEAV<lambda_46352004c1216016012b18bd6f87e700>@@AEAV<lambda_3bd07e1a1191394380780325891bf33f>@@$$QEAV<lambda_334532d3f185bcaa59b5be82d7d22bff>@@@Z@4HA 000000018005fac8 f   libucrt:per_thread_data.obj
 0001:0005eae2       __acrt_update_thread_locale_data$fin$0 000000018005fae2 f   libucrt:locale_refcounting.obj
 0001:0005eae2       __acrt_uninitialize_locale$fin$0 000000018005fae2 f   libucrt:wsetlocale.obj
 0001:0005eafb       _fcloseall$fin$0           000000018005fafb f   libucrt:closeall.obj
 0001:0005eafb       ?fin$0@?0??__acrt_stdio_allocate_stream@@YA?AV__crt_stdio_stream@@XZ@4HA 000000018005fafb f   libucrt:stream.obj
 0001:0005eb14       ?fin$0@?0???$common_lseek@_J@@YA_JH_JH@Z@4HA 000000018005fb14 f   libucrt:lseek.obj
 0001:0005eb14       _read$fin$0                000000018005fb14 f   libucrt:read.obj
 0001:0005eb14       _write$fin$0               000000018005fb14 f   libucrt:write.obj
 0001:0005eb2b       __acrt_update_thread_multibyte_data$fin$0 000000018005fb2b f   libucrt:mbctype.obj
 0001:0005eb44       ?fin$0@?0???$common_sopen_dispatch@D@@YAHQEBDHHHQEAHH@Z@4HA 000000018005fb44 f   libucrt:open.obj
 0001:0005eb97       common_control87$filt$0    000000018005fb97 f   libucrt:ieee.obj
 0001:0005eb97       _ctrlfp$filt$0             000000018005fb97 f   libucrt:fpctrl.obj
 0001:0005ebd0       _IsNonwritableInCurrentImage$filt$0 000000018005fbd0 f   LIBCMT:pesect.obj
 0001:0005ebf0       ??__Fconstructor@@YAXXZ    000000018005fbf0 f   binding.obj
 0001:0005ec00       ??__Fcode_symbol@@YAXXZ    000000018005fc00 f   binding.obj
 0001:0005ec10       ??__Fcontext_symbol@@YAXXZ 000000018005fc10 f   binding.obj
 0001:0005ec20       ??__Fconncfg_symbol@@YAXXZ 000000018005fc20 f   binding.obj
 0001:0005ec30       ??__Fneg_one_symbol@@YAXXZ 000000018005fc30 f   binding.obj
 0001:0005ec40       ??__Fev_connect_symbol@@YAXXZ 000000018005fc40 f   binding.obj
 0001:0005ec50       ??__Fev_error_symbol@@YAXXZ 000000018005fc50 f   binding.obj
 0001:0005ec60       ??__Fev_idle_symbol@@YAXXZ 000000018005fc60 f   binding.obj
 0001:0005ec70       ??__Fev_resultinfo_symbol@@YAXXZ 000000018005fc70 f   binding.obj
 0001:0005ec80       ??__Fev_row_symbol@@YAXXZ  000000018005fc80 f   binding.obj
 0001:0005ec90       ??__Fev_resultend_symbol@@YAXXZ 000000018005fc90 f   binding.obj
 0001:0005eca0       ??__Fev_ping_symbol@@YAXXZ 000000018005fca0 f   binding.obj
 0001:0005ecb0       ??__Fev_close_symbol@@YAXXZ 000000018005fcb0 f   binding.obj
 0001:0005ecc0       ??__Fcol_tiny_symbol@@YAXXZ 000000018005fcc0 f   binding.obj
 0001:0005ecd0       ??__Fcol_short_symbol@@YAXXZ 000000018005fcd0 f   binding.obj
 0001:0005ece0       ??__Fcol_long_symbol@@YAXXZ 000000018005fce0 f   binding.obj
 0001:0005ecf0       ??__Fcol_int24_symbol@@YAXXZ 000000018005fcf0 f   binding.obj
 0001:0005ed00       ??__Fcol_big_symbol@@YAXXZ 000000018005fd00 f   binding.obj
 0001:0005ed10       ??__Fcol_dec_symbol@@YAXXZ 000000018005fd10 f   binding.obj
 0001:0005ed20       ??__Fcol_newdec_symbol@@YAXXZ 000000018005fd20 f   binding.obj
 0001:0005ed30       ??__Fcol_float_symbol@@YAXXZ 000000018005fd30 f   binding.obj
 0001:0005ed40       ??__Fcol_double_symbol@@YAXXZ 000000018005fd40 f   binding.obj
 0001:0005ed50       ??__Fcol_bit_symbol@@YAXXZ 000000018005fd50 f   binding.obj
 0001:0005ed60       ??__Fcol_ts_symbol@@YAXXZ  000000018005fd60 f   binding.obj
 0001:0005ed70       ??__Fcol_date_symbol@@YAXXZ 000000018005fd70 f   binding.obj
 0001:0005ed80       ??__Fcol_newdate_symbol@@YAXXZ 000000018005fd80 f   binding.obj
 0001:0005ed90       ??__Fcol_time_symbol@@YAXXZ 000000018005fd90 f   binding.obj
 0001:0005eda0       ??__Fcol_dtime_symbol@@YAXXZ 000000018005fda0 f   binding.obj
 0001:0005edb0       ??__Fcol_year_symbol@@YAXXZ 000000018005fdb0 f   binding.obj
 0001:0005edc0       ??__Fcol_char_symbol@@YAXXZ 000000018005fdc0 f   binding.obj
 0001:0005edd0       ??__Fcol_vstr_symbol@@YAXXZ 000000018005fdd0 f   binding.obj
 0001:0005ede0       ??__Fcol_vchar_symbol@@YAXXZ 000000018005fde0 f   binding.obj
 0001:0005edf0       ??__Fcol_tinyblob_symbol@@YAXXZ 000000018005fdf0 f   binding.obj
 0001:0005ee00       ??__Fcol_medblob_symbol@@YAXXZ 000000018005fe00 f   binding.obj
 0001:0005ee10       ??__Fcol_lngblob_symbol@@YAXXZ 000000018005fe10 f   binding.obj
 0001:0005ee20       ??__Fcol_set_symbol@@YAXXZ 000000018005fe20 f   binding.obj
 0001:0005ee30       ??__Fcol_enum_symbol@@YAXXZ 000000018005fe30 f   binding.obj
 0001:0005ee40       ??__Fcol_geo_symbol@@YAXXZ 000000018005fe40 f   binding.obj
 0001:0005ee50       ??__Fcol_null_symbol@@YAXXZ 000000018005fe50 f   binding.obj
 0001:0005ee60       ??__Fcol_unsup_symbol@@YAXXZ 000000018005fe60 f   binding.obj
 0001:0005ee70       ??__Fcfg_user_symbol@@YAXXZ 000000018005fe70 f   binding.obj
 0001:0005ee80       ??__Fcfg_password_symbol@@YAXXZ 000000018005fe80 f   binding.obj
 0001:0005ee90       ??__Fcfg_host_symbol@@YAXXZ 000000018005fe90 f   binding.obj
 0001:0005eea0       ??__Fcfg_port_symbol@@YAXXZ 000000018005fea0 f   binding.obj
 0001:0005eeb0       ??__Fcfg_unixSocket_symbol@@YAXXZ 000000018005feb0 f   binding.obj
 0001:0005eec0       ??__Fcfg_db_symbol@@YAXXZ  000000018005fec0 f   binding.obj
 0001:0005eed0       ??__Fcfg_connTimeout_symbol@@YAXXZ 000000018005fed0 f   binding.obj
 0001:0005eee0       ??__Fcfg_secureAuth_symbol@@YAXXZ 000000018005fee0 f   binding.obj
 0001:0005eef0       ??__Fcfg_multiStatements_symbol@@YAXXZ 000000018005fef0 f   binding.obj
 0001:0005ef00       ??__Fcfg_compress_symbol@@YAXXZ 000000018005ff00 f   binding.obj
 0001:0005ef10       ??__Fcfg_local_infile_symbol@@YAXXZ 000000018005ff10 f   binding.obj
 0001:0005ef20       ??__Fcfg_read_default_file_symbol@@YAXXZ 000000018005ff20 f   binding.obj
 0001:0005ef30       ??__Fcfg_read_default_group_symbol@@YAXXZ 000000018005ff30 f   binding.obj
 0001:0005ef40       ??__Fcfg_charset_symbol@@YAXXZ 000000018005ff40 f   binding.obj
 0001:0005ef50       ??__Fcfg_tcpKeepalive_symbol@@YAXXZ 000000018005ff50 f   binding.obj
 0001:0005ef60       ??__Fcfg_tcpKeepaliveCnt_symbol@@YAXXZ 000000018005ff60 f   binding.obj
 0001:0005ef70       ??__Fcfg_tcpKeepaliveIntvl_symbol@@YAXXZ 000000018005ff70 f   binding.obj
 0001:0005ef80       ??__Fcfg_ssl_symbol@@YAXXZ 000000018005ff80 f   binding.obj
 0001:0005ef90       ??__Fcfg_protocol_symbol@@YAXXZ 000000018005ff90 f   binding.obj
 0001:0005efa0       ??__Fcfg_key_symbol@@YAXXZ 000000018005ffa0 f   binding.obj
 0001:0005efb0       ??__Fcfg_cert_symbol@@YAXXZ 000000018005ffb0 f   binding.obj
 0001:0005efc0       ??__Fcfg_ca_symbol@@YAXXZ  000000018005ffc0 f   binding.obj
 0001:0005efd0       ??__Fcfg_capath_symbol@@YAXXZ 000000018005ffd0 f   binding.obj
 0001:0005efe0       ??__Fcfg_cipher_symbol@@YAXXZ 000000018005ffe0 f   binding.obj
 0001:0005eff0       ??__Fcfg_rejectUnauthorized_symbol@@YAXXZ 000000018005fff0 f   binding.obj
 0002:000004e8       ?constructor$initializer$@@3P6AXXZEA 00000001800604e8     binding.obj
 0002:000004f0       ?code_symbol$initializer$@@3P6AXXZEA 00000001800604f0     binding.obj
 0002:000004f8       ?context_symbol$initializer$@@3P6AXXZEA 00000001800604f8     binding.obj
 0002:00000500       ?conncfg_symbol$initializer$@@3P6AXXZEA 0000000180060500     binding.obj
 0002:00000508       ?neg_one_symbol$initializer$@@3P6AXXZEA 0000000180060508     binding.obj
 0002:00000510       ?ev_connect_symbol$initializer$@@3P6AXXZEA 0000000180060510     binding.obj
 0002:00000518       ?ev_error_symbol$initializer$@@3P6AXXZEA 0000000180060518     binding.obj
 0002:00000520       ?ev_idle_symbol$initializer$@@3P6AXXZEA 0000000180060520     binding.obj
 0002:00000528       ?ev_resultinfo_symbol$initializer$@@3P6AXXZEA 0000000180060528     binding.obj
 0002:00000530       ?ev_row_symbol$initializer$@@3P6AXXZEA 0000000180060530     binding.obj
 0002:00000538       ?ev_resultend_symbol$initializer$@@3P6AXXZEA 0000000180060538     binding.obj
 0002:00000540       ?ev_ping_symbol$initializer$@@3P6AXXZEA 0000000180060540     binding.obj
 0002:00000548       ?ev_close_symbol$initializer$@@3P6AXXZEA 0000000180060548     binding.obj
 0002:00000550       ?col_tiny_symbol$initializer$@@3P6AXXZEA 0000000180060550     binding.obj
 0002:00000558       ?col_short_symbol$initializer$@@3P6AXXZEA 0000000180060558     binding.obj
 0002:00000560       ?col_long_symbol$initializer$@@3P6AXXZEA 0000000180060560     binding.obj
 0002:00000568       ?col_int24_symbol$initializer$@@3P6AXXZEA 0000000180060568     binding.obj
 0002:00000570       ?col_big_symbol$initializer$@@3P6AXXZEA 0000000180060570     binding.obj
 0002:00000578       ?col_dec_symbol$initializer$@@3P6AXXZEA 0000000180060578     binding.obj
 0002:00000580       ?col_newdec_symbol$initializer$@@3P6AXXZEA 0000000180060580     binding.obj
 0002:00000588       ?col_float_symbol$initializer$@@3P6AXXZEA 0000000180060588     binding.obj
 0002:00000590       ?col_double_symbol$initializer$@@3P6AXXZEA 0000000180060590     binding.obj
 0002:00000598       ?col_bit_symbol$initializer$@@3P6AXXZEA 0000000180060598     binding.obj
 0002:000005a0       ?col_ts_symbol$initializer$@@3P6AXXZEA 00000001800605a0     binding.obj
 0002:000005a8       ?col_date_symbol$initializer$@@3P6AXXZEA 00000001800605a8     binding.obj
 0002:000005b0       ?col_newdate_symbol$initializer$@@3P6AXXZEA 00000001800605b0     binding.obj
 0002:000005b8       ?col_time_symbol$initializer$@@3P6AXXZEA 00000001800605b8     binding.obj
 0002:000005c0       ?col_dtime_symbol$initializer$@@3P6AXXZEA 00000001800605c0     binding.obj
 0002:000005c8       ?col_year_symbol$initializer$@@3P6AXXZEA 00000001800605c8     binding.obj
 0002:000005d0       ?col_char_symbol$initializer$@@3P6AXXZEA 00000001800605d0     binding.obj
 0002:000005d8       ?col_vstr_symbol$initializer$@@3P6AXXZEA 00000001800605d8     binding.obj
 0002:000005e0       ?col_vchar_symbol$initializer$@@3P6AXXZEA 00000001800605e0     binding.obj
 0002:000005e8       ?col_tinyblob_symbol$initializer$@@3P6AXXZEA 00000001800605e8     binding.obj
 0002:000005f0       ?col_medblob_symbol$initializer$@@3P6AXXZEA 00000001800605f0     binding.obj
 0002:000005f8       ?col_lngblob_symbol$initializer$@@3P6AXXZEA 00000001800605f8     binding.obj
 0002:00000600       ?col_set_symbol$initializer$@@3P6AXXZEA 0000000180060600     binding.obj
 0002:00000608       ?col_enum_symbol$initializer$@@3P6AXXZEA 0000000180060608     binding.obj
 0002:00000610       ?col_geo_symbol$initializer$@@3P6AXXZEA 0000000180060610     binding.obj
 0002:00000618       ?col_null_symbol$initializer$@@3P6AXXZEA 0000000180060618     binding.obj
 0002:00000620       ?col_unsup_symbol$initializer$@@3P6AXXZEA 0000000180060620     binding.obj
 0002:00000628       ?cfg_user_symbol$initializer$@@3P6AXXZEA 0000000180060628     binding.obj
 0002:00000630       ?cfg_password_symbol$initializer$@@3P6AXXZEA 0000000180060630     binding.obj
 0002:00000638       ?cfg_host_symbol$initializer$@@3P6AXXZEA 0000000180060638     binding.obj
 0002:00000640       ?cfg_port_symbol$initializer$@@3P6AXXZEA 0000000180060640     binding.obj
 0002:00000648       ?cfg_unixSocket_symbol$initializer$@@3P6AXXZEA 0000000180060648     binding.obj
 0002:00000650       ?cfg_db_symbol$initializer$@@3P6AXXZEA 0000000180060650     binding.obj
 0002:00000658       ?cfg_connTimeout_symbol$initializer$@@3P6AXXZEA 0000000180060658     binding.obj
 0002:00000660       ?cfg_secureAuth_symbol$initializer$@@3P6AXXZEA 0000000180060660     binding.obj
 0002:00000668       ?cfg_multiStatements_symbol$initializer$@@3P6AXXZEA 0000000180060668     binding.obj
 0002:00000670       ?cfg_compress_symbol$initializer$@@3P6AXXZEA 0000000180060670     binding.obj
 0002:00000678       ?cfg_local_infile_symbol$initializer$@@3P6AXXZEA 0000000180060678     binding.obj
 0002:00000680       ?cfg_read_default_file_symbol$initializer$@@3P6AXXZEA 0000000180060680     binding.obj
 0002:00000688       ?cfg_read_default_group_symbol$initializer$@@3P6AXXZEA 0000000180060688     binding.obj
 0002:00000690       ?cfg_charset_symbol$initializer$@@3P6AXXZEA 0000000180060690     binding.obj
 0002:00000698       ?cfg_tcpKeepalive_symbol$initializer$@@3P6AXXZEA 0000000180060698     binding.obj
 0002:000006a0       ?cfg_tcpKeepaliveCnt_symbol$initializer$@@3P6AXXZEA 00000001800606a0     binding.obj
 0002:000006a8       ?cfg_tcpKeepaliveIntvl_symbol$initializer$@@3P6AXXZEA 00000001800606a8     binding.obj
 0002:000006b0       ?cfg_ssl_symbol$initializer$@@3P6AXXZEA 00000001800606b0     binding.obj
 0002:000006b8       ?cfg_protocol_symbol$initializer$@@3P6AXXZEA 00000001800606b8     binding.obj
 0002:000006c0       ?cfg_key_symbol$initializer$@@3P6AXXZEA 00000001800606c0     binding.obj
 0002:000006c8       ?cfg_cert_symbol$initializer$@@3P6AXXZEA 00000001800606c8     binding.obj
 0002:000006d0       ?cfg_ca_symbol$initializer$@@3P6AXXZEA 00000001800606d0     binding.obj
 0002:000006d8       ?cfg_capath_symbol$initializer$@@3P6AXXZEA 00000001800606d8     binding.obj
 0002:000006e0       ?cfg_cipher_symbol$initializer$@@3P6AXXZEA 00000001800606e0     binding.obj
 0002:000006e8       ?cfg_rejectUnauthorized_symbol$initializer$@@3P6AXXZEA 00000001800606e8     binding.obj
 0002:00000778       GS_ExceptionPointers       0000000180060778     LIBCMT:gs_report.obj
 0002:00000820       ?ExceptionTemplate@?1??_CxxThrowException@@9@4UEHExceptionRecord@@B 0000000180060820     libvcruntime:throw.obj
 0002:00000860       ?module_names@?A0x679b24ab@@3QBQEB_WB 0000000180060860     libvcruntime:winapi_downlevel.obj
 0002:00000930       ?candidate_modules@?1??try_get_FlsAlloc@@YAP6AKP6AXPEAX@Z@ZXZ@4QBW4module_id@?A0x679b24ab@@B 0000000180060930     libvcruntime:winapi_downlevel.obj
 0002:00000948       ?candidate_modules@?1??try_get_FlsFree@@YAP6AHK@ZXZ@4QBW4module_id@?A0x679b24ab@@B 0000000180060948     libvcruntime:winapi_downlevel.obj
 0002:00000958       ?candidate_modules@?1??try_get_FlsGetValue@@YAP6APEAXK@ZXZ@4QBW4module_id@?A0x679b24ab@@B 0000000180060958     libvcruntime:winapi_downlevel.obj
 0002:00000970       ?candidate_modules@?1??try_get_FlsSetValue@@YAP6AHKPEAX@ZXZ@4QBW4module_id@?A0x679b24ab@@B 0000000180060970     libvcruntime:winapi_downlevel.obj
 0002:00000988       ?candidate_modules@?1??try_get_InitializeCriticalSectionEx@@YAP6AHPEAU_RTL_CRITICAL_SECTION@@KK@ZXZ@4QBW4module_id@?A0x679b24ab@@B 0000000180060988     libvcruntime:winapi_downlevel.obj
 0002:000009b0       ?tokenTable@@3QBQEBDB      00000001800609b0     libvcruntime:undname.obj
 0002:00000a20       ?nameTable@@3QBQEBDB       0000000180060a20     libvcruntime:undname.obj
 0002:00000ca8       ?rttiTable@@3QBQEBDB       0000000180060ca8     libvcruntime:undname.obj
 0002:00001660       errtable                   0000000180061660     libucrt:errno.obj
 0002:00001930       __acrt_initializers        0000000180061930     libucrt:initialization.obj
 0002:00002120       module_names               0000000180062120     libucrt:winapi_thunks.obj
 0002:00002650       ?candidate_modules@?1??try_get_AreFileApisANSI@@YAP6AHXZXZ@4QBW4module_id@?A0x63058377@@B 0000000180062650     libucrt:winapi_thunks.obj
 0002:00002668       ?candidate_modules@?1??try_get_CompareStringEx@@YAP6AHPEB_WK0H0HPEAU_nlsversioninfo@@PEAX_J@ZXZ@4QBW4module_id@?A0x63058377@@B 0000000180062668     libucrt:winapi_thunks.obj
 0002:00002680       ?candidate_modules@?1??try_get_FlsAlloc@@YAP6AKP6AXPEAX@Z@ZXZ@4QBW4module_id@?A0x63058377@@B 0000000180062680     libucrt:winapi_thunks.obj
 0002:00002688       ?candidate_modules@?1??try_get_FlsFree@@YAP6AHK@ZXZ@4QBW4module_id@?A0x63058377@@B 0000000180062688     libucrt:winapi_thunks.obj
 0002:00002690       ?candidate_modules@?1??try_get_FlsGetValue@@YAP6APEAXK@ZXZ@4QBW4module_id@?A0x63058377@@B 0000000180062690     libucrt:winapi_thunks.obj
 0002:00002698       ?candidate_modules@?1??try_get_FlsSetValue@@YAP6AHKPEAX@ZXZ@4QBW4module_id@?A0x63058377@@B 0000000180062698     libucrt:winapi_thunks.obj
 0002:000026a0       ?candidate_modules@?1??try_get_GetActiveWindow@@YAP6APEAUHWND__@@XZXZ@4QBW4module_id@?A0x63058377@@B 00000001800626a0     libucrt:winapi_thunks.obj
 0002:000026b8       ?candidate_modules@?1??try_get_GetCurrentPackageId@@YAP6AJPEAIPEAE@ZXZ@4QBW4module_id@?A0x63058377@@B 00000001800626b8     libucrt:winapi_thunks.obj
 0002:000026d8       ?candidate_modules@?1??try_get_GetFileInformationByHandleEx@@YAP6AHPEAXW4_FILE_INFO_BY_HANDLE_CLASS@@0K@ZXZ@4QBW4module_id@?A0x63058377@@B 00000001800626d8     libucrt:winapi_thunks.obj
 0002:00002700       ?candidate_modules@?1??try_get_GetLastActivePopup@@YAP6APEAUHWND__@@PEAU2@@ZXZ@4QBW4module_id@?A0x63058377@@B 0000000180062700     libucrt:winapi_thunks.obj
 0002:00002720       ?candidate_modules@?1??try_get_GetProcessWindowStation@@YAP6APEAUHWINSTA__@@XZXZ@4QBW4module_id@?A0x63058377@@B 0000000180062720     libucrt:winapi_thunks.obj
 0002:00002740       ?candidate_modules@?1??try_get_GetUserObjectInformationW@@YAP6AHPEAXH0KPEAK@ZXZ@4QBW4module_id@?A0x63058377@@B 0000000180062740     libucrt:winapi_thunks.obj
 0002:00002768       ?candidate_modules@?1??try_get_InitializeCriticalSectionEx@@YAP6AHPEAU_RTL_CRITICAL_SECTION@@KK@ZXZ@4QBW4module_id@?A0x63058377@@B 0000000180062768     libucrt:winapi_thunks.obj
 0002:00002770       ?candidate_modules@?1??try_get_LCMapStringEx@@YAP6AHPEB_WK0HPEA_WHPEAU_nlsversioninfo@@PEAX_J@ZXZ@4QBW4module_id@?A0x63058377@@B 0000000180062770     libucrt:winapi_thunks.obj
 0002:00002788       ?candidate_modules@?1??try_get_LocaleNameToLCID@@YAP6AKPEB_WK@ZXZ@4QBW4module_id@?A0x63058377@@B 0000000180062788     libucrt:winapi_thunks.obj
 0002:000027a8       ?candidate_modules@?1??try_get_MessageBoxA@@YAP6AHPEAUHWND__@@PEBD1I@ZXZ@4QBW4module_id@?A0x63058377@@B 00000001800627a8     libucrt:winapi_thunks.obj
 0002:000027c0       ?candidate_modules@?1??try_get_MessageBoxW@@YAP6AHPEAUHWND__@@PEB_W1I@ZXZ@4QBW4module_id@?A0x63058377@@B 00000001800627c0     libucrt:winapi_thunks.obj
 0002:00003560       _mb_locale_names           0000000180063560     libucrt:mbctype.obj
 0002:00003fc0       LcidToLocaleNameTable      0000000180063fc0     libucrt:lcidtoname_downlevel.obj
 0002:00005a20       LocaleNameToIndexTable     0000000180065a20     libucrt:lcidtoname_downlevel.obj
 0002:000072c0       __real@433fffffffffffff    00000001800672c0     libucrt:fpsr.obj
 0002:000072c8       __real@c33fffffffffffff    00000001800672c8     libucrt:fpsr.obj
 0002:000072d0       __real_ninf                00000001800672d0     libucrt:log10.obj
 0002:000072e0       __real_inf                 00000001800672e0     libucrt:log10.obj
 0002:000072f0       __real_neg_qnan            00000001800672f0     libucrt:log10.obj
 0002:00007300       __real_qnanbit             0000000180067300     libucrt:log10.obj
 0002:00007310       __int_1023                 0000000180067310     libucrt:log10.obj
 0002:00007320       __mask_001                 0000000180067320     libucrt:log10.obj
 0002:00007330       __mask_mant                0000000180067330     libucrt:log10.obj
 0002:00007340       __mask_mant_top8           0000000180067340     libucrt:log10.obj
 0002:00007350       __mask_mant9               0000000180067350     libucrt:log10.obj
 0002:00007360       __real_log10_e             0000000180067360     libucrt:log10.obj
 0002:00007370       __real_log10_e_lead        0000000180067370     libucrt:log10.obj
 0002:00007380       __real_log10_e_tail        0000000180067380     libucrt:log10.obj
 0002:00007390       __real_log10_2_lead        0000000180067390     libucrt:log10.obj
 0002:000073a0       __real_log10_2_tail        00000001800673a0     libucrt:log10.obj
 0002:000073b0       __real_two                 00000001800673b0     libucrt:log10.obj
 0002:000073c0       __real_one                 00000001800673c0     libucrt:log10.obj
 0002:000073d0       __real_half                00000001800673d0     libucrt:log10.obj
 0002:000073e0       __mask_100                 00000001800673e0     libucrt:log10.obj
 0002:000073f0       __real_1_over_512          00000001800673f0     libucrt:log10.obj
 0002:00007400       __real_1_over_2            0000000180067400     libucrt:log10.obj
 0002:00007410       __real_1_over_3            0000000180067410     libucrt:log10.obj
 0002:00007420       __real_1_over_4            0000000180067420     libucrt:log10.obj
 0002:00007430       __real_1_over_5            0000000180067430     libucrt:log10.obj
 0002:00007440       __real_1_over_6            0000000180067440     libucrt:log10.obj
 0002:00007450       __real_neg_1023            0000000180067450     libucrt:log10.obj
 0002:00007460       __mask_2045                0000000180067460     libucrt:log10.obj
 0002:00007470       __real_threshold           0000000180067470     libucrt:log10.obj
 0002:00007480       __real_near_one_lt         0000000180067480     libucrt:log10.obj
 0002:00007490       __real_near_one_gt         0000000180067490     libucrt:log10.obj
 0002:000074a0       __real_min_norm            00000001800674a0     libucrt:log10.obj
 0002:000074b0       __real_notsign             00000001800674b0     libucrt:log10.obj
 0002:000074c0       __real_ca1                 00000001800674c0     libucrt:log10.obj
 0002:000074d0       __real_ca2                 00000001800674d0     libucrt:log10.obj
 0002:000074e0       __real_ca3                 00000001800674e0     libucrt:log10.obj
 0002:000074f0       __real_ca4                 00000001800674f0     libucrt:log10.obj
 0002:00007500       __mask_lower               0000000180067500     libucrt:log10.obj
 0002:00007510       __flag_x_zero              0000000180067510     libucrt:log10.obj
 0002:00007514       __flag_x_neg               0000000180067514     libucrt:log10.obj
 0002:00007518       __flag_x_nan               0000000180067518     libucrt:log10.obj
 0002:000097d0       ?PROTOCOL_PIPE@@3HB        00000001800697d0     binding.obj
 0002:000097d4       ?PROTOCOL_TCP@@3HB         00000001800697d4     binding.obj
 0002:000097d8       ?MY_BOOL_TRUE@@3DB         00000001800697d8     binding.obj
 0002:000097d9       ?MY_BOOL_FALSE@@3DB        00000001800697d9     binding.obj
 0002:000097da       time_separator             00000001800697da     clientlib:my_time.obj
 0002:000097db       tab_uni_cp1250_plane21     00000001800697db     strings:ctype-win1250ch.obj
 0002:000097dc       ?PROTOCOL_MEMORY@@3HB      00000001800697dc     binding.obj
 0002:000097e0       ?PROTOCOL_SOCKET@@3HB      00000001800697e0     binding.obj
 0002:000097e4       ?PROTOCOL_DEFAULT@@3HB     00000001800697e4     binding.obj
 0002:00009c78       ?name_prefixes@?1??create_shared_memory@@9@9 0000000180069c78     clientlib:client.obj
 0002:00009c88       ?range_list_end@?1??is_binary_compatible@@9@9 0000000180069c88     clientlib:libmysql.obj
 0002:00009c90       ?range2@?1??is_binary_compatible@@9@9 0000000180069c90     clientlib:libmysql.obj
 0002:00009ca0       ?range3@?1??is_binary_compatible@@9@9 0000000180069ca0     clientlib:libmysql.obj
 0002:00009cb0       ?range1@?1??is_binary_compatible@@9@9 0000000180069cb0     clientlib:libmysql.obj
 0002:00009cbc       nochar                     0000000180069cbc     strings:ctype-uca.obj
 0002:00009cc0       ?range4@?1??is_binary_compatible@@9@9 0000000180069cc0     clientlib:libmysql.obj
 0002:00009cec       tab_uni_big55              0000000180069cec     strings:ctype-big5.obj
 0002:00009cf0       plugin_version             0000000180069cf0     clientlib:client_plugin.obj
 0002:00009cfc       tab_uni_big59              0000000180069cfc     strings:ctype-big5.obj
 0002:00009d00       ?max_sec_part@?1??check_time_range@@9@9 0000000180069d00     clientlib:my_time.obj
 0002:00009d1c       ?server@yaSSL@@3QBEB       0000000180069d1c     yassl:yassl_imp.obj
 0002:00009d20       internal_format_positions  0000000180069d20     clientlib:my_time.obj
 0002:00009de8       ?include_keyword@?1??search_default_file_with_ext@@9@9 0000000180069de8     mysys:my_default.obj
 0002:00009df0       ?includedir_keyword@?1??search_default_file_with_ext@@9@9 0000000180069df0     mysys:my_default.obj
 0002:00009dfc       ?client@yaSSL@@3QBEB       0000000180069dfc     yassl:yassl_imp.obj
 0002:00009e00       args_separator             0000000180069e00     mysys:my_default.obj
 0002:00009e60       handler_error_messages     0000000180069e60     strings:my_vsnprintf.obj
 0002:0000a0a8       bigtens                    000000018006a0a8     strings:dtoa.obj
 0002:0000a128       tinytens                   000000018006a128     strings:dtoa.obj
 0002:0000a150       my_collation_binary_handler 000000018006a150     strings:ctype-bin.obj
 0002:0000a1a8       lfactor                    000000018006a1a8     strings:my_strtoll10.obj
 0002:0000a1d0       my_charset_handler         000000018006a1d0     strings:ctype-bin.obj
 0002:0000a2c8       ?hex@?1??my_wc_mb_filename@@9@9 000000018006a2c8     strings:ctype-utf8.obj
 0002:0000a2e0       bin_char_array             000000018006a2e0     strings:ctype-bin.obj
 0002:0000a3e0       ctype_bin                  000000018006a3e0     strings:ctype-bin.obj
 0002:0000a4e8       ?p05@?1??pow5mult@@9@9     000000018006a4e8     strings:dtoa.obj
 0002:0000a4f4       ?my_version@?1??deflateInit2_@@9@9 000000018006a4f4     zlib:deflate.obj
 0002:0000a500       sort_order_latin1_de       000000018006a500     strings:ctype-latin1.obj
 0002:0000a600       pl20                       000000018006a600     strings:ctype-latin1.obj
 0002:0000a700       cs_to_uni                  000000018006a700     strings:ctype-latin1.obj
 0002:0000a900       my_charset_handler         000000018006a900     strings:ctype-latin1.obj
 0002:0000a9f8       diff_fmt                   000000018006a9f8     strings:ctype.obj
 0002:0000aa20       uni_to_cs                  000000018006aa20     strings:ctype-latin1.obj
 0002:0000b220       combo1map                  000000018006b220     strings:ctype-latin1.obj
 0002:0000b320       to_lower_latin1            000000018006b320     strings:ctype-latin1.obj
 0002:0000b420       pl00                       000000018006b420     strings:ctype-latin1.obj
 0002:0000b520       sort_order_latin1          000000018006b520     strings:ctype-latin1.obj
 0002:0000b620       pl02                       000000018006b620     strings:ctype-latin1.obj
 0002:0000b720       pl21                       000000018006b720     strings:ctype-latin1.obj
 0002:0000b820       ctype_latin1               000000018006b820     strings:ctype-latin1.obj
 0002:0000b928       roman                      000000018006b928     strings:ctype-uca.obj
 0002:0000b958       context_diff_fmt           000000018006b958     strings:ctype.obj
 0002:0000b980       to_upper_latin1            000000018006b980     strings:ctype-latin1.obj
 0002:0000ba80       combo2map                  000000018006ba80     strings:ctype-latin1.obj
 0002:0000bb98       tab_uni_cp1250_plane02     000000018006bb98     strings:ctype-win1250ch.obj
 0002:0000bbb0       pl01                       000000018006bbb0     strings:ctype-latin1.obj
 0002:0000bcb0       my_collation_german2_ci_handler 000000018006bcb0     strings:ctype-latin1.obj
 0002:0000bd08       lfactor                    000000018006bd08     strings:ctype-ucs2.obj
 0002:0000bd30       tens                       000000018006bd30     strings:dtoa.obj
 0002:0000bde8       tab_uni_gb23125            000000018006bde8     strings:ctype-gb2312.obj
 0002:0000be00       uca520_p134                000000018006be00     strings:ctype-uca.obj
 0002:0000c400       uca520_p02A                000000018006c400     strings:ctype-uca.obj
 0002:0000ce00       uca520_p101                000000018006ce00     strings:ctype-uca.obj
 0002:0000d400       page027data                000000018006d400     strings:ctype-uca.obj
 0002:0000da00       hungarian                  000000018006da00     strings:ctype-uca.obj
 0002:0000da68       tab_uni_8859_2_plane02     000000018006da68     strings:ctype-czech.obj
 0002:0000da80       page031data                000000018006da80     strings:ctype-uca.obj
 0002:0000e080       uca520_p0AA                000000018006e080     strings:ctype-uca.obj
 0002:0000e680       uca520_p01B                000000018006e680     strings:ctype-uca.obj
 0002:0000ec80       uca520_p00C                000000018006ec80     strings:ctype-uca.obj
 0002:0000f280       persian                    000000018006f280     strings:ctype-uca.obj
 0002:0000f5e0       uca520_p2F9                000000018006f5e0     strings:ctype-uca.obj
 0002:0000fbe0       page0FBdata                000000018006fbe0     strings:ctype-uca.obj
 0002:000103e0       uca520_p04D                00000001800703e0     strings:ctype-uca.obj
 0002:000109e0       uca520_p02F                00000001800709e0     strings:ctype-uca.obj
 0002:00010fe0       uca520_p2FA                0000000180070fe0     strings:ctype-uca.obj
 0002:000115e0       uca520_p1D2                00000001800715e0     strings:ctype-uca.obj
 0002:00011be0       page017data                0000000180071be0     strings:ctype-uca.obj
 0002:00012240       page00Adata                0000000180072240     strings:ctype-uca.obj
 0002:00012840       uca520_p123                0000000180072840     strings:ctype-uca.obj
 0002:00012e40       page04Ddata                0000000180072e40     strings:ctype-uca.obj
 0002:00013440       uca520_p0A0                0000000180073440     strings:ctype-uca.obj
 0002:00013840       page020data                0000000180073840     strings:ctype-uca.obj
 0002:00014240       uca520_p0FB                0000000180074240     strings:ctype-uca.obj
 0002:00014a40       uca520_p0FE                0000000180074a40     strings:ctype-uca.obj
 0002:00015240       page02Adata                0000000180075240     strings:ctype-uca.obj
 0002:00015c40       uca520_p10C                0000000180075c40     strings:ctype-uca.obj
 0002:00016240       uca520_p02D                0000000180076240     strings:ctype-uca.obj
 0002:00016840       uca520_p0A4                0000000180076840     strings:ctype-uca.obj
 0002:00016e40       page0A3data                0000000180076e40     strings:ctype-uca.obj
 0002:00017240       page02Bdata                0000000180077240     strings:ctype-uca.obj
 0002:00017840       slovak                     0000000180077840     strings:ctype-uca.obj
 0002:000178d0       uca520_p02C                00000001800778d0     strings:ctype-uca.obj
 0002:000180d0       uca520_p02E                00000001800780d0     strings:ctype-uca.obj
 0002:00018730       page0FDdata                0000000180078730     strings:ctype-uca.obj
 0002:00019930       uca520_p000                0000000180079930     strings:ctype-uca.obj
 0002:0001a130       uca520_p032                000000018007a130     strings:ctype-uca.obj
 0002:0001b130       uca520_p019                000000018007b130     strings:ctype-uca.obj
 0002:0001b930       uca520_p020                000000018007b930     strings:ctype-uca.obj
 0002:0001c330       page02Fdata                000000018007c330     strings:ctype-uca.obj
 0002:0001c930       uca520_p005                000000018007c930     strings:ctype-uca.obj
 0002:0001cf30       page022data                000000018007cf30     strings:ctype-uca.obj
 0002:0001d730       lithuanian                 000000018007d730     strings:ctype-uca.obj
 0002:0001d7e0       uca520_p031                000000018007d7e0     strings:ctype-uca.obj
 0002:0001dde0       page007data                000000018007dde0     strings:ctype-uca.obj
 0002:0001e3e0       uca520_p0FF                000000018007e3e0     strings:ctype-uca.obj
 0002:0001e9e0       uca520_p030                000000018007e9e0     strings:ctype-uca.obj
 0002:0001efe0       page033data                000000018007efe0     strings:ctype-uca.obj
 0002:000201e0       page0A4data                00000001800801e0     strings:ctype-uca.obj
 0002:000218e0       uca520_p10B                00000001800818e0     strings:ctype-uca.obj
 0002:00021ee0       danish                     0000000180081ee0     strings:ctype-uca.obj
 0002:00021fb8       ?order@?1??inflate@@9@9    0000000180081fb8     zlib:inflate.obj
 0002:00021fe0       page0F9data                0000000180081fe0     strings:ctype-uca.obj
 0002:000225e0       uca520_p0A6                00000001800825e0     strings:ctype-uca.obj
 0002:00022be0       uca520_p009                0000000180082be0     strings:ctype-uca.obj
 0002:000231e0       uca520_p120                00000001800831e0     strings:ctype-uca.obj
 0002:000235e0       page005data                00000001800835e0     strings:ctype-uca.obj
 0002:00023be0       uca520_p1D5                0000000180083be0     strings:ctype-uca.obj
 0002:000241e0       uca520_p01C                00000001800841e0     strings:ctype-uca.obj
 0002:000247e0       german2                    00000001800847e0     strings:ctype-uca.obj
 0002:00024858       my_caseinfo_euckr          0000000180084858     strings:ctype-euc_kr.obj
 0002:00024868       bl_order                   0000000180084868     zlib:trees.obj
 0002:00024880       uca520_p0A1                0000000180084880     strings:ctype-uca.obj
 0002:00024c80       uca520_p103                0000000180084c80     strings:ctype-uca.obj
 0002:00025280       uca520_p001                0000000180085280     strings:ctype-uca.obj
 0002:00025880       page024data                0000000180085880     strings:ctype-uca.obj
 0002:00026280       uca520_p003                0000000180086280     strings:ctype-uca.obj
 0002:00026a80       myanmar                    0000000180086a80     strings:ctype-uca.obj
 0002:0002db98       ?null_str@yaSSL@@3QEBDEB   000000018008db98     yassl:yassl_int.obj
 0002:0002dba0       uca520_p025                000000018008dba0     strings:ctype-uca.obj
 0002:0002dfa0       uca520_p108                000000018008dfa0     strings:ctype-uca.obj
 0002:0002e5a0       page001data                000000018008e5a0     strings:ctype-uca.obj
 0002:0002eba0       uca520_p017                000000018008eba0     strings:ctype-uca.obj
 0002:0002f1a0       page002data                000000018008f1a0     strings:ctype-uca.obj
 0002:0002f7a0       uca520_p006                000000018008f7a0     strings:ctype-uca.obj
 0002:0002fda0       spanish                    000000018008fda0     strings:ctype-uca.obj
 0002:0002fdc0       page012data                000000018008fdc0     strings:ctype-uca.obj
 0002:000303c0       uca520_p104                00000001800903c0     strings:ctype-uca.obj
 0002:000309c0       swedish                    00000001800909c0     strings:ctype-uca.obj
 0002:00030a48       my_caseinfo_eucjpms        0000000180090a48     strings:ctype-eucjpms.obj
 0002:00030a58       ?null_str@yaSSL@@3QEBDEB   0000000180090a58     yassl:crypto_wrapper.obj
 0002:00030a60       uca520_p018                0000000180090a60     strings:ctype-uca.obj
 0002:00031060       uca520_p122                0000000180091060     strings:ctype-uca.obj
 0002:00031460       uca520_p1D0                0000000180091460     strings:ctype-uca.obj
 0002:00031a60       icelandic                  0000000180091a60     strings:ctype-uca.obj
 0002:00031b88       my_caseinfo_ujis           0000000180091b88     strings:ctype-ujis.obj
 0002:00031b98       ?null_str@yaSSL@@3QEBDEB   0000000180091b98     yassl:buffer.obj
 0002:00031ba0       uca520_p008                0000000180091ba0     strings:ctype-uca.obj
 0002:000321a0       uca520_p014                00000001800921a0     strings:ctype-uca.obj
 0002:000325a0       page01Fdata                00000001800925a0     strings:ctype-uca.obj
 0002:00032ba0       uca520_p011                0000000180092ba0     strings:ctype-uca.obj
 0002:00032fa0       page016data                0000000180092fa0     strings:ctype-uca.obj
 0002:000335a0       uca520_p02B                00000001800935a0     strings:ctype-uca.obj
 0002:00033ba0       uca520_p10E                0000000180093ba0     strings:ctype-uca.obj
 0002:000341a0       page00Fdata                00000001800941a0     strings:ctype-uca.obj
 0002:000347a0       uca520_p015                00000001800947a0     strings:ctype-uca.obj
 0002:00034ba0       croatian_mysql561          0000000180094ba0     strings:ctype-uca.obj
 0002:00034cc8       ?null_str@yaSSL@@3QEBDEB   0000000180094cc8     yassl:yassl_imp.obj
 0002:00034cd0       page003data                0000000180094cd0     strings:ctype-uca.obj
 0002:000354d0       page025data                00000001800954d0     strings:ctype-uca.obj
 0002:000358d0       uca520_p0A8                00000001800958d0     strings:ctype-uca.obj
 0002:00035ed0       spanish2                   0000000180095ed0     strings:ctype-uca.obj
 0002:00035f18       my_caseinfo_gb2312         0000000180095f18     strings:ctype-gb2312.obj
 0002:00035f28       ?server@yaSSL@@3QBEB       0000000180095f28     yassl:handshake.obj
 0002:00035f30       uca520_p124                0000000180095f30     strings:ctype-uca.obj
 0002:00036588       ?client@yaSSL@@3QBEB       0000000180096588     yassl:handshake.obj
 0002:00036590       page000data                0000000180096590     strings:ctype-uca.obj
 0002:00036d90       uca520_p1D7                0000000180096d90     strings:ctype-uca.obj
 0002:00037390       uca520_p022                0000000180097390     strings:ctype-uca.obj
 0002:00037b90       uca520_p0FD                0000000180097b90     strings:ctype-uca.obj
 0002:00038d90       uca520_p026                0000000180098d90     strings:ctype-uca.obj
 0002:00039390       uca520_p110                0000000180099390     strings:ctype-uca.obj
 0002:00039990       page010data                0000000180099990     strings:ctype-uca.obj
 0002:00039f90       uca520_p109                0000000180099f90     strings:ctype-uca.obj
 0002:0003a590       uca520_p01A                000000018009a590     strings:ctype-uca.obj
 0002:0003ad90       uca_length                 000000018009ad90     strings:ctype-uca.obj
 0002:0003ae90       uca520_p002                000000018009ae90     strings:ctype-uca.obj
 0002:0003b490       page013data                000000018009b490     strings:ctype-uca.obj
 0002:0003ba90       page019data                000000018009ba90     strings:ctype-uca.obj
 0002:0003c090       page023data                000000018009c090     strings:ctype-uca.obj
 0002:0003c690       uca520_p2F8                000000018009c690     strings:ctype-uca.obj
 0002:0003cc90       uca520_p007                000000018009cc90     strings:ctype-uca.obj
 0002:0003d290       page009data                000000018009d290     strings:ctype-uca.obj
 0002:0003d890       page01Ddata                000000018009d890     strings:ctype-uca.obj
 0002:0003de90       page032data                000000018009de90     strings:ctype-uca.obj
 0002:0003ee90       uca520_p00F                000000018009ee90     strings:ctype-uca.obj
 0002:0003f490       uca520_pE00                000000018009f490     strings:ctype-uca.obj
 0002:0003fa90       uca520_p133                000000018009fa90     strings:ctype-uca.obj
 0002:0003fe90       page028data                000000018009fe90     strings:ctype-uca.obj
 0002:00040290       uca520_p01D                00000001800a0290     strings:ctype-uca.obj
 0002:00040890       page00Ddata                00000001800a0890     strings:ctype-uca.obj
 0002:00040e90       uca520_p121                00000001800a0e90     strings:ctype-uca.obj
 0002:00041290       uca520_p130                00000001800a1290     strings:ctype-uca.obj
 0002:00041690       uca520_p021                00000001800a1690     strings:ctype-uca.obj
 0002:00042090       uca520_p1F2                00000001800a2090     strings:ctype-uca.obj
 0002:00042a90       uca520_p131                00000001800a2a90     strings:ctype-uca.obj
 0002:00042e90       uca520_p1D4                00000001800a2e90     strings:ctype-uca.obj
 0002:00043490       uca520_p132                00000001800a3490     strings:ctype-uca.obj
 0002:00043890       uca520_p01F                00000001800a3890     strings:ctype-uca.obj
 0002:00043e90       uca520_p0F9                00000001800a3e90     strings:ctype-uca.obj
 0002:00044490       uca520_p004                00000001800a4490     strings:ctype-uca.obj
 0002:00044890       uca520_p029                00000001800a4890     strings:ctype-uca.obj
 0002:00044c90       page0FCdata                00000001800a4c90     strings:ctype-uca.obj
 0002:00045290       page01Edata                00000001800a5290     strings:ctype-uca.obj
 0002:00045890       page006data                00000001800a5890     strings:ctype-uca.obj
 0002:00045e90       uca_weight                 00000001800a5e90     strings:ctype-uca.obj
 0002:00046690       uca520_p0FC                00000001800a6690     strings:ctype-uca.obj
 0002:00046c90       page030data                00000001800a6c90     strings:ctype-uca.obj
 0002:00047290       page029data                00000001800a7290     strings:ctype-uca.obj
 0002:00047690       page0FAdata                00000001800a7690     strings:ctype-uca.obj
 0002:00047c90       uca520_p01E                00000001800a7c90     strings:ctype-uca.obj
 0002:00048290       page021data                00000001800a8290     strings:ctype-uca.obj
 0002:00048c90       uca520_p012                00000001800a8c90     strings:ctype-uca.obj
 0002:00049290       uca520_p1D1                00000001800a9290     strings:ctype-uca.obj
 0002:00049890       uca520_p013                00000001800a9890     strings:ctype-uca.obj
 0002:00049e90       uca520_p0AB                00000001800a9e90     strings:ctype-uca.obj
 0002:0004a490       romanian                   00000001800aa490     strings:ctype-uca.obj
 0002:0004a530       uca520_p010                00000001800aa530     strings:ctype-uca.obj
 0002:0004ad30       uca520_p024                00000001800aad30     strings:ctype-uca.obj
 0002:0004b730       uca520_p1F0                00000001800ab730     strings:ctype-uca.obj
 0002:0004bd30       page00Bdata                00000001800abd30     strings:ctype-uca.obj
 0002:0004c330       uca520_p10A                00000001800ac330     strings:ctype-uca.obj
 0002:0004c930       uca520_p016                00000001800ac930     strings:ctype-uca.obj
 0002:0004cf30       page018data                00000001800acf30     strings:ctype-uca.obj
 0002:0004d530       sinhala                    00000001800ad530     strings:ctype-uca.obj
 0002:0004d758       CZ_SORT_TABLE              00000001800ad758     strings:ctype-czech.obj
 0002:0004d778       ?null_str@yaSSL@@3QEBDEB   00000001800ad778     yassl:handshake.obj
 0002:0004d780       uca520_p1D6                00000001800ad780     strings:ctype-uca.obj
 0002:0004dd80       turkish                    00000001800add80     strings:ctype-uca.obj
 0002:0004de18       my_caseinfo_big5           00000001800ade18     strings:ctype-big5.obj
 0002:0004de28       ?null_str@yaSSL@@3QEBDEB   00000001800ade28     yassl:cert_wrapper.obj
 0002:0004de30       uca520_p00D                00000001800ade30     strings:ctype-uca.obj
 0002:0004e430       page0A2data                00000001800ae430     strings:ctype-uca.obj
 0002:0004e830       estonian                   00000001800ae830     strings:ctype-uca.obj
 0002:0004e8c8       my_caseinfo_sjis           00000001800ae8c8     strings:ctype-sjis.obj
 0002:0004e8d8       ?RoundupSizeTable@TaoCrypt@@3QBIB 00000001800ae8d8     taocrypt:integer.obj
 0002:0004e900       uca520_p0FA                00000001800ae900     strings:ctype-uca.obj
 0002:0004ef00       page00Edata                00000001800aef00     strings:ctype-uca.obj
 0002:0004f500       czech                      00000001800af500     strings:ctype-uca.obj
 0002:0004f580       page014data                00000001800af580     strings:ctype-uca.obj
 0002:0004fb80       uca520_p00E                00000001800afb80     strings:ctype-uca.obj
 0002:00050180       page011data                00000001800b0180     strings:ctype-uca.obj
 0002:00050780       polish                     00000001800b0780     strings:ctype-uca.obj
 0002:00050860       uca520_p102                00000001800b0860     strings:ctype-uca.obj
 0002:00050e60       croatian_mariadb           00000001800b0e60     strings:ctype-uca.obj
 0002:00050f88       my_caseinfo_gbk            00000001800b0f88     strings:ctype-gbk.obj
 0002:00050f98       ?pc1@TaoCrypt@@3QBEB       00000001800b0f98     taocrypt:des.obj
 0002:00050fd0       uca520_p0A3                00000001800b0fd0     strings:ctype-uca.obj
 0002:000513d0       slovenian                  00000001800b13d0     strings:ctype-uca.obj
 0002:00051420       page026data                00000001800b1420     strings:ctype-uca.obj
 0002:00051a20       uca520_p1F1                00000001800b1a20     strings:ctype-uca.obj
 0002:00052220       uca520_p0D7                00000001800b2220     strings:ctype-uca.obj
 0002:00052820       uca520_pE01                00000001800b2820     strings:ctype-uca.obj
 0002:00052e20       uca520_p0A9                00000001800b2e20     strings:ctype-uca.obj
 0002:00053420       uca520_p0A2                00000001800b3420     strings:ctype-uca.obj
 0002:00053820       uca520_p00A                00000001800b3820     strings:ctype-uca.obj
 0002:00053e20       uca520_p0A7                00000001800b3e20     strings:ctype-uca.obj
 0002:00054420       page0A1data                00000001800b4420     strings:ctype-uca.obj
 0002:00054820       page00Cdata                00000001800b4820     strings:ctype-uca.obj
 0002:00054e20       page0FFdata                00000001800b4e20     strings:ctype-uca.obj
 0002:00055420       page004data                00000001800b5420     strings:ctype-uca.obj
 0002:00055a20       uca520_p028                00000001800b5a20     strings:ctype-uca.obj
 0002:00055e20       page0FEdata                00000001800b5e20     strings:ctype-uca.obj
 0002:00056420       uca520_p0A5                00000001800b6420     strings:ctype-uca.obj
 0002:00056820       uca520_p033                00000001800b6820     strings:ctype-uca.obj
 0002:00057a20       page0A0data                00000001800b7a20     strings:ctype-uca.obj
 0002:00057e20       uca520_p1D3                00000001800b7e20     strings:ctype-uca.obj
 0002:00058420       uca520_p00B                00000001800b8420     strings:ctype-uca.obj
 0002:00058a80       page02Edata                00000001800b8a80     strings:ctype-uca.obj
 0002:00059080       esperanto                  00000001800b9080     strings:ctype-uca.obj
 0002:00059110       uca520_p027                00000001800b9110     strings:ctype-uca.obj
 0002:00059710       uca520_p100                00000001800b9710     strings:ctype-uca.obj
 0002:00059d10       vietnamese                 00000001800b9d10     strings:ctype-uca.obj
 0002:0005a2a8       ?lext@?1??inflate_table@@9@9 00000001800ba2a8     zlib:inftrees.obj
 0002:0005a2e8       ?tls_client@yaSSL@@3QBEB   00000001800ba2e8     yassl:handshake.obj
 0002:0005a300       latvian                    00000001800ba300     strings:ctype-uca.obj
 0002:0005a3e0       uca520_p023                00000001800ba3e0     strings:ctype-uca.obj
 0002:0005a9e0       page015data                00000001800ba9e0     strings:ctype-uca.obj
 0002:0005afe0       my_collation_utf8mb4_general_ci_handler 00000001800bafe0     strings:ctype-utf8.obj
 0002:0005b040       uni_2160_217F              00000001800bb040     strings:ctype-utf8.obj
 0002:0005b080       my_collation_filename_handler 00000001800bb080     strings:ctype-utf8.obj
 0002:0005b0e0       my_charset_filename_handler 00000001800bb0e0     strings:ctype-utf8.obj
 0002:0005c1e0       my_collation_utf8mb4_bin_handler 00000001800bc1e0     strings:ctype-utf8.obj
 0002:0005c240       filename_safe_char         00000001800bc240     strings:ctype-utf8.obj
 0002:0005c2c0       ctype_utf8                 00000001800bc2c0     strings:ctype-utf8.obj
 0002:0005c3c8       ?lbase@?1??inflate_table@@9@9 00000001800bc3c8     zlib:inftrees.obj
 0002:0005c408       ?PAD2@yaSSL@@3QBEB         00000001800bc408     yassl:handshake.obj
 0002:0005c440       ?hex_lo_digit@?1??hexlo@@9@9 00000001800bc440     strings:ctype-utf8.obj
 0002:0005c540       to_upper_utf8              00000001800bc540     strings:ctype-utf8.obj
 0002:0005c640       uni_0C00_05FF              00000001800bc640     strings:ctype-utf8.obj
 0002:0005d0c0       my_collation_utf8_bin_handler 00000001800bd0c0     strings:ctype-utf8.obj
 0002:0005d120       uni_24B0_24EF              00000001800bd120     strings:ctype-utf8.obj
 0002:0005d1a0       uni_FF20_FF5F              00000001800bd1a0     strings:ctype-utf8.obj
 0002:0005d220       uni_1E00_1FFF              00000001800bd220     strings:ctype-utf8.obj
 0002:0005d620       my_collation_utf8_general_mysql500_ci_handler 00000001800bd620     strings:ctype-utf8.obj
 0002:0005d6a0       touni                      00000001800bd6a0     strings:ctype-utf8.obj
 0002:00060578       ?master_label@yaSSL@@3QBEB 00000001800c0578     yassl:yassl_int.obj
 0002:00060588       ?tls_server@yaSSL@@3QBEB   00000001800c0588     yassl:handshake.obj
 0002:000605a0       to_lower_utf8              00000001800c05a0     strings:ctype-utf8.obj
 0002:000606a0       my_collation_utf8_general_ci_handler 00000001800c06a0     strings:ctype-utf8.obj
 0002:00060860       d10                        00000001800c0860     strings:ctype-simple.obj
 0002:00060900       sec                        00000001800c0900     strings:ctype.obj
 0002:00060de0       my_charset_handler         00000001800c0de0     strings:ctype-cp932.obj
 0002:00060ee0       unicode_to_cp932           00000001800c0ee0     strings:ctype-cp932.obj
 0002:00080ee0       cp932_to_unicode           00000001800e0ee0     strings:ctype-cp932.obj
 0002:000a0ee0       my_collation_handler_cp932_japanese_ci 0000000180100ee0     strings:ctype-cp932.obj
 0002:000a0f40       to_lower_cp932             0000000180100f40     strings:ctype-cp932.obj
 0002:000a1040       to_upper_cp932             0000000180101040     strings:ctype-cp932.obj
 0002:000a1140       ctype_cp932                0000000180101140     strings:ctype-cp932.obj
 0002:000a1248       ?key_label@yaSSL@@3QBEB    0000000180101248     yassl:yassl_int.obj
 0002:000a1260       my_collation_handler_cp932_bin 0000000180101260     strings:ctype-cp932.obj
 0002:000a12c0       sort_order_cp932           00000001801012c0     strings:ctype-cp932.obj
 0002:000a13c0       tab_cp1250_uni             00000001801013c0     strings:ctype-win1250ch.obj
 0002:000a15c0       sort_order_win1250ch       00000001801015c0     strings:ctype-win1250ch.obj
 0002:000a16c0       _sort_order_win1250ch1     00000001801016c0     strings:ctype-win1250ch.obj
 0002:000a17c0       idx_uni_cp1250             00000001801017c0     strings:ctype-win1250ch.obj
 0002:000a1820       to_lower_win1250ch         0000000180101820     strings:ctype-win1250ch.obj
 0002:000a1920       like_range_prefix_max_win1250ch 0000000180101920     strings:ctype-win1250ch.obj
 0002:000a1a20       tab_uni_cp1250_plane01     0000000180101a20     strings:ctype-win1250ch.obj
 0002:000a1aa0       like_range_prefix_min_win1250ch 0000000180101aa0     strings:ctype-win1250ch.obj
 0002:000a1ba0       doubles                    0000000180101ba0     strings:ctype-win1250ch.obj
 0002:000a1bf0       tab_uni_cp1250_plane20     0000000180101bf0     strings:ctype-win1250ch.obj
 0002:000a1c90       tab_uni_cp1250_plane00     0000000180101c90     strings:ctype-win1250ch.obj
 0002:000a1d90       _sort_order_win1250ch2     0000000180101d90     strings:ctype-win1250ch.obj
 0002:000a1e90       ctype_win1250ch            0000000180101e90     strings:ctype-win1250ch.obj
 0002:000a1f98       ?PAD1@yaSSL@@3QBEB         0000000180101f98     yassl:handshake.obj
 0002:000a1fd0       to_upper_win1250ch         0000000180101fd0     strings:ctype-win1250ch.obj
 0002:000a20d0       my_collation_czech_ci_handler 00000001801020d0     strings:ctype-win1250ch.obj
 0002:000a2430       my_charset_utf16le_handler 0000000180102430     strings:ctype-ucs2.obj
 0002:000a2530       my_collation_utf16_general_ci_handler 0000000180102530     strings:ctype-ucs2.obj
 0002:000a2590       my_collation_utf16_bin_handler 0000000180102590     strings:ctype-ucs2.obj
 0002:000a25f0       ctype_ucs2                 00000001801025f0     strings:ctype-ucs2.obj
 0002:000a26f8       ?bytebit@TaoCrypt@@3QBHB   00000001801026f8     taocrypt:des.obj
 0002:000a2720       my_collation_ucs2_general_ci_handler 0000000180102720     strings:ctype-ucs2.obj
 0002:000a2780       my_collation_ucs2_bin_handler 0000000180102780     strings:ctype-ucs2.obj
 0002:000a27e0       my_collation_utf32_bin_handler 00000001801027e0     strings:ctype-ucs2.obj
 0002:000a2840       my_collation_utf16le_general_ci_handler 0000000180102840     strings:ctype-ucs2.obj
 0002:000a28a0       my_collation_utf16le_bin_handler 00000001801028a0     strings:ctype-ucs2.obj
 0002:000a2900       to_upper_ucs2              0000000180102900     strings:ctype-ucs2.obj
 0002:000a2a00       my_collation_utf32_general_ci_handler 0000000180102a00     strings:ctype-ucs2.obj
 0002:000a2a60       to_lower_ucs2              0000000180102a60     strings:ctype-ucs2.obj
 0002:000a2b60       ctype_euc_kr               0000000180102b60     strings:ctype-euc_kr.obj
 0002:000a2c68       ?pc2@TaoCrypt@@3QBEB       0000000180102c68     taocrypt:des.obj
 0002:000a2ca0       my_charset_handler         0000000180102ca0     strings:ctype-euc_kr.obj
 0002:000a2da0       tab_uni_ksc56018           0000000180102da0     strings:ctype-euc_kr.obj
 0002:000a84f0       tab_uni_ksc56010           00000001801084f0     strings:ctype-euc_kr.obj
 0002:000a8680       to_lower_euc_kr            0000000180108680     strings:ctype-euc_kr.obj
 0002:000a8780       sort_order_euc_kr          0000000180108780     strings:ctype-euc_kr.obj
 0002:000a8880       tab_uni_ksc56017           0000000180108880     strings:ctype-euc_kr.obj
 0002:000a9cd0       tab_uni_ksc56011           0000000180109cd0     strings:ctype-euc_kr.obj
 0002:000a9ff0       tab_uni_ksc56014           0000000180109ff0     strings:ctype-euc_kr.obj
 0002:000aa4f0       my_collation_handler_euckr_bin 000000018010a4f0     strings:ctype-euc_kr.obj
 0002:000aa550       tab_ksc5601_uni1           000000018010a550     strings:ctype-euc_kr.obj
 0002:000b0c10       tab_uni_ksc56019           0000000180110c10     strings:ctype-euc_kr.obj
 0002:000b0e30       tab_uni_ksc56013           0000000180110e30     strings:ctype-euc_kr.obj
 0002:000b1250       my_collation_handler_euckr_korean_ci 0000000180111250     strings:ctype-euc_kr.obj
 0002:000b12b0       to_upper_euc_kr            00000001801112b0     strings:ctype-euc_kr.obj
 0002:000b13b0       tab_ksc5601_uni0           00000001801113b0     strings:ctype-euc_kr.obj
 0002:000ba330       tab_uni_ksc56012           000000018011a330     strings:ctype-euc_kr.obj
 0002:000ba930       tab_uni_ksc56015           000000018011a930     strings:ctype-euc_kr.obj
 0002:000ba9f0       tab_uni_ksc56016           000000018011a9f0     strings:ctype-euc_kr.obj
 0002:000c36f0       tab_uni_ksc560110          00000001801236f0     strings:ctype-euc_kr.obj
 0002:000c38c0       ctype_eucjpms              00000001801238c0     strings:ctype-eucjpms.obj
 0002:000c39c8       ?totrot@TaoCrypt@@3QBEB    00000001801239c8     taocrypt:des.obj
 0002:000c39e0       jisx0208_eucjpms_to_unicode 00000001801239e0     strings:ctype-eucjpms.obj
 0002:000e39e0       my_collation_eucjpms_japanese_ci_handler 00000001801439e0     strings:ctype-eucjpms.obj
 0002:000e3a40       my_charset_handler         0000000180143a40     strings:ctype-eucjpms.obj
 0002:000e3b40       unicode_to_jisx0208_eucjpms 0000000180143b40     strings:ctype-eucjpms.obj
 0002:00103b40       jisx0212_eucjpms_to_unicode 0000000180163b40     strings:ctype-eucjpms.obj
 0002:00123b40       to_upper_eucjpms           0000000180183b40     strings:ctype-eucjpms.obj
 0002:00123c40       my_collation_eucjpms_bin_handler 0000000180183c40     strings:ctype-eucjpms.obj
 0002:00123ca0       sort_order_eucjpms         0000000180183ca0     strings:ctype-eucjpms.obj
 0002:00123da0       unicode_to_jisx0212_eucjpms 0000000180183da0     strings:ctype-eucjpms.obj
 0002:00143da0       to_lower_eucjpms           00000001801a3da0     strings:ctype-eucjpms.obj
 0002:00143ea0       jisx0208_eucjp_to_unicode  00000001801a3ea0     strings:ctype-ujis.obj
 0002:00163ea0       my_charset_handler         00000001801c3ea0     strings:ctype-ujis.obj
 0002:00163fa0       sort_order_ujis            00000001801c3fa0     strings:ctype-ujis.obj
 0002:001640a0       to_upper_ujis              00000001801c40a0     strings:ctype-ujis.obj
 0002:001641a0       unicode_to_jisx0212_eucjp  00000001801c41a0     strings:ctype-ujis.obj
 0002:001841a0       my_collation_ujis_bin_handler 00000001801e41a0     strings:ctype-ujis.obj
 0002:00184200       my_collation_ujis_japanese_ci_handler 00000001801e4200     strings:ctype-ujis.obj
 0002:00184260       jisx0212_eucjp_to_unicode  00000001801e4260     strings:ctype-ujis.obj
 0002:001a4260       ctype_ujis                 0000000180204260     strings:ctype-ujis.obj
 0002:001a4370       unicode_to_jisx0208_eucjp  0000000180204370     strings:ctype-ujis.obj
 0002:001c4370       to_lower_ujis              0000000180224370     strings:ctype-ujis.obj
 0002:001c4470       tab_gb2312_uni0            0000000180224470     strings:ctype-gb2312.obj
 0002:001c4ee0       to_lower_gb2312            0000000180224ee0     strings:ctype-gb2312.obj
 0002:001c4fe0       my_charset_handler         0000000180224fe0     strings:ctype-gb2312.obj
 0002:001c50e0       tab_uni_gb23122            00000001802250e0     strings:ctype-gb2312.obj
 0002:001c56e0       my_collation_handler_gb2312_chinese_ci 00000001802256e0     strings:ctype-gb2312.obj
 0002:001c5740       tab_uni_gb23120            0000000180225740     strings:ctype-gb2312.obj
 0002:001c59c0       to_upper_gb2312            00000001802259c0     strings:ctype-gb2312.obj
 0002:001c5ac0       tab_uni_gb23126            0000000180225ac0     strings:ctype-gb2312.obj
 0002:001cf570       tab_uni_gb23124            000000018022f570     strings:ctype-gb2312.obj
 0002:001cf7d0       tab_gb2312_uni2            000000018022f7d0     strings:ctype-gb2312.obj
 0002:001d8690       my_collation_handler_gb2312_bin 0000000180238690     strings:ctype-gb2312.obj
 0002:001d86f0       tab_uni_gb23123            00000001802386f0     strings:ctype-gb2312.obj
 0002:001d8ac0       tab_uni_gb23127            0000000180238ac0     strings:ctype-gb2312.obj
 0002:001d8b90       tab_uni_gb23129            0000000180238b90     strings:ctype-gb2312.obj
 0002:001d8d60       tab_gb2312_uni1            0000000180238d60     strings:ctype-gb2312.obj
 0002:001d9200       tab_uni_gb23128            0000000180239200     strings:ctype-gb2312.obj
 0002:001d9510       tab_uni_gb23121            0000000180239510     strings:ctype-gb2312.obj
 0002:001d9830       ctype_gb2312               0000000180239830     strings:ctype-gb2312.obj
 0002:001d9940       sort_order_gb2312          0000000180239940     strings:ctype-gb2312.obj
 0002:001d9a40       tab_uni_8859_2_plane01     0000000180239a40     strings:ctype-czech.obj
 0002:001d9ac0       tab_uni_8859_2_plane00     0000000180239ac0     strings:ctype-czech.obj
 0002:001d9bc0       ctype_czech                0000000180239bc0     strings:ctype-czech.obj
 0002:001d9cd0       my_collation_latin2_czech_ci_handler 0000000180239cd0     strings:ctype-czech.obj
 0002:001d9d30       doubles                    0000000180239d30     strings:ctype-czech.obj
 0002:001d9d80       idx_uni_8859_2             0000000180239d80     strings:ctype-czech.obj
 0002:001d9dc0       sort_order_czech           0000000180239dc0     strings:ctype-czech.obj
 0002:001d9ec0       to_upper_czech             0000000180239ec0     strings:ctype-czech.obj
 0002:001d9fc0       tab_8859_2_uni             0000000180239fc0     strings:ctype-czech.obj
 0002:001da1c0       to_lower_czech             000000018023a1c0     strings:ctype-czech.obj
 0002:001da2c0       tab_uni_big57              000000018023a2c0     strings:ctype-big5.obj
 0002:001e2fd0       tab_big5_uni0              0000000180242fd0     strings:ctype-big5.obj
 0002:001e7d50       to_lower_big5              0000000180247d50     strings:ctype-big5.obj
 0002:001e7e50       to_upper_big5              0000000180247e50     strings:ctype-big5.obj
 0002:001e7f50       tab_uni_big58              0000000180247f50     strings:ctype-big5.obj
 0002:001e93b0       sort_order_big5            00000001802493b0     strings:ctype-big5.obj
 0002:001e94b0       tab_uni_big510             00000001802494b0     strings:ctype-big5.obj
 0002:001e9850       ctype_big5                 0000000180249850     strings:ctype-big5.obj
 0002:001e9960       tab_uni_big56              0000000180249960     strings:ctype-big5.obj
 0002:001e99f0       tab_uni_big51              00000001802499f0     strings:ctype-big5.obj
 0002:001e9d10       my_collation_handler_big5_bin 0000000180249d10     strings:ctype-big5.obj
 0002:001e9d70       tab_uni_big54              0000000180249d70     strings:ctype-big5.obj
 0002:001e9fd0       tab_big5_uni1              0000000180249fd0     strings:ctype-big5.obj
 0002:001f0110       my_collation_handler_big5_chinese_ci 0000000180250110     strings:ctype-big5.obj
 0002:001f0170       tab_uni_big50              0000000180250170     strings:ctype-big5.obj
 0002:001f0220       tab_uni_big53              0000000180250220     strings:ctype-big5.obj
 0002:001f05f0       my_charset_big5_handler    00000001802505f0     strings:ctype-big5.obj
 0002:001f06f0       tab_uni_big52              00000001802506f0     strings:ctype-big5.obj
 0002:001f0c50       pl0E                       0000000180250c50     strings:ctype-tis620.obj
 0002:001f0d50       cs_to_uni                  0000000180250d50     strings:ctype-tis620.obj
 0002:001f0f50       sort_order_tis620          0000000180250f50     strings:ctype-tis620.obj
 0002:001f1050       my_charset_handler         0000000180251050     strings:ctype-tis620.obj
 0002:001f1150       uni_to_cs                  0000000180251150     strings:ctype-tis620.obj
 0002:001f1950       plFF                       0000000180251950     strings:ctype-tis620.obj
 0002:001f1a50       t_ctype                    0000000180251a50     strings:ctype-tis620.obj
 0002:001f2e50       pl00                       0000000180252e50     strings:ctype-tis620.obj
 0002:001f2f50       my_collation_ci_handler    0000000180252f50     strings:ctype-tis620.obj
 0002:001f2fb0       to_lower_latin7_estonian_cs 0000000180252fb0     strings:ctype-extra.obj
 0002:001f30b0       to_upper_ascii_bin         00000001802530b0     strings:ctype-extra.obj
 0002:001f31b0       ctype_cp1250_polish_ci     00000001802531b0     strings:ctype-extra.obj
 0002:001f32c0       ctype_cp1251_ukrainian_ci  00000001802532c0     strings:ctype-extra.obj
 0002:001f33d0       ctype_cp1257_general_ci    00000001802533d0     strings:ctype-extra.obj
 0002:001f34e0       to_lower_cp852_general_ci  00000001802534e0     strings:ctype-extra.obj
 0002:001f35e0       to_uni_cp1251_bin          00000001802535e0     strings:ctype-extra.obj
 0002:001f37e0       to_uni_armscii8_bin        00000001802537e0     strings:ctype-extra.obj
 0002:001f39e0       to_lower_cp1250_polish_ci  00000001802539e0     strings:ctype-extra.obj
 0002:001f3ae0       to_uni_cp1251_general_ci   0000000180253ae0     strings:ctype-extra.obj
 0002:001f3ce0       to_upper_hp8_english_ci    0000000180253ce0     strings:ctype-extra.obj
 0002:001f3de0       to_upper_greek_bin         0000000180253de0     strings:ctype-extra.obj
 0002:001f3ee0       to_lower_cp1250_general_ci 0000000180253ee0     strings:ctype-extra.obj
 0002:001f3fe0       to_lower_latin5_bin        0000000180253fe0     strings:ctype-extra.obj
 0002:001f40e0       to_upper_latin7_bin        00000001802540e0     strings:ctype-extra.obj
 0002:001f41e0       ctype_cp1257_lithuanian_ci 00000001802541e0     strings:ctype-extra.obj
 0002:001f42f0       sort_order_cp850_general_ci 00000001802542f0     strings:ctype-extra.obj
 0002:001f43f0       to_uni_cp1250_bin          00000001802543f0     strings:ctype-extra.obj
 0002:001f45f0       to_upper_latin1_general_ci 00000001802545f0     strings:ctype-extra.obj
 0002:001f46f0       ctype_geostd8_bin          00000001802546f0     strings:ctype-extra.obj
 0002:001f4800       to_lower_keybcs2_bin       0000000180254800     strings:ctype-extra.obj
 0002:001f4900       ctype_macroman_bin         0000000180254900     strings:ctype-extra.obj
 0002:001f4a10       to_lower_ascii_general_ci  0000000180254a10     strings:ctype-extra.obj
 0002:001f4b10       sort_order_latin2_croatian_ci 0000000180254b10     strings:ctype-extra.obj
 0002:001f4c10       to_uni_cp866_bin           0000000180254c10     strings:ctype-extra.obj
 0002:001f4e10       to_lower_macroman_bin      0000000180254e10     strings:ctype-extra.obj
 0002:001f4f10       to_upper_cp1257_bin        0000000180254f10     strings:ctype-extra.obj
 0002:001f5010       to_uni_cp1256_general_ci   0000000180255010     strings:ctype-extra.obj
 0002:001f5210       to_lower_latin1_spanish_ci 0000000180255210     strings:ctype-extra.obj
 0002:001f5310       sort_order_latin1_danish_ci 0000000180255310     strings:ctype-extra.obj
 0002:001f5410       to_lower_cp1257_lithuanian_ci 0000000180255410     strings:ctype-extra.obj
 0002:001f5510       to_uni_hebrew_general_ci   0000000180255510     strings:ctype-extra.obj
 0002:001f5710       sort_order_geostd8_general_ci 0000000180255710     strings:ctype-extra.obj
 0002:001f5810       to_lower_latin1_general_ci 0000000180255810     strings:ctype-extra.obj
 0002:001f5910       to_upper_keybcs2_bin       0000000180255910     strings:ctype-extra.obj
 0002:001f5a10       sort_order_cp1257_general_ci 0000000180255a10     strings:ctype-extra.obj
 0002:001f5b10       ctype_cp852_general_ci     0000000180255b10     strings:ctype-extra.obj
 0002:001f5c20       ctype_ascii_general_ci     0000000180255c20     strings:ctype-extra.obj
 0002:001f5d30       sort_order_ascii_general_ci 0000000180255d30     strings:ctype-extra.obj
 0002:001f5e30       ctype_cp1251_general_ci    0000000180255e30     strings:ctype-extra.obj
 0002:001f5f40       ctype_armscii8_general_ci  0000000180255f40     strings:ctype-extra.obj
 0002:001f6050       to_uni_latin1_german1_ci   0000000180256050     strings:ctype-extra.obj
 0002:001f6250       ctype_cp866_general_ci     0000000180256250     strings:ctype-extra.obj
 0002:001f6360       to_uni_cp850_bin           0000000180256360     strings:ctype-extra.obj
 0002:001f6560       to_lower_swe7_bin          0000000180256560     strings:ctype-extra.obj
 0002:001f6660       ctype_ascii_bin            0000000180256660     strings:ctype-extra.obj
 0002:001f6770       to_upper_keybcs2_general_ci 0000000180256770     strings:ctype-extra.obj
 0002:001f6870       to_lower_latin2_hungarian_ci 0000000180256870     strings:ctype-extra.obj
 0002:001f6970       ctype_cp850_bin            0000000180256970     strings:ctype-extra.obj
 0002:001f6a80       to_lower_macroman_general_ci 0000000180256a80     strings:ctype-extra.obj
 0002:001f6b80       sort_order_cp1250_polish_ci 0000000180256b80     strings:ctype-extra.obj
 0002:001f6c80       to_upper_cp1251_bin        0000000180256c80     strings:ctype-extra.obj
 0002:001f6d80       to_lower_latin2_bin        0000000180256d80     strings:ctype-extra.obj
 0002:001f6e80       to_uni_cp1251_general_cs   0000000180256e80     strings:ctype-extra.obj
 0002:001f7080       to_uni_macroman_general_ci 0000000180257080     strings:ctype-extra.obj
 0002:001f7280       to_uni_cp1256_bin          0000000180257280     strings:ctype-extra.obj
 0002:001f7480       to_upper_macroman_general_ci 0000000180257480     strings:ctype-extra.obj
 0002:001f7580       to_upper_dec8_swedish_ci   0000000180257580     strings:ctype-extra.obj
 0002:001f7680       to_upper_hebrew_general_ci 0000000180257680     strings:ctype-extra.obj
 0002:001f7780       ctype_macroman_general_ci  0000000180257780     strings:ctype-extra.obj
 0002:001f7890       to_upper_latin2_croatian_ci 0000000180257890     strings:ctype-extra.obj
 0002:001f7990       ctype_hp8_bin              0000000180257990     strings:ctype-extra.obj
 0002:001f7aa0       to_uni_koi8u_bin           0000000180257aa0     strings:ctype-extra.obj
 0002:001f7ca0       sort_order_keybcs2_general_ci 0000000180257ca0     strings:ctype-extra.obj
 0002:001f7da0       to_upper_dec8_bin          0000000180257da0     strings:ctype-extra.obj
 0002:001f7ea0       to_lower_cp1256_bin        0000000180257ea0     strings:ctype-extra.obj
 0002:001f7fa0       sort_order_hebrew_general_ci 0000000180257fa0     strings:ctype-extra.obj
 0002:001f80a0       ctype_cp852_bin            00000001802580a0     strings:ctype-extra.obj
 0002:001f81b0       to_lower_cp866_bin         00000001802581b0     strings:ctype-extra.obj
 0002:001f82b0       to_uni_cp1251_ukrainian_ci 00000001802582b0     strings:ctype-extra.obj
 0002:001f84b0       to_uni_latin2_bin          00000001802584b0     strings:ctype-extra.obj
 0002:001f86b0       to_lower_cp1257_general_ci 00000001802586b0     strings:ctype-extra.obj
 0002:001f87b0       to_upper_swe7_swedish_ci   00000001802587b0     strings:ctype-extra.obj
 0002:001f88b0       ctype_cp1250_general_ci    00000001802588b0     strings:ctype-extra.obj
 0002:001f89c0       to_lower_cp1256_general_ci 00000001802589c0     strings:ctype-extra.obj
 0002:001f8ac0       to_uni_dec8_bin            0000000180258ac0     strings:ctype-extra.obj
 0002:001f8cc0       to_lower_latin1_danish_ci  0000000180258cc0     strings:ctype-extra.obj
 0002:001f8dc0       to_uni_latin1_spanish_ci   0000000180258dc0     strings:ctype-extra.obj
 0002:001f8fc0       to_uni_koi8u_general_ci    0000000180258fc0     strings:ctype-extra.obj
 0002:001f91c0       ctype_latin5_turkish_ci    00000001802591c0     strings:ctype-extra.obj
 0002:001f92d0       to_lower_cp1251_ukrainian_ci 00000001802592d0     strings:ctype-extra.obj
 0002:001f93d0       sort_order_macce_general_ci 00000001802593d0     strings:ctype-extra.obj
 0002:001f94d0       to_upper_cp1250_polish_ci  00000001802594d0     strings:ctype-extra.obj
 0002:001f95d0       to_uni_latin7_estonian_cs  00000001802595d0     strings:ctype-extra.obj
 0002:001f97d0       ctype_macce_bin            00000001802597d0     strings:ctype-extra.obj
 0002:001f98e0       to_lower_koi8u_general_ci  00000001802598e0     strings:ctype-extra.obj
 0002:001f99e0       ctype_cp850_general_ci     00000001802599e0     strings:ctype-extra.obj
 0002:001f9af0       sort_order_latin2_hungarian_ci 0000000180259af0     strings:ctype-extra.obj
 0002:001f9bf0       to_upper_latin1_spanish_ci 0000000180259bf0     strings:ctype-extra.obj
 0002:001f9cf0       sort_order_greek_general_ci 0000000180259cf0     strings:ctype-extra.obj
 0002:001f9df0       to_lower_cp1250_bin        0000000180259df0     strings:ctype-extra.obj
 0002:001f9ef0       to_upper_latin7_general_cs 0000000180259ef0     strings:ctype-extra.obj
 0002:001f9ff0       ctype_cp1250_croatian_ci   0000000180259ff0     strings:ctype-extra.obj
 0002:001fa100       to_upper_cp1250_bin        000000018025a100     strings:ctype-extra.obj
 0002:001fa200       ctype_cp1256_general_ci    000000018025a200     strings:ctype-extra.obj
 0002:001fa310       ctype_latin7_general_ci    000000018025a310     strings:ctype-extra.obj
 0002:001fa420       to_uni_cp1257_lithuanian_ci 000000018025a420     strings:ctype-extra.obj
 0002:001fa620       ctype_hebrew_general_ci    000000018025a620     strings:ctype-extra.obj
 0002:001fa730       sort_order_cp1257_lithuanian_ci 000000018025a730     strings:ctype-extra.obj
 0002:001fa830       sort_order_latin7_general_ci 000000018025a830     strings:ctype-extra.obj
 0002:001fa930       to_uni_cp1250_croatian_ci  000000018025a930     strings:ctype-extra.obj
 0002:001fab30       sort_order_latin1_spanish_ci 000000018025ab30     strings:ctype-extra.obj
 0002:001fac30       sort_order_cp1256_general_ci 000000018025ac30     strings:ctype-extra.obj
 0002:001fad30       to_uni_cp852_bin           000000018025ad30     strings:ctype-extra.obj
 0002:001faf30       sort_order_latin2_general_ci 000000018025af30     strings:ctype-extra.obj
 0002:001fb030       to_lower_koi8r_general_ci  000000018025b030     strings:ctype-extra.obj
 0002:001fb130       to_lower_cp1257_bin        000000018025b130     strings:ctype-extra.obj
 0002:001fb230       to_uni_greek_general_ci    000000018025b230     strings:ctype-extra.obj
 0002:001fb430       ctype_latin7_general_cs    000000018025b430     strings:ctype-extra.obj
 0002:001fb540       to_lower_latin1_general_cs 000000018025b540     strings:ctype-extra.obj
 0002:001fb640       ctype_keybcs2_bin          000000018025b640     strings:ctype-extra.obj
 0002:001fb750       to_upper_armscii8_bin      000000018025b750     strings:ctype-extra.obj
 0002:001fb850       to_uni_swe7_bin            000000018025b850     strings:ctype-extra.obj
 0002:001fba50       to_uni_dec8_swedish_ci     000000018025ba50     strings:ctype-extra.obj
 0002:001fbc50       to_upper_cp852_general_ci  000000018025bc50     strings:ctype-extra.obj
 0002:001fbd50       to_lower_geostd8_general_ci 000000018025bd50     strings:ctype-extra.obj
 0002:001fbe50       to_uni_cp1257_general_ci   000000018025be50     strings:ctype-extra.obj
 0002:001fc050       to_upper_armscii8_general_ci 000000018025c050     strings:ctype-extra.obj
 0002:001fc150       ctype_armscii8_bin         000000018025c150     strings:ctype-extra.obj
 0002:001fc260       to_upper_cp866_general_ci  000000018025c260     strings:ctype-extra.obj
 0002:001fc360       sort_order_cp1251_general_cs 000000018025c360     strings:ctype-extra.obj
 0002:001fc460       to_uni_latin2_general_ci   000000018025c460     strings:ctype-extra.obj
 0002:001fc660       to_uni_macce_general_ci    000000018025c660     strings:ctype-extra.obj
 0002:001fc860       to_uni_geostd8_bin         000000018025c860     strings:ctype-extra.obj
 0002:001fca60       to_uni_macroman_bin        000000018025ca60     strings:ctype-extra.obj
 0002:001fcc60       to_lower_cp866_general_ci  000000018025cc60     strings:ctype-extra.obj
 0002:001fcd60       to_upper_hp8_bin           000000018025cd60     strings:ctype-extra.obj
 0002:001fce60       ctype_koi8u_bin            000000018025ce60     strings:ctype-extra.obj
 0002:001fcf70       to_uni_ascii_bin           000000018025cf70     strings:ctype-extra.obj
 0002:001fd170       to_lower_cp1251_bulgarian_ci 000000018025d170     strings:ctype-extra.obj
 0002:001fd270       to_uni_cp1257_bin          000000018025d270     strings:ctype-extra.obj
 0002:001fd470       ctype_swe7_bin             000000018025d470     strings:ctype-extra.obj
 0002:001fd580       ctype_swe7_swedish_ci      000000018025d580     strings:ctype-extra.obj
 0002:001fd690       to_uni_hebrew_bin          000000018025d690     strings:ctype-extra.obj
 0002:001fd890       to_upper_cp1250_general_ci 000000018025d890     strings:ctype-extra.obj
 0002:001fd990       ctype_koi8u_general_ci     000000018025d990     strings:ctype-extra.obj
 0002:001fdaa0       to_uni_latin5_turkish_ci   000000018025daa0     strings:ctype-extra.obj
 0002:001fdca0       to_lower_armscii8_bin      000000018025dca0     strings:ctype-extra.obj
 0002:001fdda0       sort_order_dec8_swedish_ci 000000018025dda0     strings:ctype-extra.obj
 0002:001fdea0       to_upper_cp1257_general_ci 000000018025dea0     strings:ctype-extra.obj
 0002:001fdfa0       to_upper_cp852_bin         000000018025dfa0     strings:ctype-extra.obj
 0002:001fe0a0       to_uni_latin2_croatian_ci  000000018025e0a0     strings:ctype-extra.obj
 0002:001fe2a0       ctype_cp1256_bin           000000018025e2a0     strings:ctype-extra.obj
 0002:001fe3b0       to_uni_hp8_bin             000000018025e3b0     strings:ctype-extra.obj
 0002:001fe5b0       to_lower_latin5_turkish_ci 000000018025e5b0     strings:ctype-extra.obj
 0002:001fe6b0       to_lower_latin2_general_ci 000000018025e6b0     strings:ctype-extra.obj
 0002:001fe7b0       to_lower_armscii8_general_ci 000000018025e7b0     strings:ctype-extra.obj
 0002:001fe8b0       to_uni_greek_bin           000000018025e8b0     strings:ctype-extra.obj
 0002:001feab0       ctype_koi8r_bin            000000018025eab0     strings:ctype-extra.obj
 0002:001febc0       ctype_greek_bin            000000018025ebc0     strings:ctype-extra.obj
 0002:001fecd0       to_lower_cp1251_general_cs 000000018025ecd0     strings:ctype-extra.obj
 0002:001fedd0       sort_order_cp852_general_ci 000000018025edd0     strings:ctype-extra.obj
 0002:001feed0       to_upper_latin1_general_cs 000000018025eed0     strings:ctype-extra.obj
 0002:001fefd0       to_uni_latin1_general_cs   000000018025efd0     strings:ctype-extra.obj
 0002:001ff1d0       to_upper_latin2_hungarian_ci 000000018025f1d0     strings:ctype-extra.obj
 0002:001ff2d0       to_uni_hp8_english_ci      000000018025f2d0     strings:ctype-extra.obj
 0002:001ff4d0       ctype_dec8_bin             000000018025f4d0     strings:ctype-extra.obj
 0002:001ff5e0       to_uni_koi8r_general_ci    000000018025f5e0     strings:ctype-extra.obj
 0002:001ff7e0       sort_order_latin1_general_cs 000000018025f7e0     strings:ctype-extra.obj
 0002:001ff8e0       to_uni_geostd8_general_ci  000000018025f8e0     strings:ctype-extra.obj
 0002:001ffae0       ctype_latin7_bin           000000018025fae0     strings:ctype-extra.obj
 0002:001ffbf0       to_lower_latin7_general_cs 000000018025fbf0     strings:ctype-extra.obj
 0002:001ffcf0       to_lower_cp850_general_ci  000000018025fcf0     strings:ctype-extra.obj
 0002:001ffdf0       to_lower_cp1251_bin        000000018025fdf0     strings:ctype-extra.obj
 0002:001ffef0       to_upper_latin5_turkish_ci 000000018025fef0     strings:ctype-extra.obj
 0002:001ffff0       ctype_hp8_english_ci       000000018025fff0     strings:ctype-extra.obj
 0002:00200100       to_uni_cp1250_general_ci   0000000180260100     strings:ctype-extra.obj
 0002:00200300       to_upper_koi8r_general_ci  0000000180260300     strings:ctype-extra.obj
 0002:00200400       to_uni_cp852_general_ci    0000000180260400     strings:ctype-extra.obj
 0002:00200600       to_lower_latin7_bin        0000000180260600     strings:ctype-extra.obj
 0002:00200700       to_uni_keybcs2_general_ci  0000000180260700     strings:ctype-extra.obj
 0002:00200900       to_upper_geostd8_general_ci 0000000180260900     strings:ctype-extra.obj
 0002:00200a00       ctype_latin2_croatian_ci   0000000180260a00     strings:ctype-extra.obj
 0002:00200b10       ctype_latin1_danish_ci     0000000180260b10     strings:ctype-extra.obj
 0002:00200c20       to_upper_cp866_bin         0000000180260c20     strings:ctype-extra.obj
 0002:00200d20       ctype_latin1_general_ci    0000000180260d20     strings:ctype-extra.obj
 0002:00200e30       ctype_cp1251_bin           0000000180260e30     strings:ctype-extra.obj
 0002:00200f40       to_uni_latin7_general_cs   0000000180260f40     strings:ctype-extra.obj
 0002:00201140       sort_order_hp8_english_ci  0000000180261140     strings:ctype-extra.obj
 0002:00201240       sort_order_latin5_turkish_ci 0000000180261240     strings:ctype-extra.obj
 0002:00201340       to_lower_greek_general_ci  0000000180261340     strings:ctype-extra.obj
 0002:00201440       to_upper_latin1_german1_ci 0000000180261440     strings:ctype-extra.obj
 0002:00201540       to_upper_latin5_bin        0000000180261540     strings:ctype-extra.obj
 0002:00201640       to_lower_geostd8_bin       0000000180261640     strings:ctype-extra.obj
 0002:00201740       to_lower_cp1250_croatian_ci 0000000180261740     strings:ctype-extra.obj
 0002:00201840       to_uni_cp850_general_ci    0000000180261840     strings:ctype-extra.obj
 0002:00201a40       sort_order_koi8r_general_ci 0000000180261a40     strings:ctype-extra.obj
 0002:00201b40       to_upper_koi8r_bin         0000000180261b40     strings:ctype-extra.obj
 0002:00201c40       to_uni_koi8r_bin           0000000180261c40     strings:ctype-extra.obj
 0002:00201e40       to_lower_macce_bin         0000000180261e40     strings:ctype-extra.obj
 0002:00201f40       to_upper_cp850_bin         0000000180261f40     strings:ctype-extra.obj
 0002:00202040       to_upper_cp1256_bin        0000000180262040     strings:ctype-extra.obj
 0002:00202140       to_uni_swe7_swedish_ci     0000000180262140     strings:ctype-extra.obj
 0002:00202340       to_uni_latin1_general_ci   0000000180262340     strings:ctype-extra.obj
 0002:00202540       to_uni_cp1251_bulgarian_ci 0000000180262540     strings:ctype-extra.obj
 0002:00202740       ctype_keybcs2_general_ci   0000000180262740     strings:ctype-extra.obj
 0002:00202850       ctype_cp1251_general_cs    0000000180262850     strings:ctype-extra.obj
 0002:00202960       to_uni_latin1_danish_ci    0000000180262960     strings:ctype-extra.obj
 0002:00202b60       to_lower_cp850_bin         0000000180262b60     strings:ctype-extra.obj
 0002:00202c60       to_upper_cp1257_lithuanian_ci 0000000180262c60     strings:ctype-extra.obj
 0002:00202d60       to_lower_swe7_swedish_ci   0000000180262d60     strings:ctype-extra.obj
 0002:00202e60       ctype_latin2_hungarian_ci  0000000180262e60     strings:ctype-extra.obj
 0002:00202f70       ctype_greek_general_ci     0000000180262f70     strings:ctype-extra.obj
 0002:00203080       sort_order_latin1_german1_ci 0000000180263080     strings:ctype-extra.obj
 0002:00203180       to_upper_latin7_general_ci 0000000180263180     strings:ctype-extra.obj
 0002:00203280       ctype_geostd8_general_ci   0000000180263280     strings:ctype-extra.obj
 0002:00203390       to_upper_cp1256_general_ci 0000000180263390     strings:ctype-extra.obj
 0002:00203490       to_lower_koi8r_bin         0000000180263490     strings:ctype-extra.obj
 0002:00203590       to_upper_koi8u_bin         0000000180263590     strings:ctype-extra.obj
 0002:00203690       to_upper_macroman_bin      0000000180263690     strings:ctype-extra.obj
 0002:00203790       to_lower_keybcs2_general_ci 0000000180263790     strings:ctype-extra.obj
 0002:00203890       to_lower_koi8u_bin         0000000180263890     strings:ctype-extra.obj
 0002:00203990       to_upper_cp1251_ukrainian_ci 0000000180263990     strings:ctype-extra.obj
 0002:00203a90       to_upper_ascii_general_ci  0000000180263a90     strings:ctype-extra.obj
 0002:00203b90       to_lower_latin2_croatian_ci 0000000180263b90     strings:ctype-extra.obj
 0002:00203c90       to_lower_latin1_german1_ci 0000000180263c90     strings:ctype-extra.obj
 0002:00203d90       to_uni_ascii_general_ci    0000000180263d90     strings:ctype-extra.obj
 0002:00203f90       ctype_koi8r_general_ci     0000000180263f90     strings:ctype-extra.obj
 0002:002040a0       ctype_latin2_general_ci    00000001802640a0     strings:ctype-extra.obj
 0002:002041b0       to_lower_hebrew_general_ci 00000001802641b0     strings:ctype-extra.obj
 0002:002042b0       to_upper_cp1251_general_cs 00000001802642b0     strings:ctype-extra.obj
 0002:002043b0       ctype_cp1257_bin           00000001802643b0     strings:ctype-extra.obj
 0002:002044c0       to_lower_greek_bin         00000001802644c0     strings:ctype-extra.obj
 0002:002045c0       to_lower_latin7_general_ci 00000001802645c0     strings:ctype-extra.obj
 0002:002046c0       to_upper_latin1_danish_ci  00000001802646c0     strings:ctype-extra.obj
 0002:002047c0       ctype_cp1250_bin           00000001802647c0     strings:ctype-extra.obj
 0002:002048d0       to_uni_latin2_hungarian_ci 00000001802648d0     strings:ctype-extra.obj
 0002:00204ad0       to_upper_cp1250_croatian_ci 0000000180264ad0     strings:ctype-extra.obj
 0002:00204bd0       to_lower_ascii_bin         0000000180264bd0     strings:ctype-extra.obj
 0002:00204cd0       to_upper_hebrew_bin        0000000180264cd0     strings:ctype-extra.obj
 0002:00204dd0       ctype_latin7_estonian_cs   0000000180264dd0     strings:ctype-extra.obj
 0002:00204ee0       to_lower_hp8_bin           0000000180264ee0     strings:ctype-extra.obj
 0002:00204fe0       to_uni_latin5_bin          0000000180264fe0     strings:ctype-extra.obj
 0002:002051e0       sort_order_cp1250_croatian_ci 00000001802651e0     strings:ctype-extra.obj
 0002:002052e0       to_upper_latin2_bin        00000001802652e0     strings:ctype-extra.obj
 0002:002053e0       to_uni_cp866_general_ci    00000001802653e0     strings:ctype-extra.obj
 0002:002055e0       to_upper_swe7_bin          00000001802655e0     strings:ctype-extra.obj
 0002:002056e0       ctype_latin1_general_cs    00000001802656e0     strings:ctype-extra.obj
 0002:002057f0       to_lower_cp1251_general_ci 00000001802657f0     strings:ctype-extra.obj
 0002:002058f0       ctype_macce_general_ci     00000001802658f0     strings:ctype-extra.obj
 0002:00205a00       to_uni_macce_bin           0000000180265a00     strings:ctype-extra.obj
 0002:00205c00       sort_order_cp1251_bulgarian_ci 0000000180265c00     strings:ctype-extra.obj
 0002:00205d00       sort_order_latin1_general_ci 0000000180265d00     strings:ctype-extra.obj
 0002:00205e00       to_lower_dec8_bin          0000000180265e00     strings:ctype-extra.obj
 0002:00205f00       to_upper_koi8u_general_ci  0000000180265f00     strings:ctype-extra.obj
 0002:00206000       sort_order_macroman_general_ci 0000000180266000     strings:ctype-extra.obj
 0002:00206100       ctype_cp1251_bulgarian_ci  0000000180266100     strings:ctype-extra.obj
 0002:00206210       to_upper_cp1251_general_ci 0000000180266210     strings:ctype-extra.obj
 0002:00206310       ctype_latin5_bin           0000000180266310     strings:ctype-extra.obj
 0002:00206420       to_lower_macce_general_ci  0000000180266420     strings:ctype-extra.obj
 0002:00206520       to_uni_keybcs2_bin         0000000180266520     strings:ctype-extra.obj
 0002:00206720       to_upper_cp1251_bulgarian_ci 0000000180266720     strings:ctype-extra.obj
 0002:00206820       to_uni_cp1250_polish_ci    0000000180266820     strings:ctype-extra.obj
 0002:00206a20       to_upper_latin2_general_ci 0000000180266a20     strings:ctype-extra.obj
 0002:00206b20       sort_order_koi8u_general_ci 0000000180266b20     strings:ctype-extra.obj
 0002:00206c20       to_upper_geostd8_bin       0000000180266c20     strings:ctype-extra.obj
 0002:00206d20       sort_order_cp1250_general_ci 0000000180266d20     strings:ctype-extra.obj
 0002:00206e20       to_uni_armscii8_general_ci 0000000180266e20     strings:ctype-extra.obj
 0002:00207020       sort_order_cp1251_ukrainian_ci 0000000180267020     strings:ctype-extra.obj
 0002:00207120       to_upper_latin7_estonian_cs 0000000180267120     strings:ctype-extra.obj
 0002:00207220       sort_order_latin7_general_cs 0000000180267220     strings:ctype-extra.obj
 0002:00207320       ctype_dec8_swedish_ci      0000000180267320     strings:ctype-extra.obj
 0002:00207430       sort_order_cp866_general_ci 0000000180267430     strings:ctype-extra.obj
 0002:00207530       to_upper_greek_general_ci  0000000180267530     strings:ctype-extra.obj
 0002:00207630       sort_order_swe7_swedish_ci 0000000180267630     strings:ctype-extra.obj
 0002:00207730       to_uni_latin7_bin          0000000180267730     strings:ctype-extra.obj
 0002:00207930       to_uni_latin7_general_ci   0000000180267930     strings:ctype-extra.obj
 0002:00207b30       ctype_latin2_bin           0000000180267b30     strings:ctype-extra.obj
 0002:00207c40       sort_order_armscii8_general_ci 0000000180267c40     strings:ctype-extra.obj
 0002:00207d40       to_lower_cp852_bin         0000000180267d40     strings:ctype-extra.obj
 0002:00207e40       to_upper_cp850_general_ci  0000000180267e40     strings:ctype-extra.obj
 0002:00207f40       to_lower_dec8_swedish_ci   0000000180267f40     strings:ctype-extra.obj
 0002:00208040       ctype_cp866_bin            0000000180268040     strings:ctype-extra.obj
 0002:00208150       sort_order_latin7_estonian_cs 0000000180268150     strings:ctype-extra.obj
 0002:00208250       ctype_hebrew_bin           0000000180268250     strings:ctype-extra.obj
 0002:00208360       to_upper_macce_bin         0000000180268360     strings:ctype-extra.obj
 0002:00208460       to_lower_hp8_english_ci    0000000180268460     strings:ctype-extra.obj
 0002:00208560       to_upper_macce_general_ci  0000000180268560     strings:ctype-extra.obj
 0002:00208660       to_lower_hebrew_bin        0000000180268660     strings:ctype-extra.obj
 0002:00208760       sort_order_cp1251_general_ci 0000000180268760     strings:ctype-extra.obj
 0002:00208860       ctype_latin1_german1_ci    0000000180268860     strings:ctype-extra.obj
 0002:00208970       ctype_latin1_spanish_ci    0000000180268970     strings:ctype-extra.obj
 0002:00208a80       to_lower_sjis              0000000180268a80     strings:ctype-sjis.obj
 0002:00208b80       my_charset_handler         0000000180268b80     strings:ctype-sjis.obj
 0002:00208c80       my_collation_handler_sjis_japanese_ci 0000000180268c80     strings:ctype-sjis.obj
 0002:00208ce0       to_upper_sjis              0000000180268ce0     strings:ctype-sjis.obj
 0002:00208de0       unicode_to_sjis            0000000180268de0     strings:ctype-sjis.obj
 0002:00228de0       ctype_sjis                 0000000180288de0     strings:ctype-sjis.obj
 0002:00228ef0       sjis_to_unicode            0000000180288ef0     strings:ctype-sjis.obj
 0002:00248ef0       sort_order_sjis            00000001802a8ef0     strings:ctype-sjis.obj
 0002:00248ff0       my_collation_handler_sjis_bin 00000001802a8ff0     strings:ctype-sjis.obj
 0002:00249050       gbk_order                  00000001802a9050     strings:ctype-gbk.obj
 0002:00254b60       tab_gbk_uni0               00000001802b4b60     strings:ctype-gbk.obj
 0002:00264580       tab_uni_gbk6               00000001802c4580     strings:ctype-gbk.obj
 0002:0026e8d0       tab_uni_gbk3               00000001802ce8d0     strings:ctype-gbk.obj
 0002:0026eb30       my_charset_handler         00000001802ceb30     strings:ctype-gbk.obj
 0002:0026ec30       tab_uni_gbk2               00000001802cec30     strings:ctype-gbk.obj
 0002:0026f000       tab_uni_gbk0               00000001802cf000     strings:ctype-gbk.obj
 0002:0026f760       tab_uni_gbk5               00000001802cf760     strings:ctype-gbk.obj
 0002:0026f7f0       my_collation_handler_gbk_chinese_ci 00000001802cf7f0     strings:ctype-gbk.obj
 0002:0026f850       tab_uni_gbk8               00000001802cf850     strings:ctype-gbk.obj
 0002:0026fbc0       ctype_gbk                  00000001802cfbc0     strings:ctype-gbk.obj
 0002:0026fcd0       to_lower_gbk               00000001802cfcd0     strings:ctype-gbk.obj
 0002:0026fdd0       tab_uni_gbk4               00000001802cfdd0     strings:ctype-gbk.obj
 0002:0026fee0       to_upper_gbk               00000001802cfee0     strings:ctype-gbk.obj
 0002:0026ffe0       my_collation_handler_gbk_bin 00000001802cffe0     strings:ctype-gbk.obj
 0002:00270040       tab_uni_gbk7               00000001802d0040     strings:ctype-gbk.obj
 0002:00270240       tab_uni_gbk1               00000001802d0240     strings:ctype-gbk.obj
 0002:00270850       pg31                       00000001802d0850     strings:ctype-mb.obj
 0002:00270950       pg2E                       00000001802d0950     strings:ctype-mb.obj
 0002:00270a50       pg4D                       00000001802d0a50     strings:ctype-mb.obj
 0002:00270b50       pg23                       00000001802d0b50     strings:ctype-mb.obj
 0002:00270c50       pg11                       00000001802d0c50     strings:ctype-mb.obj
 0002:00270d50       pgD7                       00000001802d0d50     strings:ctype-mb.obj
 0002:00270e50       pg30                       00000001802d0e50     strings:ctype-mb.obj
 0002:00270f50       pgA4                       00000001802d0f50     strings:ctype-mb.obj
 0002:00271050       utr11_data                 00000001802d1050     strings:ctype-mb.obj
 0002:00272050       pgFF                       00000001802d2050     strings:ctype-mb.obj
 0002:00272150       pg9F                       00000001802d2150     strings:ctype-mb.obj
 0002:00272250       pgFE                       00000001802d2250     strings:ctype-mb.obj
 0002:00272350       pg2F                       00000001802d2350     strings:ctype-mb.obj
 0002:00272450       pg32                       00000001802d2450     strings:ctype-mb.obj
 0002:00272550       pgFA                       00000001802d2550     strings:ctype-mb.obj
 0002:00272650       my_xml_ctype               00000001802d2650     strings:xml.obj
 0002:00272750       configuration_table        00000001802d2750     zlib:deflate.obj
 0002:002727f0       ?lenfix@?1??fixedtables@@9@9 00000001802d27f0     zlib:inflate.obj
 0002:00272ff0       ?distfix@?1??fixedtables@@9@9 00000001802d2ff0     zlib:inflate.obj
 0002:00273370       static_dtree               00000001802d3370     zlib:trees.obj
 0002:002733f0       extra_blbits               00000001802d33f0     zlib:trees.obj
 0002:00273440       extra_lbits                00000001802d3440     zlib:trees.obj
 0002:002734c0       base_dist                  00000001802d34c0     zlib:trees.obj
 0002:00273540       base_length                00000001802d3540     zlib:trees.obj
 0002:002735c0       extra_dbits                00000001802d35c0     zlib:trees.obj
 0002:00273640       static_ltree               00000001802d3640     zlib:trees.obj
 0002:00273b10       crc_table                  00000001802d3b10     zlib:crc32.obj
 0002:00275b10       ?dext@?1??inflate_table@@9@9 00000001802d5b10     zlib:inftrees.obj
 0002:00275b50       ?dbase@?1??inflate_table@@9@9 00000001802d5b50     zlib:inftrees.obj
 0002:00275b90       ?K256@TaoCrypt@@3QBIB      00000001802d5b90     taocrypt:sha.obj
 0002:00275c90       ?K512@TaoCrypt@@3QB_KB     00000001802d5c90     taocrypt:sha.obj
 0002:00275f10       ?Spbox@TaoCrypt@@3QAY0EA@$$CBIA 00000001802d5f10     taocrypt:des.obj
 0002:0027f260       __real_ninf                00000001802df260     libucrt:log.obj
 0002:0027f270       __real_inf                 00000001802df270     libucrt:log.obj
 0002:0027f280       __real_neg_qnan            00000001802df280     libucrt:log.obj
 0002:0027f290       __real_qnanbit             00000001802df290     libucrt:log.obj
 0002:0027f2a0       __real_min_norm            00000001802df2a0     libucrt:log.obj
 0002:0027f2b0       __real_mant                00000001802df2b0     libucrt:log.obj
 0002:0027f2c0       __mask_1023                00000001802df2c0     libucrt:log.obj
 0002:0027f2d0       __mask_001                 00000001802df2d0     libucrt:log.obj
 0002:0027f2e0       __mask_mant_all8           00000001802df2e0     libucrt:log.obj
 0002:0027f2f0       __mask_mant9               00000001802df2f0     libucrt:log.obj
 0002:0027f300       __real_two                 00000001802df300     libucrt:log.obj
 0002:0027f310       __real_one                 00000001802df310     libucrt:log.obj
 0002:0027f320       __real_near_one_lt         00000001802df320     libucrt:log.obj
 0002:0027f330       __real_near_one_gt         00000001802df330     libucrt:log.obj
 0002:0027f340       __real_half                00000001802df340     libucrt:log.obj
 0002:0027f350       __mask_100                 00000001802df350     libucrt:log.obj
 0002:0027f360       __real_1_over_512          00000001802df360     libucrt:log.obj
 0002:0027f370       __real_1_over_2            00000001802df370     libucrt:log.obj
 0002:0027f380       __real_1_over_3            00000001802df380     libucrt:log.obj
 0002:0027f390       __real_1_over_4            00000001802df390     libucrt:log.obj
 0002:0027f3a0       __real_1_over_5            00000001802df3a0     libucrt:log.obj
 0002:0027f3b0       __real_1_over_6            00000001802df3b0     libucrt:log.obj
 0002:0027f3c0       __mask_1023_f              00000001802df3c0     libucrt:log.obj
 0002:0027f3d0       __mask_2045                00000001802df3d0     libucrt:log.obj
 0002:0027f3e0       __real_threshold           00000001802df3e0     libucrt:log.obj
 0002:0027f3f0       __real_notsign             00000001802df3f0     libucrt:log.obj
 0002:0027f400       __real_ca1                 00000001802df400     libucrt:log.obj
 0002:0027f410       __real_ca2                 00000001802df410     libucrt:log.obj
 0002:0027f420       __real_ca3                 00000001802df420     libucrt:log.obj
 0002:0027f430       __real_ca4                 00000001802df430     libucrt:log.obj
 0002:0027f440       __real_log2_lead           00000001802df440     libucrt:log.obj
 0002:0027f450       __real_log2_tail           00000001802df450     libucrt:log.obj
 0002:0027f460       __flag_x_zero              00000001802df460     libucrt:log.obj
 0002:0027f464       __flag_x_neg               00000001802df464     libucrt:log.obj
 0002:0027f468       __flag_x_nan               00000001802df468     libucrt:log.obj
 0002:0027f470       __flag_x_one_y_snan        00000001802df470     libucrt:pow.obj
 0002:0027f474       __flag_x_zero_z_inf        00000001802df474     libucrt:pow.obj
 0002:0027f478       __flag_x_nan               00000001802df478     libucrt:pow.obj
 0002:0027f47c       __flag_y_nan               00000001802df47c     libucrt:pow.obj
 0002:0027f480       __flag_x_nan_y_nan         00000001802df480     libucrt:pow.obj
 0002:0027f484       __flag_x_neg_y_notint      00000001802df484     libucrt:pow.obj
 0002:0027f488       __flag_z_zero              00000001802df488     libucrt:pow.obj
 0002:0027f48c       __flag_z_denormal          00000001802df48c     libucrt:pow.obj
 0002:0027f490       __flag_z_inf               00000001802df490     libucrt:pow.obj
 0002:0027f4a0       __ay_max_bound             00000001802df4a0     libucrt:pow.obj
 0002:0027f4a8       __ay_min_bound             00000001802df4a8     libucrt:pow.obj
 0002:0027f4b0       __sign_mask                00000001802df4b0     libucrt:pow.obj
 0002:0027f4b8       __sign_and_exp_mask        00000001802df4b8     libucrt:pow.obj
 0002:0027f4c0       __exp_mask                 00000001802df4c0     libucrt:pow.obj
 0002:0027f4c8       __neg_inf                  00000001802df4c8     libucrt:pow.obj
 0002:0027f4d0       __pos_inf                  00000001802df4d0     libucrt:pow.obj
 0002:0027f4d8       __pos_one                  00000001802df4d8     libucrt:pow.obj
 0002:0027f4e0       __pos_zero                 00000001802df4e0     libucrt:pow.obj
 0002:0027f4e8       __exp_mant_mask            00000001802df4e8     libucrt:pow.obj
 0002:0027f4f0       __mant_mask                00000001802df4f0     libucrt:pow.obj
 0002:0027f4f8       __ind_pattern              00000001802df4f8     libucrt:pow.obj
 0002:0027f500       __neg_qnan                 00000001802df500     libucrt:pow.obj
 0002:0027f508       __qnan                     00000001802df508     libucrt:pow.obj
 0002:0027f510       __qnan_set                 00000001802df510     libucrt:pow.obj
 0002:0027f518       __neg_one                  00000001802df518     libucrt:pow.obj
 0002:0027f520       __neg_zero                 00000001802df520     libucrt:pow.obj
 0002:0027f528       __exp_shift                00000001802df528     libucrt:pow.obj
 0002:0027f530       __exp_bias                 00000001802df530     libucrt:pow.obj
 0002:0027f538       __exp_bias_m1              00000001802df538     libucrt:pow.obj
 0002:0027f540       __yexp_53                  00000001802df540     libucrt:pow.obj
 0002:0027f548       __mant_full                00000001802df548     libucrt:pow.obj
 0002:0027f550       __1_before_mant            00000001802df550     libucrt:pow.obj
 0002:0027f558       __mask_mant_all8           00000001802df558     libucrt:pow.obj
 0002:0027f560       __mask_mant9               00000001802df560     libucrt:pow.obj
 0002:0027f570       __real_fffffffff8000000    00000001802df570     libucrt:pow.obj
 0002:0027f580       __mask_8000000000000000    00000001802df580     libucrt:pow.obj
 0002:0027f590       __real_4090040000000000    00000001802df590     libucrt:pow.obj
 0002:0027f5a0       __real_C090C80000000000    00000001802df5a0     libucrt:pow.obj
 0002:0027f5b0       __real_ninf                00000001802df5b0     libucrt:pow.obj
 0002:0027f5c0       __real_inf                 00000001802df5c0     libucrt:pow.obj
 0002:0027f5d0       __real_nan                 00000001802df5d0     libucrt:pow.obj
 0002:0027f5e0       __real_mant                00000001802df5e0     libucrt:pow.obj
 0002:0027f5f0       __mask_1023                00000001802df5f0     libucrt:pow.obj
 0002:0027f600       __mask_001                 00000001802df600     libucrt:pow.obj
 0002:0027f610       __real_log2_lead           00000001802df610     libucrt:pow.obj
 0002:0027f620       __real_log2_tail           00000001802df620     libucrt:pow.obj
 0002:0027f630       __real_two                 00000001802df630     libucrt:pow.obj
 0002:0027f640       __real_one                 00000001802df640     libucrt:pow.obj
 0002:0027f650       __real_half                00000001802df650     libucrt:pow.obj
 0002:0027f660       __mask_100                 00000001802df660     libucrt:pow.obj
 0002:0027f670       __real_1_over_2            00000001802df670     libucrt:pow.obj
 0002:0027f680       __real_1_over_3            00000001802df680     libucrt:pow.obj
 0002:0027f690       __real_1_over_4            00000001802df690     libucrt:pow.obj
 0002:0027f6a0       __real_1_over_5            00000001802df6a0     libucrt:pow.obj
 0002:0027f6b0       __real_1_over_6            00000001802df6b0     libucrt:pow.obj
 0002:0027f6c0       __real_1_over_7            00000001802df6c0     libucrt:pow.obj
 0002:0027f6d0       __mask_1023_f              00000001802df6d0     libucrt:pow.obj
 0002:0027f6e0       __mask_2045                00000001802df6e0     libucrt:pow.obj
 0002:0027f6f0       __real_threshold           00000001802df6f0     libucrt:pow.obj
 0002:0027f700       __real_notsign             00000001802df700     libucrt:pow.obj
 0002:0027f710       __log_F_inv_head           00000001802df710     libucrt:pow.obj
 0002:0027ff20       __log_F_inv_tail           00000001802dff20     libucrt:pow.obj
 0002:00280730       __denormal_threshold       00000001802e0730     libucrt:pow.obj
 0002:00280740       __enable_almost_inf        00000001802e0740     libucrt:pow.obj
 0002:00280750       __real_zero                00000001802e0750     libucrt:pow.obj
 0002:00280760       __real_smallest_denormal   00000001802e0760     libucrt:pow.obj
 0002:00280770       __denormal_tiny_threshold  00000001802e0770     libucrt:pow.obj
 0002:00280780       __real_p65536              00000001802e0780     libucrt:pow.obj
 0002:00280790       __real_m68800              00000001802e0790     libucrt:pow.obj
 0002:002807a0       __real_64_by_log2          00000001802e07a0     libucrt:pow.obj
 0002:002807b0       __real_log2_by_64_head     00000001802e07b0     libucrt:pow.obj
 0002:002807c0       __real_log2_by_64_tail     00000001802e07c0     libucrt:pow.obj
 0002:002807d0       __real_1_by_720            00000001802e07d0     libucrt:pow.obj
 0002:002807e0       __real_1_by_120            00000001802e07e0     libucrt:pow.obj
 0002:002807f0       __real_1_by_24             00000001802e07f0     libucrt:pow.obj
 0002:00280800       __real_1_by_6              00000001802e0800     libucrt:pow.obj
 0002:00280810       __real_1_by_2              00000001802e0810     libucrt:pow.obj
 0002:002822d0       $unwind$snprintf           00000001802e22d0     binding.obj
 0002:002822d0       $unwind$swprintf           00000001802e22d0     libucrt:assert.obj
 0002:002822e0       $unwind$?FunctionCallbackWrapper@imp@Nan@@YAXAEBV?$FunctionCallbackInfo@VValue@v8@@@v8@@@Z 00000001802e22e0     binding.obj
 0002:002822f0       $unwind$?New@?$Factory@VFunctionTemplate@v8@@@imp@Nan@@SA?AV?$Local@VFunctionTemplate@v8@@@v8@@P6AXAEBV?$FunctionCallbackInfo@VValue@v8@@@3@@ZV?$Local@VValue@v8@@@5@V?$Local@VSignature@v8@@@5@@Z 00000001802e22f0     binding.obj
 0002:00282300       $chain$0$?New@?$Factory@VFunctionTemplate@v8@@@imp@Nan@@SA?AV?$Local@VFunctionTemplate@v8@@@v8@@P6AXAEBV?$FunctionCallbackInfo@VValue@v8@@@3@@ZV?$Local@VValue@v8@@@5@V?$Local@VSignature@v8@@@5@@Z 00000001802e2300     binding.obj
 0002:00282314       $chain$1$?New@?$Factory@VFunctionTemplate@v8@@@imp@Nan@@SA?AV?$Local@VFunctionTemplate@v8@@@v8@@P6AXAEBV?$FunctionCallbackInfo@VValue@v8@@@3@@ZV?$Local@VValue@v8@@@5@V?$Local@VSignature@v8@@@5@@Z 00000001802e2314     binding.obj
 0002:00282328       $chain$2$?New@?$Factory@VFunctionTemplate@v8@@@imp@Nan@@SA?AV?$Local@VFunctionTemplate@v8@@@v8@@P6AXAEBV?$FunctionCallbackInfo@VValue@v8@@@3@@ZV?$Local@VValue@v8@@@5@V?$Local@VSignature@v8@@@5@@Z 00000001802e2328     binding.obj
 0002:00282338       $chain$3$?New@?$Factory@VFunctionTemplate@v8@@@imp@Nan@@SA?AV?$Local@VFunctionTemplate@v8@@@v8@@P6AXAEBV?$FunctionCallbackInfo@VValue@v8@@@3@@ZV?$Local@VValue@v8@@@5@V?$Local@VSignature@v8@@@5@@Z 00000001802e2338     binding.obj
 0002:00282348       $unwind$?on_ping@Client@@QEAAXXZ 00000001802e2348     binding.obj
 0002:00282348       $unwind$?ThrowTypeError@Nan@@YAXPEBD@Z 00000001802e2348     binding.obj
 0002:00282348       $unwind$?on_connect@Client@@QEAAXXZ 00000001802e2348     binding.obj
 0002:00282348       $unwind$?cb_close@Client@@SAXPEAUuv_handle_s@@@Z 00000001802e2348     binding.obj
 0002:00282348       $unwind$?on_idle@Client@@QEAAXXZ 00000001802e2348     binding.obj
 0002:00282348       $unwind$?ThrowError@Nan@@YAXPEBD@Z 00000001802e2348     binding.obj
 0002:00282350       $unwind$??0Utf8String@Nan@@QEAA@V?$Local@VValue@v8@@@v8@@@Z 00000001802e2350     binding.obj
 0002:00282358       $chain$0$??0Utf8String@Nan@@QEAA@V?$Local@VValue@v8@@@v8@@@Z 00000001802e2358     binding.obj
 0002:0028236c       $chain$1$??0Utf8String@Nan@@QEAA@V?$Local@VValue@v8@@@v8@@@Z 00000001802e236c     binding.obj
 0002:0028237c       $unwind$?Call@Callback@Nan@@QEBA?AV?$Local@VValue@v8@@@v8@@V?$Local@VObject@v8@@@4@HQEAV34@@Z 00000001802e237c     binding.obj
 0002:002823a0       $unwind$?SetPrototypeMethod@Nan@@YAXV?$Local@VFunctionTemplate@v8@@@v8@@PEBDP6AXAEBV?$FunctionCallbackInfo@VValue@v8@@@1@@Z@Z 00000001802e23a0     binding.obj
 0002:002823b0       $unwind$?type_case_integer@?$output_processor@_WV?$stream_output_adapter@_W@__crt_stdio_output@@V?$standard_base@_WV?$stream_output_adapter@_W@__crt_stdio_output@@@2@@__crt_stdio_output@@AEAA_NI_N@Z 00000001802e23b0     libucrt:output.obj
 0002:002823b0       $unwind$fesetenv           00000001802e23b0     libucrt:fesetenv.obj
 0002:002823b0       $unwind$mysql_next_result_start_internal 00000001802e23b0     clientlib:mysql_async.obj
 0002:002823b0       $unwind$my_net_local_init  00000001802e23b0     clientlib:libmysql.obj
 0002:002823b0       $unwind$mysql_free_result_start_internal 00000001802e23b0     clientlib:mysql_async.obj
 0002:002823b0       $unwind$mysql_store_result_start_internal 00000001802e23b0     clientlib:mysql_async.obj
 0002:002823b0       $unwind$mysql_fetch_row_start_internal 00000001802e23b0     clientlib:mysql_async.obj
 0002:002823b0       $unwind$feholdexcept       00000001802e23b0     libucrt:feholdexcept.obj
 0002:002823b0       $unwind$?WeakCallback@ObjectWrap@Nan@@CAXAEBV?$WeakCallbackInfo@VObjectWrap@Nan@@@v8@@@Z 00000001802e23b0     binding.obj
 0002:002823b0       $unwind$_malloc_base       00000001802e23b0     libucrt:malloc_base.obj
 0002:002823b0       $unwind$??0bad_array_new_length@std@@QEAA@AEBV01@@Z 00000001802e23b0     LIBCMT:throw_bad_alloc.obj
 0002:002823b0       $unwind$_purecall          00000001802e23b0     libvcruntime:purevirt.obj
 0002:002823b0       $unwind$??0bad_alloc@std@@QEAA@AEBV01@@Z 00000001802e23b0     LIBCMT:throw_bad_alloc.obj
 0002:002823b0       $unwind$mysql_store_result 00000001802e23b0     clientlib:client.obj
 0002:002823b0       $unwind$??$common_get_or_create_environment_nolock@_W@@YAPEAPEA_WXZ 00000001802e23b0     libucrt:environment_initialization.obj
 0002:002823b0       $unwind$??0exception@std@@QEAA@AEBV01@@Z 00000001802e23b0     LIBCMT:throw_bad_alloc.obj
 0002:002823b0       $unwind$__acrt_allocate_buffer_for_argv 00000001802e23b0     libucrt:argv_parsing.obj
 0002:002823b0       $unwind$??2@YAPEAX_K@Z     00000001802e23b0     LIBCMT:new_scalar.obj
 0002:002823b0       $unwind$__acrt_fp_strflt_to_string 00000001802e23b0     libucrt:_fptostr.obj
 0002:002823b0       $unwind$??_Gtype_info@@UEAAPEAXI@Z 00000001802e23b0     LIBCMT:std_type_info_static.obj
 0002:002823b0       $unwind$my_strnncollsp_binary 00000001802e23b0     strings:ctype-bin.obj
 0002:002823b0       $unwind$fegetenv           00000001802e23b0     libucrt:fegetenv.obj
 0002:002823b0       $unwind$??$common_get_or_create_environment_nolock@D@@YAPEAPEADXZ 00000001802e23b0     libucrt:environment_initialization.obj
 0002:002823b0       $unwind$initialize_pointers 00000001802e23b0     libucrt:initialization.obj
 0002:002823b0       $unwind$?DloadReleaseSectionWriteAccess@@YAXXZ 00000001802e23b0     DelayImp:delayhlp.obj
 0002:002823b0       $unwind$__raise_securityfailure 00000001802e23b0     LIBCMT:gs_report.obj
 0002:002823b0       $unwind$my_coll_parser_scan_reset_before 00000001802e23b0     strings:ctype-uca.obj
 0002:002823b0       $unwind$__acrt_can_show_message_box 00000001802e23b0     libucrt:winapi_thunks.obj
 0002:002823b0       $unwind$my_getwd           00000001802e23b0     mysys:my_getwd.obj
 0002:002823b0       $unwind$my_well_formed_char_length_utf8 00000001802e23b0     strings:ctype-utf8.obj
 0002:002823b0       $unwind$?type_case_integer@?$output_processor@_WV?$string_output_adapter@_W@__crt_stdio_output@@V?$standard_base@_WV?$string_output_adapter@_W@__crt_stdio_output@@@2@@__crt_stdio_output@@AEAA_NI_N@Z 00000001802e23b0     libucrt:output.obj
 0002:002823b0       $unwind$legacy_cond_init   00000001802e23b0     mysys:my_wincond.obj
 0002:002823b0       $unwind$__acrt_AreFileApisANSI 00000001802e23b0     libucrt:winapi_thunks.obj
 0002:002823b0       $unwind$check_native_cond_availability 00000001802e23b0     mysys:my_wincond.obj
 0002:002823b0       $unwind$__acrt_uninitialize_winapi_thunks 00000001802e23b0     libucrt:winapi_thunks.obj
 0002:002823b0       $unwind$pthread_cond_init  00000001802e23b0     mysys:my_wincond.obj
 0002:002823b0       $unwind$my_coll_parser_scan_rule 00000001802e23b0     strings:ctype-uca.obj
 0002:002823b0       $unwind$my_well_formed_char_length_utf8mb4 00000001802e23b0     strings:ctype-utf8.obj
 0002:002823b0       $unwind$my_like_range_win1250ch 00000001802e23b0     strings:ctype-win1250ch.obj
 0002:002823b0       $unwind$mysql_init         00000001802e23b0     clientlib:client.obj
 0002:002823b0       $unwind$mysql_server_init  00000001802e23b0     clientlib:libmysql.obj
 0002:002823b0       $unwind$free_old_query     00000001802e23b0     clientlib:client.obj
 0002:002823b0       $unwind$my_win_fileno      00000001802e23b0     mysys:my_winfile.obj
 0002:002823b0       $unwind$??0?$output_processor@_WV?$stream_output_adapter@_W@__crt_stdio_output@@V?$standard_base@_WV?$stream_output_adapter@_W@__crt_stdio_output@@@2@@__crt_stdio_output@@QEAA@AEBV?$stream_output_adapter@_W@1@_KQEB_WQEAU__crt_locale_pointers@@QEAD@Z 00000001802e23b0     libucrt:output.obj
 0002:002823b0       $unwind$_onexit            00000001802e23b0     LIBCMT:utility.obj
 0002:002823b0       $unwind$?Unref@ObjectWrap@Nan@@MEAAXXZ 00000001802e23b0     binding.obj
 0002:002823b0       $unwind$vio_shared_memory_shutdown 00000001802e23b0     vio:vio.obj
 0002:002823b0       $unwind$?type_case_integer@?$output_processor@DV?$stream_output_adapter@D@__crt_stdio_output@@V?$standard_base@DV?$stream_output_adapter@D@__crt_stdio_output@@@2@@__crt_stdio_output@@AEAA_NI_N@Z 00000001802e23b0     libucrt:output.obj
 0002:002823b0       $unwind$deflateEnd         00000001802e23b0     zlib:deflate.obj
 0002:002823b0       $unwind$__acrt_update_multibyte_info 00000001802e23b0     libucrt:locale_update.obj
 0002:002823b0       $unwind$__acrt_update_locale_info 00000001802e23b0     libucrt:locale_update.obj
 0002:002823b0       $unwind$?state_case_normal_tchar@?$output_processor@DV?$stream_output_adapter@D@__crt_stdio_output@@V?$standard_base@DV?$stream_output_adapter@D@__crt_stdio_output@@@2@@__crt_stdio_output@@AEAA_ND@Z 00000001802e23b0     libucrt:output.obj
 0002:002823b0       $unwind$?state_case_normal@?$output_processor@DV?$stream_output_adapter@D@__crt_stdio_output@@V?$standard_base@DV?$stream_output_adapter@D@__crt_stdio_output@@@2@@__crt_stdio_output@@AEAA_NXZ 00000001802e23b0     libucrt:output.obj
 0002:002823b0       $unwind$vio_is_connected   00000001802e23b0     vio:viosocket.obj
 0002:002823b0       $unwind$wcscpy_s           00000001802e23b0     libucrt:wcscpy_s.obj
 0002:002823b0       $unwind$mysql_free_result_start 00000001802e23b0     clientlib:mysql_async.obj
 0002:002823b0       $unwind$cli_use_result     00000001802e23b0     clientlib:client.obj
 0002:002823b0       $unwind$??0?$output_processor@DV?$stream_output_adapter@D@__crt_stdio_output@@V?$standard_base@DV?$stream_output_adapter@D@__crt_stdio_output@@@2@@__crt_stdio_output@@QEAA@AEBV?$stream_output_adapter@D@1@_KQEBDQEAU__crt_locale_pointers@@QEAD@Z 00000001802e23b0     libucrt:output.obj
 0002:002823b0       $unwind$wcscat_s           00000001802e23b0     libucrt:wcscat_s.obj
 0002:002823b0       $unwind$Balloc             00000001802e23b0     strings:dtoa.obj
 0002:002823b0       $unwind$__vcrt_freeptd     00000001802e23b0     libvcruntime:per_thread_data.obj
 0002:002823b0       $unwind$?Ref@ObjectWrap@Nan@@MEAAXXZ 00000001802e23b0     binding.obj
 0002:002823b0       $unwind$my_thread_init_common_mutex 00000001802e23b0     mysys:my_thr_init.obj
 0002:002823b0       $unwind$?exit_or_terminate_process@@YAXI@Z 00000001802e23b0     libucrt:exit.obj
 0002:002823b0       $unwind$check_if_legal_filename 00000001802e23b0     mysys:my_access.obj
 0002:002823b0       $unwind$__acrt_uninitialize_locks 00000001802e23b0     libucrt:locks.obj
 0002:002823b0       $unwind$my_osmaperr        00000001802e23b0     mysys:my_winerr.obj
 0002:002823b0       $unwind$uninitialize_allocated_memory 00000001802e23b0     libucrt:initialization.obj
 0002:002823b0       $unwind$??_GSHA@TaoCrypt@@UEAAPEAXI@Z 00000001802e23b0     mysys_ssl:my_sha1.obj
 0002:002823b0       $unwind$__scrt_release_startup_lock 00000001802e23b0     LIBCMT:utility.obj
 0002:002823b0       $unwind$??_GHASH@TaoCrypt@@UEAAPEAXI@Z 00000001802e23b0     mysys_ssl:my_sha1.obj
 0002:002823b0       $unwind$__acrt_initialize_locks 00000001802e23b0     libucrt:locks.obj
 0002:002823b0       $unwind$??0?$output_processor@DV?$string_output_adapter@D@__crt_stdio_output@@V?$standard_base@DV?$string_output_adapter@D@__crt_stdio_output@@@2@@__crt_stdio_output@@QEAA@AEBV?$string_output_adapter@D@1@_KQEBDQEAU__crt_locale_pointers@@QEAD@Z 00000001802e23b0     libucrt:output.obj
 0002:002823b0       $unwind$_clearfp           00000001802e23b0     libucrt:ieee.obj
 0002:002823b0       $unwind$__scrt_initialize_crt 00000001802e23b0     LIBCMT:utility.obj
 0002:002823b0       $unwind$__std_exception_destroy 00000001802e23b0     libvcruntime:std_exception.obj
 0002:002823b0       $unwind$__scrt_uninitialize_crt 00000001802e23b0     LIBCMT:utility.obj
 0002:002823b0       $unwind$?type_case_integer@?$output_processor@DV?$string_output_adapter@D@__crt_stdio_output@@V?$standard_base@DV?$string_output_adapter@D@__crt_stdio_output@@@2@@__crt_stdio_output@@AEAA_NI_N@Z 00000001802e23b0     libucrt:output.obj
 0002:002823b0       $unwind$__std_type_info_destroy_list 00000001802e23b0     libvcruntime:std_type_info.obj
 0002:002823b0       $unwind$_clrfp             00000001802e23b0     libucrt:fpctrl.obj
 0002:002823b0       $unwind$?load_exe_hook@@YAP6A_JXZIPEAUDelayLoadInfo@@@Z 00000001802e23b0     win_delay_load_hook.obj
 0002:002823b0       $unwind$net_clear          00000001802e23b0     clientlib:net_serv.obj
 0002:002823b0       $unwind$_set_statfp        00000001802e23b0     libucrt:fpctrl.obj
 0002:002823b0       $unwind$_fflush_nolock     00000001802e23b0     libucrt:fflush.obj
 0002:002823b0       $unwind$inflateInit2_      00000001802e23b0     zlib:inflate.obj
 0002:002823b0       $unwind$_setfpstatusword   00000001802e23b0     libucrt:_fenvutils.obj
 0002:002823b0       $unwind$get_charset_number 00000001802e23b0     mysys:charset.obj
 0002:002823b0       $unwind$deflateInit2_      00000001802e23b0     zlib:deflate.obj
 0002:002823b0       $unwind$?get_drive_number_from_path@@YA_NQEB_WAEAH@Z 00000001802e23b0     libucrt:stat.obj
 0002:002823b0       $unwind$net_realloc        00000001802e23b0     clientlib:net_serv.obj
 0002:002823b0       $unwind$dirname_length     00000001802e23b0     mysys:mf_dirname.obj
 0002:002823b0       $unwind$build_bl_tree      00000001802e23b0     zlib:trees.obj
 0002:002823b0       $unwind$??$message_box_wait_thread@_W@@YAKQEAX@Z 00000001802e23b0     libucrt:crtmbox.obj
 0002:002823b0       $unwind$strcpy_s           00000001802e23b0     libucrt:strcpy_s.obj
 0002:002823b0       $unwind$?Close@Client@@SAXAEBV?$FunctionCallbackInfo@VValue@v8@@@Nan@@@Z 00000001802e23b0     binding.obj
 0002:002823b0       $unwind$__acrt_stdio_allocate_buffer_nolock 00000001802e23b0     libucrt:_getbuf.obj
 0002:002823b0       $unwind$__acrt_stdio_free_buffer_nolock 00000001802e23b0     libucrt:_freebuf.obj
 0002:002823b0       $unwind$__acrt_uninitialize_stdio 00000001802e23b0     libucrt:_file.obj
 0002:002823b0       $unwind$__acrt_freeptd     00000001802e23b0     libucrt:per_thread_data.obj
 0002:002823b0       $unwind$_calloc_base       00000001802e23b0     libucrt:calloc_base.obj
 0002:002823b0       $unwind$??0?$output_processor@_WV?$string_output_adapter@_W@__crt_stdio_output@@V?$standard_base@_WV?$string_output_adapter@_W@__crt_stdio_output@@@2@@__crt_stdio_output@@QEAA@AEBV?$string_output_adapter@_W@1@_KQEB_WQEAU__crt_locale_pointers@@QEAD@Z 00000001802e23b0     libucrt:output.obj
 0002:002823b0       $unwind$__vcrt_uninitialize_locks 00000001802e23b0     libvcruntime:locks.obj
 0002:002823b0       $unwind$my_mb_ctype_mb     00000001802e23b0     strings:ctype-mb.obj
 0002:002823b0       $unwind$?state_case_normal@?$output_processor@DV?$string_output_adapter@D@__crt_stdio_output@@V?$standard_base@DV?$string_output_adapter@D@__crt_stdio_output@@@2@@__crt_stdio_output@@AEAA_NXZ 00000001802e23b0     libucrt:output.obj
 0002:002823b0       $unwind$??1ObjectWrap@Nan@@UEAA@XZ 00000001802e23b0     binding.obj
 0002:002823b0       $unwind$net_flush          00000001802e23b0     clientlib:net_serv.obj
 0002:002823b0       $unwind$rec_hashnr         00000001802e23b0     mysys:hash.obj
 0002:002823b0       $unwind$__vcrt_initialize_locks 00000001802e23b0     libvcruntime:locks.obj
 0002:002823b0       $unwind$mysql_fetch_row    00000001802e23b0     clientlib:client.obj
 0002:002823b0       $unwind$mysql_ping_start_internal 00000001802e23b0     clientlib:mysql_async.obj
 0002:002823b0       $unwind$_stat64            00000001802e23b0     libucrt:stat.obj
 0002:002823b0       $unwind$??_GUtf8String@Nan@@QEAAPEAXI@Z 00000001802e23b0     binding.obj
 0002:002823b8       $unwind$??$free_environment@D@@YAXQEAPEAD@Z 00000001802e23b8     libucrt:environment_initialization.obj
 0002:002823b8       $unwind$?Wrap@ObjectWrap@Nan@@IEAAXV?$Local@VObject@v8@@@v8@@@Z 00000001802e23b8     binding.obj
 0002:002823b8       $unwind$??$free_environment@_W@@YAXQEAPEA_W@Z 00000001802e23b8     libucrt:environment_initialization.obj
 0002:002823c4       $unwind$cancel_io          00000001802e23c4     vio:viosocket.obj
 0002:002823c4       $unwind$vio_get_normalized_ip 00000001802e23c4     vio:viosocket.obj
 0002:002823c4       $unwind$vio_new_win32pipe  00000001802e23c4     vio:vio.obj
 0002:002823c4       $unwind$_updatetlocinfoEx_nolock 00000001802e23c4     libucrt:locale_refcounting.obj
 0002:002823c4       $unwind$cli_flush_use_result 00000001802e23c4     clientlib:client.obj
 0002:002823c4       $unwind$__acrt_FlsAlloc    00000001802e23c4     libucrt:winapi_thunks.obj
 0002:002823c4       $unwind$__acrt_FlsFree     00000001802e23c4     libucrt:winapi_thunks.obj
 0002:002823c4       $unwind$__acrt_FlsGetValue 00000001802e23c4     libucrt:winapi_thunks.obj
 0002:002823c4       $unwind$my_coll_parser_scan_reset_sequence 00000001802e23c4     strings:ctype-uca.obj
 0002:002823c4       $unwind$my_coll_parser_scan_setting 00000001802e23c4     strings:ctype-uca.obj
 0002:002823c4       $unwind$__acrt_get_parent_window 00000001802e23c4     libucrt:winapi_thunks.obj
 0002:002823c4       $unwind$?DloadAcquireSectionWriteAccess@@YAXXZ 00000001802e23c4     DelayImp:delayhlp.obj
 0002:002823c4       $unwind$?DloadGetSRWLockFunctionPointers@@YAEXZ 00000001802e23c4     DelayImp:delayhlp.obj
 0002:002823c4       $unwind$my_coll_rules_add  00000001802e23c4     strings:ctype-uca.obj
 0002:002823c4       $unwind$my_strnncoll_8bit_bin 00000001802e23c4     strings:ctype-bin.obj
 0002:002823c4       $unwind$cli_safe_read      00000001802e23c4     clientlib:client.obj
 0002:002823c4       $unwind$my_message_stderr  00000001802e23c4     mysys:my_mess.obj
 0002:002823c4       $unwind$??_Gexception@std@@UEAAPEAXI@Z 00000001802e23c4     LIBCMT:throw_bad_alloc.obj
 0002:002823c4       $unwind$my_strnncoll_binary 00000001802e23c4     strings:ctype-bin.obj
 0002:002823c4       $unwind$vio_socket_shutdown 00000001802e23c4     vio:viosocket.obj
 0002:002823c4       $unwind$??_Gbad_array_new_length@std@@UEAAPEAXI@Z 00000001802e23c4     LIBCMT:throw_bad_alloc.obj
 0002:002823c4       $unwind$?try_cor_exit_process@@YAXI@Z 00000001802e23c4     libucrt:exit.obj
 0002:002823c4       $unwind$_fclose_nolock     00000001802e23c4     libucrt:fclose.obj
 0002:002823c4       $unwind$__vcrt_FlsAlloc    00000001802e23c4     libvcruntime:winapi_downlevel.obj
 0002:002823c4       $unwind$__vcrt_FlsFree     00000001802e23c4     libvcruntime:winapi_downlevel.obj
 0002:002823c4       $unwind$__vcrt_FlsGetValue 00000001802e23c4     libvcruntime:winapi_downlevel.obj
 0002:002823c4       $unwind$__acrt_getptd      00000001802e23c4     libucrt:per_thread_data.obj
 0002:002823c4       $unwind$?replace_current_thread_locale_nolock@@YAXQEAU__acrt_ptd@@QEAU__crt_locale_data@@@Z 00000001802e23c4     libucrt:per_thread_data.obj
 0002:002823c4       $unwind$??$common_getdcwd_user_buffer@D@@YAPEADQEAD0I@Z 00000001802e23c4     libucrt:getcwd.obj
 0002:002823c4       $unwind$??$common_getdcwd_user_buffer@_W@@YAPEA_WQEA_W0I@Z 00000001802e23c4     libucrt:getcwd.obj
 0002:002823c4       $unwind$_close_nolock      00000001802e23c4     libucrt:close.obj
 0002:002823c4       $unwind$_realloc_base      00000001802e23c4     libucrt:realloc_base.obj
 0002:002823c4       $unwind$??_GObjectWrap@Nan@@UEAAPEAXI@Z 00000001802e23c4     binding.obj
 0002:002823c4       $unwind$_callnewh          00000001802e23c4     libucrt:new_handler.obj
 0002:002823c4       $unwind$??$common_initialize_environment_nolock@D@@YAHXZ 00000001802e23c4     libucrt:environment_initialization.obj
 0002:002823c4       $unwind$??$common_initialize_environment_nolock@_W@@YAHXZ 00000001802e23c4     libucrt:environment_initialization.obj
 0002:002823c4       $unwind$cli_unbuffered_fetch 00000001802e23c4     clientlib:libmysql.obj
 0002:002823c4       $unwind$my_hash_sort_utf16_bin 00000001802e23c4     strings:ctype-ucs2.obj
 0002:002823c4       $unwind$__acrt_uninitialize_lowio 00000001802e23c4     libucrt:ioinit.obj
 0002:002823c4       $unwind$wait_overlapped_result 00000001802e23c4     vio:viopipe.obj
 0002:002823c4       $unwind$lm_init            00000001802e23c4     zlib:deflate.obj
 0002:002823c4       $unwind$??_Gbad_alloc@std@@UEAAPEAXI@Z 00000001802e23c4     LIBCMT:throw_bad_alloc.obj
 0002:002823c4       $unwind$my_copy_8bit       00000001802e23c4     strings:ctype-simple.obj
 0002:002823c4       $unwind$??$common_fullpath_user_buffer@_W@@YAPEA_WQEA_WQEB_W_K@Z 00000001802e23c4     libucrt:fullpath.obj
 0002:002823c4       $unwind$?type_case_c_tchar@?$output_processor@DV?$string_output_adapter@D@__crt_stdio_output@@V?$standard_base@DV?$string_output_adapter@D@__crt_stdio_output@@@2@@__crt_stdio_output@@AEAA_ND@Z 00000001802e23c4     libucrt:output.obj
 0002:002823c4       $unwind$??$common_xtox@K_W@@YAHKQEA_W_KI_N@Z 00000001802e23c4     libucrt:xtoa.obj
 0002:002823c4       $unwind$my_hash_free       00000001802e23c4     mysys:hash.obj
 0002:002823c4       $unwind$my_net_init        00000001802e23c4     clientlib:net_serv.obj
 0002:002823c4       $unwind$alloc_dynamic      00000001802e23c4     mysys:array.obj
 0002:002823c4       $unwind$__acrt_invoke_user_matherr 00000001802e23c4     libucrt:matherr.obj
 0002:002823c4       $unwind$?close@Client@@QEAA_N_N@Z 00000001802e23c4     binding.obj
 0002:002823c4       $unwind$?internal_islower_l@@YA_NHQEAU__crt_locale_pointers@@@Z 00000001802e23c4     libucrt:tolower_toupper.obj
 0002:002823c4       $unwind$?internal_isupper_l@@YA_NHQEAU__crt_locale_pointers@@@Z 00000001802e23c4     libucrt:tolower_toupper.obj
 0002:002823c4       $unwind$?cb_poll@Client@@SAXPEAUuv_poll_s@@HH@Z 00000001802e23c4     binding.obj
 0002:002823c4       $unwind$my_context_trampoline 00000001802e23c4     mysys:my_context.obj
 0002:002823c4       $unwind$?type_case_c_tchar@?$output_processor@DV?$stream_output_adapter@D@__crt_stdio_output@@V?$standard_base@DV?$stream_output_adapter@D@__crt_stdio_output@@@2@@__crt_stdio_output@@AEAA_ND@Z 00000001802e23c4     libucrt:output.obj
 0002:002823c4       $unwind$wcsncat_s          00000001802e23c4     libucrt:wcsncat_s.obj
 0002:002823c4       $unwind$cs_leave           00000001802e23c4     strings:ctype.obj
 0002:002823c4       $unwind$?force_decimal_point@__crt_stdio_output@@YAXPEADQEAU__crt_locale_pointers@@@Z 00000001802e23c4     libucrt:output.obj
 0002:002823c4       $unwind$strncpy_s          00000001802e23c4     libucrt:strncpy_s.obj
 0002:002823c4       $unwind$??0_LocaleUpdate@@QEAA@QEAU__crt_locale_pointers@@@Z 00000001802e23c4     libucrt:output.obj
 0002:002823c4       $unwind$__acrt_errno_map_os_error 00000001802e23c4     libucrt:errno.obj
 0002:002823c4       $unwind$__acrt_stdio_begin_temporary_buffering_nolock 00000001802e23c4     libucrt:_sftbuf.obj
 0002:002823c4       $unwind$?IsMariaDB@Client@@SAXAEBV?$FunctionCallbackInfo@VValue@v8@@@Nan@@@Z 00000001802e23c4     binding.obj
 0002:002823c4       $unwind$write_length_encoded_string4 00000001802e23c4     clientlib:client.obj
 0002:002823c4       $unwind$??_GClient@@UEAAPEAXI@Z 00000001802e23c4     binding.obj
 0002:002823c4       $unwind$my_strerror        00000001802e23c4     strings:my_vsnprintf.obj
 0002:002823c4       $unwind$my_os_charset_to_mysql_charset 00000001802e23c4     clientlib:client.obj
 0002:002823c4       $unwind$mysql_set_character_set_with_default_collation 00000001802e23c4     clientlib:client.obj
 0002:002823d0       $unwind$send_all_trees     00000001802e23d0     zlib:trees.obj
 0002:002823d0       $unwind$mysql_close_free   00000001802e23d0     clientlib:client.obj
 0002:002823d0       $unwind$__acrt_stdio_flush_and_write_wide_nolock 00000001802e23d0     libucrt:_flsbuf.obj
 0002:002823d0       $unwind$__acrt_stdio_flush_and_write_narrow_nolock 00000001802e23d0     libucrt:_flsbuf.obj
 0002:002823d0       $unwind$my_strdup          00000001802e23d0     mysys:my_malloc.obj
 0002:002823d0       $unwind$my_register_filename 00000001802e23d0     mysys:my_open.obj
 0002:002823d0       $unwind$?init@Client@@QEAA_NXZ 00000001802e23d0     binding.obj
 0002:002823d0       $unwind$my_well_formed_len_utf8mb4 00000001802e23d0     strings:ctype-utf8.obj
 0002:002823d0       $unwind$?type_case_n@?$output_processor@_WV?$string_output_adapter@_W@__crt_stdio_output@@V?$standard_base@_WV?$string_output_adapter@_W@__crt_stdio_output@@@2@@__crt_stdio_output@@AEAA_NXZ 00000001802e23d0     libucrt:output.obj
 0002:002823d0       $unwind$__acrt_stdio_flush_nolock 00000001802e23d0     libucrt:fflush.obj
 0002:002823d0       $unwind$my_coll_parser_scan_logical_position 00000001802e23d0     strings:ctype-uca.obj
 0002:002823d0       $unwind$??$common_putenv_nolock@D@@YAHQEBD0@Z 00000001802e23d0     libucrt:putenv.obj
 0002:002823d0       $unwind$?type_case_s@?$output_processor@_WV?$string_output_adapter@_W@__crt_stdio_output@@V?$standard_base@_WV?$string_output_adapter@_W@__crt_stdio_output@@@2@@__crt_stdio_output@@AEAA_NXZ 00000001802e23d0     libucrt:output.obj
 0002:002823d0       $unwind$store_param        00000001802e23d0     clientlib:libmysql.obj
 0002:002823d0       $unwind$?type_case_Z@?$output_processor@_WV?$string_output_adapter@_W@__crt_stdio_output@@V?$standard_base@_WV?$string_output_adapter@_W@__crt_stdio_output@@@2@@__crt_stdio_output@@AEAA_NXZ 00000001802e23d0     libucrt:output.obj
 0002:002823d0       $unwind$__acrt_LocaleNameToLCID 00000001802e23d0     libucrt:winapi_thunks.obj
 0002:002823d0       $unwind$__acrt_FlsSetValue 00000001802e23d0     libucrt:winapi_thunks.obj
 0002:002823d0       $unwind$my_once_strdup     00000001802e23d0     mysys:my_once.obj
 0002:002823d0       $unwind$my_once_memdup     00000001802e23d0     mysys:my_once.obj
 0002:002823d0       $unwind$mysql_fetch_row_cont 00000001802e23d0     clientlib:mysql_async.obj
 0002:002823d0       $unwind$__vcrt_getptd_noexit 00000001802e23d0     libvcruntime:per_thread_data.obj
 0002:002823d0       $unwind$_RTC_Terminate     00000001802e23d0     LIBCMT:_initsect_.obj
 0002:002823d0       $unwind$??$common_getenv_nolock@D@@YAPEADQEBD@Z 00000001802e23d0     libucrt:getenv.obj
 0002:002823d0       $unwind$_initterm_e        00000001802e23d0     libucrt:initterm.obj
 0002:002823d0       $unwind$_RTC_Initialize    00000001802e23d0     LIBCMT:_initsect_.obj
 0002:002823d0       $unwind$my_hash_sort_mb_bin 00000001802e23d0     strings:ctype-mb.obj
 0002:002823d0       $unwind$mysql_options      00000001802e23d0     clientlib:client.obj
 0002:002823d0       $unwind$memcpy_s           00000001802e23d0     libucrt:cfout.obj
 0002:002823d0       $unwind$?clear_state@Client@@QEAAXXZ 00000001802e23d0     binding.obj
 0002:002823d0       $unwind$__vcrt_FlsSetValue 00000001802e23d0     libvcruntime:winapi_downlevel.obj
 0002:002823d0       $unwind$my_well_formed_len_utf8 00000001802e23d0     strings:ctype-utf8.obj
 0002:002823d0       $unwind$_DllMainCRTStartup 00000001802e23d0     LIBCMT:dll_dllmain.obj
 0002:002823d0       $unwind$set_connect_attributes 00000001802e23d0     clientlib:client.obj
 0002:002823d0       $unwind$my_uca_alloc_contractions 00000001802e23d0     strings:ctype-uca.obj
 0002:002823d0       $unwind$__acrt_execute_uninitializers 00000001802e23d0     libucrt:shared_initialization.obj
 0002:002823d0       $unwind$get_collation_number_internal 00000001802e23d0     mysys:charset.obj
 0002:002823d0       $unwind$?type_case_Z@?$output_processor@DV?$string_output_adapter@D@__crt_stdio_output@@V?$standard_base@DV?$string_output_adapter@D@__crt_stdio_output@@@2@@__crt_stdio_output@@AEAA_NXZ 00000001802e23d0     libucrt:output.obj
 0002:002823d0       $unwind$??$common_lseek_nolock@_J@@YA_JH_JH@Z 00000001802e23d0     libucrt:lseek.obj
 0002:002823d0       $unwind$add_collation      00000001802e23d0     mysys:charset.obj
 0002:002823d0       $unwind$get_charset_number_internal 00000001802e23d0     mysys:charset.obj
 0002:002823d0       $unwind$?free_crt_array_internal@@YAXQEAPEBX_K@Z 00000001802e23d0     libucrt:inittime.obj
 0002:002823d0       $unwind$__acrt_getptd_noexit 00000001802e23d0     libucrt:per_thread_data.obj
 0002:002823d0       $unwind$_exception_enabled 00000001802e23d0     libucrt:libm_error.obj
 0002:002823d0       $unwind$cs_file_sec        00000001802e23d0     strings:ctype.obj
 0002:002823d0       $unwind$??$Reset@VObject@v8@@@?$Persistent@VObject@v8@@V?$NonCopyablePersistentTraits@VObject@v8@@@2@@Nan@@QEAAXAEBV?$Local@VObject@v8@@@v8@@@Z 00000001802e23d0     binding.obj
 0002:002823d0       $unwind$??1Client@@UEAA@XZ 00000001802e23d0     binding.obj
 0002:002823d0       $unwind$my_fclose          00000001802e23d0     mysys:my_fopen.obj
 0002:002823d0       $unwind$my_xml_scan        00000001802e23d0     strings:xml.obj
 0002:002823d0       $unwind$client_mpvio_read_packet 00000001802e23d0     clientlib:client.obj
 0002:002823d0       $unwind$?type_case_n@?$output_processor@_WV?$stream_output_adapter@_W@__crt_stdio_output@@V?$standard_base@_WV?$stream_output_adapter@_W@__crt_stdio_output@@@2@@__crt_stdio_output@@AEAA_NXZ 00000001802e23d0     libucrt:output.obj
 0002:002823d0       $unwind$?type_case_s@?$output_processor@_WV?$stream_output_adapter@_W@__crt_stdio_output@@V?$standard_base@_WV?$stream_output_adapter@_W@__crt_stdio_output@@@2@@__crt_stdio_output@@AEAA_NXZ 00000001802e23d0     libucrt:output.obj
 0002:002823d0       $unwind$?type_case_Z@?$output_processor@_WV?$stream_output_adapter@_W@__crt_stdio_output@@V?$standard_base@_WV?$stream_output_adapter@_W@__crt_stdio_output@@@2@@__crt_stdio_output@@AEAA_NXZ 00000001802e23d0     libucrt:output.obj
 0002:002823d0       $unwind$??R<lambda_9a20e10065b92b5193c3597a66cba9d4>@@QEBAHXZ 00000001802e23d0     libucrt:fputs.obj
 0002:002823d0       $unwind$my_hash_sort_8bit_bin 00000001802e23d0     strings:ctype-bin.obj
 0002:002823d0       $unwind$mysql_store_result_cont 00000001802e23d0     clientlib:mysql_async.obj
 0002:002823d0       $unwind$my_open_osfhandle  00000001802e23d0     mysys:my_winfile.obj
 0002:002823d0       $unwind$??R<lambda_ad1ced32f4ac17aa236e5ef05d6b3b7c>@@QEBAXXZ 00000001802e23d0     libucrt:mbctype.obj
 0002:002823d0       $unwind$?type_case_Z@?$output_processor@DV?$stream_output_adapter@D@__crt_stdio_output@@V?$standard_base@DV?$stream_output_adapter@D@__crt_stdio_output@@@2@@__crt_stdio_output@@AEAA_NXZ 00000001802e23d0     libucrt:output.obj
 0002:002823d0       $unwind$?type_case_s@?$output_processor@DV?$string_output_adapter@D@__crt_stdio_output@@V?$standard_base@DV?$string_output_adapter@D@__crt_stdio_output@@@2@@__crt_stdio_output@@AEAA_NXZ 00000001802e23d0     libucrt:output.obj
 0002:002823d0       $unwind$?type_case_s@?$output_processor@DV?$stream_output_adapter@D@__crt_stdio_output@@V?$standard_base@DV?$stream_output_adapter@D@__crt_stdio_output@@@2@@__crt_stdio_output@@AEAA_NXZ 00000001802e23d0     libucrt:output.obj
 0002:002823d0       $unwind$?type_case_n@?$output_processor@DV?$string_output_adapter@D@__crt_stdio_output@@V?$standard_base@DV?$string_output_adapter@D@__crt_stdio_output@@@2@@__crt_stdio_output@@AEAA_NXZ 00000001802e23d0     libucrt:output.obj
 0002:002823d0       $unwind$mysql_real_connect_cont 00000001802e23d0     clientlib:mysql_async.obj
 0002:002823d0       $unwind$?convert_to_stat_mode@@YAGHQEB_W@Z 00000001802e23d0     libucrt:stat.obj
 0002:002823d0       $unwind$?type_case_n@?$output_processor@DV?$stream_output_adapter@D@__crt_stdio_output@@V?$standard_base@DV?$stream_output_adapter@D@__crt_stdio_output@@@2@@__crt_stdio_output@@AEAA_NXZ 00000001802e23d0     libucrt:output.obj
 0002:002823e0       $unwind$?query@Client@@QEAA_NV?$Local@VValue@v8@@@v8@@_N11@Z 00000001802e23e0     binding.obj
 0002:002823f0       $chain$0$?query@Client@@QEAA_NV?$Local@VValue@v8@@@v8@@_N11@Z 00000001802e23f0     binding.obj
 0002:00282404       $chain$1$?query@Client@@QEAA_NV?$Local@VValue@v8@@@v8@@_N11@Z 00000001802e2404     binding.obj
 0002:00282414       $unwind$?do_work@Client@@QEAAXH@Z 00000001802e2414     binding.obj
 0002:00282424       $chain$2$?do_work@Client@@QEAAXH@Z 00000001802e2424     binding.obj
 0002:00282440       $chain$3$?do_work@Client@@QEAAXH@Z 00000001802e2440     binding.obj
 0002:00282450       $unwind$?on_error@Client@@QEAAX_NIPEBD@Z 00000001802e2450     binding.obj
 0002:00282468       $unwind$?on_row@Client@@QEAAXXZ 00000001802e2468     binding.obj
 0002:00282478       $chain$3$?on_row@Client@@QEAAXXZ 00000001802e2478     binding.obj
 0002:00282498       $chain$4$?on_row@Client@@QEAAXXZ 00000001802e2498     binding.obj
 0002:002824ac       $chain$5$?on_row@Client@@QEAAXXZ 00000001802e24ac     binding.obj
 0002:002824bc       $chain$6$?on_row@Client@@QEAAXXZ 00000001802e24bc     binding.obj
 0002:002824cc       $unwind$?on_rows@Client@@QEAAXXZ 00000001802e24cc     binding.obj
 0002:002824dc       $chain$2$?on_rows@Client@@QEAAXXZ 00000001802e24dc     binding.obj
 0002:002824f8       $chain$4$?on_rows@Client@@QEAAXXZ 00000001802e24f8     binding.obj
 0002:00282510       $chain$5$?on_rows@Client@@QEAAXXZ 00000001802e2510     binding.obj
 0002:00282520       $chain$6$?on_rows@Client@@QEAAXXZ 00000001802e2520     binding.obj
 0002:00282530       $unwind$?on_resultinfo@Client@@QEAAXPEAUst_mysql_field@@I@Z 00000001802e2530     binding.obj
 0002:00282540       $chain$4$?on_resultinfo@Client@@QEAAXPEAUst_mysql_field@@I@Z 00000001802e2540     binding.obj
 0002:00282564       $chain$5$?on_resultinfo@Client@@QEAAXPEAUst_mysql_field@@I@Z 00000001802e2564     binding.obj
 0002:00282578       $chain$6$?on_resultinfo@Client@@QEAAXPEAUst_mysql_field@@I@Z 00000001802e2578     binding.obj
 0002:00282588       $unwind$?on_resultend@Client@@QEAAXXZ 00000001802e2588     binding.obj
 0002:002825a4       $unwind$?apply_config@Client@@QEAA_NV?$Local@VObject@v8@@@v8@@@Z 00000001802e25a4     binding.obj
 0002:002825b8       $chain$2$?apply_config@Client@@QEAA_NV?$Local@VObject@v8@@@v8@@@Z 00000001802e25b8     binding.obj
 0002:002825d4       $chain$3$?apply_config@Client@@QEAA_NV?$Local@VObject@v8@@@v8@@@Z 00000001802e25d4     binding.obj
 0002:002825e8       $chain$4$?apply_config@Client@@QEAA_NV?$Local@VObject@v8@@@v8@@@Z 00000001802e25e8     binding.obj
 0002:002825f8       $chain$5$?apply_config@Client@@QEAA_NV?$Local@VObject@v8@@@v8@@@Z 00000001802e25f8     binding.obj
 0002:00282608       $unwind$?New@Client@@SAXAEBV?$FunctionCallbackInfo@VValue@v8@@@Nan@@@Z 00000001802e2608     binding.obj
 0002:00282614       $chain$0$?New@Client@@SAXAEBV?$FunctionCallbackInfo@VValue@v8@@@Nan@@@Z 00000001802e2614     binding.obj
 0002:00282628       $chain$2$?New@Client@@SAXAEBV?$FunctionCallbackInfo@VValue@v8@@@Nan@@@Z 00000001802e2628     binding.obj
 0002:00282628       $chain$11$?New@Client@@SAXAEBV?$FunctionCallbackInfo@VValue@v8@@@Nan@@@Z 00000001802e2628     binding.obj
 0002:0028263c       $chain$6$?New@Client@@SAXAEBV?$FunctionCallbackInfo@VValue@v8@@@Nan@@@Z 00000001802e263c     binding.obj
 0002:0028265c       $chain$7$?New@Client@@SAXAEBV?$FunctionCallbackInfo@VValue@v8@@@Nan@@@Z 00000001802e265c     binding.obj
 0002:00282674       $chain$8$?New@Client@@SAXAEBV?$FunctionCallbackInfo@VValue@v8@@@Nan@@@Z 00000001802e2674     binding.obj
 0002:00282688       $chain$9$?New@Client@@SAXAEBV?$FunctionCallbackInfo@VValue@v8@@@Nan@@@Z 00000001802e2688     binding.obj
 0002:00282698       $chain$12$?New@Client@@SAXAEBV?$FunctionCallbackInfo@VValue@v8@@@Nan@@@Z 00000001802e2698     binding.obj
 0002:002826a8       $unwind$my_coll_lexem_next 00000001802e26a8     strings:ctype-uca.obj
 0002:002826a8       $unwind$iswctype           00000001802e26a8     libucrt:iswctype.obj
 0002:002826a8       $unwind$inflateReset2      00000001802e26a8     zlib:inflate.obj
 0002:002826a8       $unwind$__acrt_is_packaged_app 00000001802e26a8     libucrt:winapi_thunks.obj
 0002:002826a8       $unwind$?SetConfig@Client@@SAXAEBV?$FunctionCallbackInfo@VValue@v8@@@Nan@@@Z 00000001802e26a8     binding.obj
 0002:002826a8       $unwind$mysql_get_server_version 00000001802e26a8     clientlib:client.obj
 0002:002826a8       $unwind$?Connect@Client@@SAXAEBV?$FunctionCallbackInfo@VValue@v8@@@Nan@@@Z 00000001802e26a8     binding.obj
 0002:002826b4       $unwind$_getfpcontrolword  00000001802e26b4     libucrt:_fenvutils.obj
 0002:002826b4       $unwind$_fgetc_nolock      00000001802e26b4     libucrt:fgetc.obj
 0002:002826b4       $unwind$mysql_next_result  00000001802e26b4     clientlib:libmysql.obj
 0002:002826b4       $unwind$_getfpstatusword   00000001802e26b4     libucrt:_fenvutils.obj
 0002:002826b4       $unwind$__acrt_uninitialize_ptd 00000001802e26b4     libucrt:per_thread_data.obj
 0002:002826b4       $unwind$__dcrt_terminate_console_output 00000001802e26b4     libucrt:initcon.obj
 0002:002826b4       $unwind$__acrt_initialize_ptd 00000001802e26b4     libucrt:per_thread_data.obj
 0002:002826b4       $unwind$?dllmain_crt_dispatch@@YAHQEAUHINSTANCE__@@KQEAX@Z 00000001802e26b4     LIBCMT:dll_dllmain.obj
 0002:002826b4       $unwind$cli_read_statistics 00000001802e26b4     clientlib:libmysql.obj
 0002:002826b4       $unwind$?state_case_normal_tchar@?$output_processor@DV?$string_output_adapter@D@__crt_stdio_output@@V?$standard_base@DV?$string_output_adapter@D@__crt_stdio_output@@@2@@__crt_stdio_output@@AEAA_ND@Z 00000001802e26b4     libucrt:output.obj
 0002:002826b4       $unwind$my_scan_weight_utf8_general_ci 00000001802e26b4     strings:ctype-utf8.obj
 0002:002826b4       $unwind$tolower            00000001802e26b4     libucrt:tolower_toupper.obj
 0002:002826b4       $unwind$toupper            00000001802e26b4     libucrt:tolower_toupper.obj
 0002:002826b4       $unwind$?state_case_size@?$output_processor@DV?$string_output_adapter@D@__crt_stdio_output@@V?$standard_base@DV?$string_output_adapter@D@__crt_stdio_output@@@2@@__crt_stdio_output@@AEAA_NXZ 00000001802e26b4     libucrt:output.obj
 0002:002826b4       $unwind$atexit             00000001802e26b4     LIBCMT:utility.obj
 0002:002826b4       $unwind$my_mb_wc_gb2312    00000001802e26b4     strings:ctype-gb2312.obj
 0002:002826b4       $unwind$vio_is_connected_shared_memory 00000001802e26b4     vio:vioshm.obj
 0002:002826b4       $unwind$my_wc_mb_gb2312    00000001802e26b4     strings:ctype-gb2312.obj
 0002:002826b4       $unwind$__scrt_acquire_startup_lock 00000001802e26b4     LIBCMT:utility.obj
 0002:002826b4       $unwind$_fileno            00000001802e26b4     libucrt:fileno.obj
 0002:002826b4       $unwind$my_thread_global_init 00000001802e26b4     mysys:my_thr_init.obj
 0002:002826b4       $unwind$my_wc_mb_big5      00000001802e26b4     strings:ctype-big5.obj
 0002:002826b4       $unwind$__vcrt_freefls     00000001802e26b4     libvcruntime:per_thread_data.obj
 0002:002826b4       $unwind$__scrt_dllmain_before_initialize_c 00000001802e26b4     LIBCMT:utility.obj
 0002:002826b4       $unwind$__scrt_dllmain_after_initialize_c 00000001802e26b4     LIBCMT:utility.obj
 0002:002826b4       $unwind$_isatty            00000001802e26b4     libucrt:isatty.obj
 0002:002826b4       $unwind$my_ismbchar_utf8   00000001802e26b4     strings:ctype-utf8.obj
 0002:002826b4       $unwind$my_coll_init_simple 00000001802e26b4     strings:ctype-simple.obj
 0002:002826b4       $unwind$_set_errno_from_matherr 00000001802e26b4     libucrt:fpexcept.obj
 0002:002826b4       $unwind$vio_should_retry   00000001802e26b4     vio:viosocket.obj
 0002:002826b4       $unwind$__fpe_flt_rounds   00000001802e26b4     libucrt:fegetround.obj
 0002:002826b4       $unwind$_findclose         00000001802e26b4     libucrt:findfile.obj
 0002:002826b4       $unwind$deflateResetKeep   00000001802e26b4     zlib:deflate.obj
 0002:002826b4       $unwind$vio_was_timeout    00000001802e26b4     vio:viosocket.obj
 0002:002826b4       $unwind$_get_osfhandle     00000001802e26b4     libucrt:osfinfo.obj
 0002:002826b4       $unwind$?state_case_size@?$output_processor@_WV?$stream_output_adapter@_W@__crt_stdio_output@@V?$standard_base@_WV?$stream_output_adapter@_W@__crt_stdio_output@@@2@@__crt_stdio_output@@AEAA_NXZ 00000001802e26b4     libucrt:output.obj
 0002:002826b4       $unwind$is_filename_allowed 00000001802e26b4     mysys:my_access.obj
 0002:002826b4       $unwind$_get_fmode         00000001802e26b4     libucrt:setmode.obj
 0002:002826b4       $unwind$_get_daylight      00000001802e26b4     libucrt:timeset.obj
 0002:002826b4       $unwind$??$uninitialize_environment_internal@_W@@YAXAEAPEAPEA_W@Z 00000001802e26b4     libucrt:environment_initialization.obj
 0002:002826b4       $unwind$test_if_hard_path  00000001802e26b4     mysys:my_getwd.obj
 0002:002826b4       $unwind$_get_dstbias       00000001802e26b4     libucrt:timeset.obj
 0002:002826b4       $unwind$_get_timezone      00000001802e26b4     libucrt:timeset.obj
 0002:002826b4       $unwind$__scrt_dllmain_uninitialize_c 00000001802e26b4     LIBCMT:utility.obj
 0002:002826b4       $unwind$_statfp            00000001802e26b4     libucrt:fpctrl.obj
 0002:002826b4       $unwind$??$uninitialize_environment_internal@D@@YAXAEAPEAPEAD@Z 00000001802e26b4     libucrt:environment_initialization.obj
 0002:002826b4       $unwind$my_charlen_utf16   00000001802e26b4     strings:ctype-ucs2.obj
 0002:002826b4       $unwind$_wcsnicoll         00000001802e26b4     libucrt:wcsnicol.obj
 0002:002826b4       $unwind$__acrt_release_locale_ref 00000001802e26b4     libucrt:locale_refcounting.obj
 0002:002826b4       $unwind$my_ismbchar_utf16  00000001802e26b4     strings:ctype-ucs2.obj
 0002:002826b4       $unwind$__acrt_initialize_heap 00000001802e26b4     libucrt:heap_handle.obj
 0002:002826b4       $unwind$my_charlen_filename 00000001802e26b4     strings:ctype-utf8.obj
 0002:002826b4       $unwind$my_ismbchar_utf8mb4 00000001802e26b4     strings:ctype-utf8.obj
 0002:002826b4       $unwind$__acrt_initialize_multibyte 00000001802e26b4     libucrt:mbctype.obj
 0002:002826b4       $unwind$my_lengthsp_8bit   00000001802e26b4     strings:ctype-simple.obj
 0002:002826b4       $unwind$__dcrt_uninitialize_environments_nolock 00000001802e26b4     libucrt:environment_initialization.obj
 0002:002826b4       $unwind$my_ismbchar_filename 00000001802e26b4     strings:ctype-utf8.obj
 0002:002826b4       $unwind$__doserrno         00000001802e26b4     libucrt:errno.obj
 0002:002826b4       $unwind$_errno             00000001802e26b4     libucrt:errno.obj
 0002:002826b4       $unwind$_msize             00000001802e26b4     libucrt:msize.obj
 0002:002826b4       $unwind$?state_case_size@?$output_processor@DV?$stream_output_adapter@D@__crt_stdio_output@@V?$standard_base@DV?$stream_output_adapter@D@__crt_stdio_output@@@2@@__crt_stdio_output@@AEAA_NXZ 00000001802e26b4     libucrt:output.obj
 0002:002826b4       $unwind$_invoke_watson     00000001802e26b4     libucrt:invalid_parameter.obj
 0002:002826b4       $unwind$_wcsicmp           00000001802e26b4     libucrt:wcsicmp.obj
 0002:002826b4       $unwind$__acrt_DownlevelLocaleNameToLCID 00000001802e26b4     libucrt:lcidtoname_downlevel.obj
 0002:002826b4       $unwind$_set_error_mode    00000001802e26b4     libucrt:set_error_mode.obj
 0002:002826b4       $unwind$?Pause@Client@@SAXAEBV?$FunctionCallbackInfo@VValue@v8@@@Nan@@@Z 00000001802e26b4     binding.obj
 0002:002826b4       $unwind$?state_case_size@?$output_processor@_WV?$string_output_adapter@_W@__crt_stdio_output@@V?$standard_base@_WV?$string_output_adapter@_W@__crt_stdio_output@@@2@@__crt_stdio_output@@AEAA_NXZ 00000001802e26b4     libucrt:output.obj
 0002:002826b4       $unwind$?initialize_multibyte@@YAHXZ 00000001802e26b4     libucrt:multibyte_initializer.obj
 0002:002826b4       $unwind$___lc_codepage_func 00000001802e26b4     libucrt:initctype.obj
 0002:002826b4       $unwind$?Resume@Client@@SAXAEBV?$FunctionCallbackInfo@VValue@v8@@@Nan@@@Z 00000001802e26b4     binding.obj
 0002:002826b4       $unwind$?Ping@Client@@SAXAEBV?$FunctionCallbackInfo@VValue@v8@@@Nan@@@Z 00000001802e26b4     binding.obj
 0002:002826b4       $unwind$__pctype_func      00000001802e26b4     libucrt:ctype.obj
 0002:002826b4       $unwind$__scrt_dllmain_uninitialize_critical 00000001802e26b4     LIBCMT:utility.obj
 0002:002826b4       $unwind$uninitialize_environment 00000001802e26b4     libucrt:initialization.obj
 0002:002826b4       $unwind$__scrt_dllmain_crt_thread_attach 00000001802e26b4     LIBCMT:utility.obj
 0002:002826b4       $unwind$__scrt_dllmain_crt_thread_detach 00000001802e26b4     LIBCMT:utility.obj
 0002:002826b4       $unwind$initialize_c       00000001802e26b4     libucrt:initialization.obj
 0002:002826b4       $unwind$__acrt_thread_detach 00000001802e26b4     libucrt:initialization.obj
 0002:002826b4       $unwind$my_az_free         00000001802e26b4     mysys:my_compress.obj
 0002:002826b4       $unwind$__acrt_thread_attach 00000001802e26b4     libucrt:initialization.obj
 0002:002826b4       $unwind$__GSHandlerCheck   00000001802e26b4     LIBCMT:_gshandler_.obj
 0002:002826b4       $unwind$my_scan_weight_utf8mb4_general_ci 00000001802e26b4     strings:ctype-utf8.obj
 0002:002826b4       $unwind$my_coll_parser_scan_shift 00000001802e26b4     strings:ctype-uca.obj
 0002:002826b4       $unwind$__acrt_initialize_command_line 00000001802e26b4     libucrt:argv_data.obj
 0002:002826b4       $unwind$my_wc_mb_euc_kr    00000001802e26b4     strings:ctype-euc_kr.obj
 0002:002826b4       $unwind$__acrt_uninitialize_critical 00000001802e26b4     libucrt:initialization.obj
 0002:002826b4       $unwind$__vcrt_initialize  00000001802e26b4     libvcruntime:initialization.obj
 0002:002826b4       $unwind$__vcrt_uninitialize 00000001802e26b4     libvcruntime:initialization.obj
 0002:002826b4       $unwind$__vcrt_uninitialize_critical 00000001802e26b4     libvcruntime:initialization.obj
 0002:002826b4       $unwind$__vcrt_thread_attach 00000001802e26b4     libvcruntime:initialization.obj
 0002:002826b4       $unwind$__report_rangecheckfailure 00000001802e26b4     LIBCMT:gs_report.obj
 0002:002826b4       $unwind$__vcrt_thread_detach 00000001802e26b4     libvcruntime:initialization.obj
 0002:002826b4       $unwind$?validate_stream_is_ansi_if_required@?$__acrt_stdio_char_traits@D@@SA_NQEAU_iobuf@@@Z 00000001802e26b4     libucrt:output.obj
 0002:002826b4       $unwind$my_str_malloc_default 00000001802e26b4     strings:str_alloc.obj
 0002:002826b4       $unwind$__vcrt_uninitialize_ptd 00000001802e26b4     libvcruntime:per_thread_data.obj
 0002:002826b4       $unwind$_strnicmp          00000001802e26b4     libucrt:strnicmp.obj
 0002:002826b4       $unwind$_stricmp           00000001802e26b4     libucrt:stricmp.obj
 0002:002826b4       $unwind$abort              00000001802e26b4     libucrt:abort.obj
 0002:002826b4       $unwind$my_coll_parser_scan_term 00000001802e26b4     strings:ctype-uca.obj
 0002:002826b4       $unwind$my_wc_mb_gbk       00000001802e26b4     strings:ctype-gbk.obj
 0002:002826b4       $unwind$__scrt_initialize_default_local_stdio_options 00000001802e26b4     LIBCMT:default_local_stdio_options.obj
 0002:002826b4       $unwind$my_free            00000001802e26b4     mysys:my_malloc.obj
 0002:002826b4       $unwind$__vcrt_initialize_ptd 00000001802e26b4     libvcruntime:per_thread_data.obj
 0002:002826bc       $unwind$vio_read_pipe      00000001802e26bc     vio:viopipe.obj
 0002:002826bc       $unwind$vio_write_pipe     00000001802e26bc     vio:viopipe.obj
 0002:002826bc       $unwind$?LastInsertId@Client@@SAXAEBV?$FunctionCallbackInfo@VValue@v8@@@Nan@@@Z 00000001802e26bc     binding.obj
 0002:002826bc       $unwind$??$copy_wide_to_narrow_find_data@U_wfinddata64i32_t@@U_finddata64i32_t@@@@YA_NAEBU_wfinddata64i32_t@@AEAU_finddata64i32_t@@@Z 00000001802e26bc     libucrt:findfile.obj
 0002:002826c8       $unwind$?Query@Client@@SAXAEBV?$FunctionCallbackInfo@VValue@v8@@@Nan@@@Z 00000001802e26c8     binding.obj
 0002:002826d4       $chain$2$?Query@Client@@SAXAEBV?$FunctionCallbackInfo@VValue@v8@@@Nan@@@Z 00000001802e26d4     binding.obj
 0002:002826f0       $chain$3$?Query@Client@@SAXAEBV?$FunctionCallbackInfo@VValue@v8@@@Nan@@@Z 00000001802e26f0     binding.obj
 0002:00282700       $unwind$?Escape@Client@@SAXAEBV?$FunctionCallbackInfo@VValue@v8@@@Nan@@@Z 00000001802e2700     binding.obj
 0002:00282718       $chain$1$?Escape@Client@@SAXAEBV?$FunctionCallbackInfo@VValue@v8@@@Nan@@@Z 00000001802e2718     binding.obj
 0002:00282730       $chain$2$?Escape@Client@@SAXAEBV?$FunctionCallbackInfo@VValue@v8@@@Nan@@@Z 00000001802e2730     binding.obj
 0002:00282744       $chain$3$?Escape@Client@@SAXAEBV?$FunctionCallbackInfo@VValue@v8@@@Nan@@@Z 00000001802e2744     binding.obj
 0002:00282754       $unwind$?ServerVersion@Client@@SAXAEBV?$FunctionCallbackInfo@VValue@v8@@@Nan@@@Z 00000001802e2754     binding.obj
 0002:0028275c       $chain$0$?ServerVersion@Client@@SAXAEBV?$FunctionCallbackInfo@VValue@v8@@@Nan@@@Z 00000001802e275c     binding.obj
 0002:00282770       $chain$1$?ServerVersion@Client@@SAXAEBV?$FunctionCallbackInfo@VValue@v8@@@Nan@@@Z 00000001802e2770     binding.obj
 0002:00282780       $unwind$?Initialize@Client@@SAXV?$Local@VObject@v8@@@v8@@@Z 00000001802e2780     binding.obj
 0002:00282790       $unwind$?Escape@@YAXAEBV?$FunctionCallbackInfo@VValue@v8@@@Nan@@@Z 00000001802e2790     binding.obj
 0002:002827a4       $chain$0$?Escape@@YAXAEBV?$FunctionCallbackInfo@VValue@v8@@@Nan@@@Z 00000001802e27a4     binding.obj
 0002:002827b8       $chain$1$?Escape@@YAXAEBV?$FunctionCallbackInfo@VValue@v8@@@Nan@@@Z 00000001802e27b8     binding.obj
 0002:002827cc       $chain$2$?Escape@@YAXAEBV?$FunctionCallbackInfo@VValue@v8@@@Nan@@@Z 00000001802e27cc     binding.obj
 0002:002827dc       $chain$3$?Escape@@YAXAEBV?$FunctionCallbackInfo@VValue@v8@@@Nan@@@Z 00000001802e27dc     binding.obj
 0002:002827ec       $unwind$vio_is_connected_pipe 00000001802e27ec     vio:viopipe.obj
 0002:002827ec       $unwind$strtol             00000001802e27ec     libucrt:strtox.obj
 0002:002827ec       $unwind$wcstol             00000001802e27ec     libucrt:strtox.obj
 0002:002827ec       $unwind$convert_dirname    00000001802e27ec     mysys:mf_dirname.obj
 0002:002827ec       $unwind$vio_close_pipe     00000001802e27ec     vio:viopipe.obj
 0002:002827ec       $unwind$mysql_escape_string_ex 00000001802e27ec     clientlib:libmysql.obj
 0002:002827ec       $unwind$client_mpvio_write_packet 00000001802e27ec     clientlib:client.obj
 0002:002827ec       $unwind$cli_list_fields    00000001802e27ec     clientlib:libmysql.obj
 0002:002827ec       $unwind$??$common_xtox_s@K_W@@YAHKQEA_W_KI_N@Z 00000001802e27ec     libucrt:xtoa.obj
 0002:002827ec       $unwind$cli_report_progress 00000001802e27ec     clientlib:client.obj
 0002:002827ec       $unwind$strtoul            00000001802e27ec     libucrt:strtox.obj
 0002:002827ec       $unwind$?Version@@YAXAEBV?$FunctionCallbackInfo@VValue@v8@@@Nan@@@Z 00000001802e27ec     binding.obj
 0002:002827f4       $unwind$init               00000001802e27f4     binding.obj
 0002:002827fc       $unwind$my_snprintf_utf32  00000001802e27fc     strings:ctype-ucs2.obj
 0002:002827fc       $unwind$??$Unwrap@VClient@@@ObjectWrap@Nan@@SAPEAVClient@@V?$Local@VObject@v8@@@v8@@@Z 00000001802e27fc     binding.obj
 0002:002827fc       $unwind$my_snprintf_mb2    00000001802e27fc     strings:ctype-ucs2.obj
 0002:00282804       $unwind$my_connect_async   00000001802e2804     clientlib:mysql_async.obj
 0002:00282818       $unwind$my_send_async      00000001802e2818     clientlib:mysql_async.obj
 0002:00282818       $unwind$_chsize_nolock     00000001802e2818     libucrt:chsize.obj
 0002:00282818       $unwind$?write_string@?$stream_output_adapter@D@__crt_stdio_output@@QEBAXQEBDHQEAH1@Z 00000001802e2818     libucrt:output.obj
 0002:00282818       $unwind$my_recv_async      00000001802e2818     clientlib:mysql_async.obj
 0002:00282830       $unwind$mysql_real_connect_start_internal 00000001802e2830     clientlib:mysql_async.obj
 0002:00282830       $unwind$get_charsets_dir   00000001802e2830     mysys:charset.obj
 0002:00282830       $unwind$_isleadbyte_l      00000001802e2830     libucrt:_wctype.obj
 0002:00282830       $unwind$iscntrl            00000001802e2830     libucrt:_ctype.obj
 0002:00282830       $unwind$?getSystemCP@@YAHH@Z 00000001802e2830     libucrt:mbctype.obj
 0002:00282830       $unwind$isspace            00000001802e2830     libucrt:_ctype.obj
 0002:00282830       $unwind$mysql_real_query   00000001802e2830     clientlib:client.obj
 0002:00282830       $unwind$isdigit            00000001802e2830     libucrt:_ctype.obj
 0002:00282838       $unwind$_strnicoll_l       00000001802e2838     libucrt:strnicol.obj
 0002:00282838       $unwind$my_wildcmp_mb_impl 00000001802e2838     strings:ctype-mb.obj
 0002:00282838       $unwind$mysql_real_connect_start 00000001802e2838     clientlib:mysql_async.obj
 0002:0028284c       $unwind$mysql_real_query_start_internal 00000001802e284c     clientlib:mysql_async.obj
 0002:0028284c       $unwind$_mbsdec_l          00000001802e284c     libucrt:mbsdec.obj
 0002:0028284c       $unwind$mysql_ping         00000001802e284c     clientlib:libmysql.obj
 0002:00282858       $unwind$mysql_fetch_row_start 00000001802e2858     clientlib:mysql_async.obj
 0002:00282864       $chain$0$mysql_fetch_row_start 00000001802e2864     clientlib:mysql_async.obj
 0002:00282878       $chain$1$mysql_fetch_row_start 00000001802e2878     clientlib:mysql_async.obj
 0002:0028288c       $chain$2$mysql_fetch_row_start 00000001802e288c     clientlib:mysql_async.obj
 0002:0028289c       $chain$4$mysql_fetch_row_start 00000001802e289c     clientlib:mysql_async.obj
 0002:0028289c       $chain$6$mysql_fetch_row_start 00000001802e289c     clientlib:mysql_async.obj
 0002:002828b0       $unwind$mysql_store_result_start 00000001802e28b0     clientlib:mysql_async.obj
 0002:002828b0       $unwind$mysql_ping_start   00000001802e28b0     clientlib:mysql_async.obj
 0002:002828b0       $unwind$mysql_next_result_start 00000001802e28b0     clientlib:mysql_async.obj
 0002:002828c0       $chain$1$mysql_free_result_start 00000001802e28c0     clientlib:mysql_async.obj
 0002:002828d8       $chain$4$mysql_free_result_start 00000001802e28d8     clientlib:mysql_async.obj
 0002:002828d8       $chain$2$mysql_free_result_start 00000001802e28d8     clientlib:mysql_async.obj
 0002:002828ec       $chain$5$mysql_free_result_start 00000001802e28ec     clientlib:mysql_async.obj
 0002:002828fc       $unwind$sprintf            00000001802e28fc     clientlib:client.obj
 0002:002828fc       $unwind$fwprintf           00000001802e28fc     libucrt:assert.obj
 0002:002828fc       $unwind$fprintf            00000001802e28fc     clientlib:client.obj
 0002:00282908       $unwind$set_mysql_extended_error 00000001802e2908     clientlib:client.obj
 0002:00282914       $unwind$create_named_pipe  00000001802e2914     clientlib:client.obj
 0002:00282934       $unwind$create_shared_memory 00000001802e2934     clientlib:client.obj
 0002:00282950       $chain$1$create_shared_memory 00000001802e2950     clientlib:client.obj
 0002:00282964       $chain$3$create_shared_memory 00000001802e2964     clientlib:client.obj
 0002:0028297c       $chain$4$create_shared_memory 00000001802e297c     clientlib:client.obj
 0002:00282990       $chain$5$create_shared_memory 00000001802e2990     clientlib:client.obj
 0002:002829a0       $chain$6$create_shared_memory 00000001802e29a0     clientlib:client.obj
 0002:002829b0       $unwind$__acrt_locale_free_numeric 00000001802e29b0     libucrt:initnum.obj
 0002:002829b0       $unwind$__acrt_locale_free_lc_time_if_unreferenced 00000001802e29b0     libucrt:locale_refcounting.obj
 0002:002829b0       $unwind$?destroy_fls@@YAXPEAX@Z 00000001802e29b0     libucrt:per_thread_data.obj
 0002:002829b0       $unwind$free_rows          00000001802e29b0     clientlib:client.obj
 0002:002829b0       $unwind$_free_base         00000001802e29b0     libucrt:free_base.obj
 0002:002829b0       $unwind$default_local_infile_end 00000001802e29b0     clientlib:libmysql.obj
 0002:002829b8       $unwind$cli_advanced_command 00000001802e29b8     clientlib:client.obj
 0002:002829cc       $chain$1$cli_advanced_command 00000001802e29cc     clientlib:client.obj
 0002:002829e4       $chain$5$cli_advanced_command 00000001802e29e4     clientlib:client.obj
 0002:002829e4       $chain$3$cli_advanced_command 00000001802e29e4     clientlib:client.obj
 0002:002829fc       $chain$6$cli_advanced_command 00000001802e29fc     clientlib:client.obj
 0002:00282a0c       $chain$1$cli_report_progress 00000001802e2a0c     clientlib:client.obj
 0002:00282a24       $chain$3$cli_report_progress 00000001802e2a24     clientlib:client.obj
 0002:00282a3c       $chain$4$cli_report_progress 00000001802e2a3c     clientlib:client.obj
 0002:00282a4c       $unwind$end_server         00000001802e2a4c     clientlib:client.obj
 0002:00282a58       $chain$0$end_server        00000001802e2a58     clientlib:client.obj
 0002:00282a6c       $chain$1$end_server        00000001802e2a6c     clientlib:client.obj
 0002:00282a7c       $unwind$mysql_free_result  00000001802e2a7c     clientlib:client.obj
 0002:00282a7c       $unwind$__acrt_locale_free_monetary 00000001802e2a7c     libucrt:initmon.obj
 0002:00282a7c       $unwind$vio_delete         00000001802e2a7c     vio:vio.obj
 0002:00282a84       $chain$0$mysql_free_result 00000001802e2a84     clientlib:client.obj
 0002:00282a98       $chain$1$mysql_free_result 00000001802e2a98     clientlib:client.obj
 0002:00282aac       $chain$2$mysql_free_result 00000001802e2aac     clientlib:client.obj
 0002:00282abc       $chain$3$mysql_free_result 00000001802e2abc     clientlib:client.obj
 0002:00282acc       $unwind$my_casedn_str_utf8mb4 00000001802e2acc     strings:ctype-utf8.obj
 0002:00282acc       $unwind$multadd            00000001802e2acc     strings:dtoa.obj
 0002:00282acc       $unwind$?parse_int_from_format_string@?$output_processor@_WV?$string_output_adapter@_W@__crt_stdio_output@@V?$standard_base@_WV?$string_output_adapter@_W@__crt_stdio_output@@@2@@__crt_stdio_output@@AEAA_NQEAH@Z 00000001802e2acc     libucrt:output.obj
 0002:00282acc       $unwind$my_numchars_utf16  00000001802e2acc     strings:ctype-ucs2.obj
 0002:00282acc       $unwind$?parse_int_from_format_string@?$output_processor@_WV?$stream_output_adapter@_W@__crt_stdio_output@@V?$standard_base@_WV?$stream_output_adapter@_W@__crt_stdio_output@@@2@@__crt_stdio_output@@AEAA_NQEAH@Z 00000001802e2acc     libucrt:output.obj
 0002:00282acc       $unwind$updatewindow       00000001802e2acc     zlib:inflate.obj
 0002:00282acc       $unwind$add_init_command   00000001802e2acc     clientlib:client.obj
 0002:00282acc       $unwind$my_caseup_str_utf8mb4 00000001802e2acc     strings:ctype-utf8.obj
 0002:00282ae0       $unwind$mysql_read_default_options 00000001802e2ae0     clientlib:client.obj
 0002:00282b04       $unwind$cli_fetch_lengths  00000001802e2b04     clientlib:client.obj
 0002:00282b04       $unwind$my_hash_sort_bin   00000001802e2b04     strings:ctype-bin.obj
 0002:00282b04       $unwind$my_strnncollsp_big5_bin 00000001802e2b04     strings:ctype-big5.obj
 0002:00282b04       $unwind$my_strnncoll_latin1_de 00000001802e2b04     strings:ctype-latin1.obj
 0002:00282b04       $unwind$my_strnncollsp_cp932_bin 00000001802e2b04     strings:ctype-cp932.obj
 0002:00282b04       $unwind$my_strnncollsp_utf16_bin 00000001802e2b04     strings:ctype-ucs2.obj
 0002:00282b04       $unwind$my_strnncoll_ucs2_bin 00000001802e2b04     strings:ctype-ucs2.obj
 0002:00282b04       $unwind$my_strnncollsp_gb2312_bin 00000001802e2b04     strings:ctype-gb2312.obj
 0002:00282b04       $unwind$my_hash_sort_ucs2_bin 00000001802e2b04     strings:ctype-ucs2.obj
 0002:00282b04       $unwind$my_strnncollsp_gbk_bin 00000001802e2b04     strings:ctype-gbk.obj
 0002:00282b04       $unwind$my_strnncoll_utf32_bin 00000001802e2b04     strings:ctype-ucs2.obj
 0002:00282b04       $unwind$my_strnncollsp_latin1_de 00000001802e2b04     strings:ctype-latin1.obj
 0002:00282b04       $unwind$my_strnncoll_simple 00000001802e2b04     strings:ctype-simple.obj
 0002:00282b04       $unwind$my_strnncollsp_sjis_bin 00000001802e2b04     strings:ctype-sjis.obj
 0002:00282b10       $unwind$unpack_fields      00000001802e2b10     clientlib:client.obj
 0002:00282b2c       $chain$2$unpack_fields     00000001802e2b2c     clientlib:client.obj
 0002:00282b48       $chain$3$unpack_fields     00000001802e2b48     clientlib:client.obj
 0002:00282b58       $unwind$cli_read_rows      00000001802e2b58     clientlib:client.obj
 0002:00282b64       $chain$0$cli_read_rows     00000001802e2b64     clientlib:client.obj
 0002:00282b78       $chain$6$cli_read_rows     00000001802e2b78     clientlib:client.obj
 0002:00282b9c       $unwind$read_one_row       00000001802e2b9c     clientlib:client.obj
 0002:00282bb0       $chain$0$read_one_row      00000001802e2bb0     clientlib:client.obj
 0002:00282bc4       $chain$1$read_one_row      00000001802e2bc4     clientlib:client.obj
 0002:00282bd4       $chain$2$read_one_row      00000001802e2bd4     clientlib:client.obj
 0002:00282be8       $unwind$mysql_autodetect_character_set 00000001802e2be8     clientlib:client.obj
 0002:00282c04       $unwind$mysql_init_character_set 00000001802e2c04     clientlib:client.obj
 0002:00282c18       $unwind$vio_socket_timeout 00000001802e2c18     vio:viosocket.obj
 0002:00282c18       $unwind$vio_fastsend       00000001802e2c18     vio:viosocket.obj
 0002:00282c18       $unwind$vio_keepalive      00000001802e2c18     vio:viosocket.obj
 0002:00282c18       $unwind$_itow_s            00000001802e2c18     libucrt:xtoa.obj
 0002:00282c18       $unwind$_invalid_parameter_noinfo 00000001802e2c18     libucrt:invalid_parameter.obj
 0002:00282c18       $unwind$atoi               00000001802e2c18     libucrt:atox.obj
 0002:00282c18       $unwind$my_init            00000001802e2c18     mysys:my_init.obj
 0002:00282c18       $unwind$_wgetcwd           00000001802e2c18     libucrt:getcwd.obj
 0002:00282c18       $unwind$send_client_connect_attrs 00000001802e2c18     clientlib:client.obj
 0002:00282c18       $unwind$_log_special       00000001802e2c18     libucrt:log_special.obj
 0002:00282c18       $unwind$_log10_special     00000001802e2c18     libucrt:log_special.obj
 0002:00282c18       $unwind$my_hash_sort       00000001802e2c18     mysys:hash.obj
 0002:00282c18       $unwind$my_hash_sort_any_uca 00000001802e2c18     strings:ctype-uca.obj
 0002:00282c18       $unwind$win32_have_tcpip   00000001802e2c18     mysys:my_init.obj
 0002:00282c18       $unwind$mysql_client_find_plugin 00000001802e2c18     clientlib:client_plugin.obj
 0002:00282c18       $unwind$_sopen_s           00000001802e2c18     libucrt:open.obj
 0002:00282c18       $unwind$atol               00000001802e2c18     libucrt:atox.obj
 0002:00282c18       $unwind$my_hash_sort_ucs2_uca 00000001802e2c18     strings:ctype-uca.obj
 0002:00282c18       $unwind$_getcwd            00000001802e2c18     libucrt:getcwd.obj
 0002:00282c18       $unwind$wctomb_s           00000001802e2c18     libucrt:wctomb.obj
 0002:00282c18       $unwind$vio_blocking       00000001802e2c18     vio:viosocket.obj
 0002:00282c20       $chain$5$send_client_connect_attrs 00000001802e2c20     clientlib:client.obj
 0002:00282c48       $chain$7$send_client_connect_attrs 00000001802e2c48     clientlib:client.obj
 0002:00282c60       $chain$9$send_client_connect_attrs 00000001802e2c60     clientlib:client.obj
 0002:00282c74       $chain$10$send_client_connect_attrs 00000001802e2c74     clientlib:client.obj
 0002:00282c84       $unwind$get_length_store_length 00000001802e2c84     clientlib:client.obj
 0002:00282c94       $unwind$send_change_user_packet 00000001802e2c94     clientlib:client.obj
 0002:00282cbc       $unwind$send_client_reply_packet 00000001802e2cbc     clientlib:client.obj
 0002:00282ce4       $chain$0$client_mpvio_write_packet 00000001802e2ce4     clientlib:client.obj
 0002:00282cf8       $chain$2$client_mpvio_write_packet 00000001802e2cf8     clientlib:client.obj
 0002:00282d0c       $unwind$mpvio_info         00000001802e2d0c     clientlib:client.obj
 0002:00282d20       $unwind$run_plugin_auth    00000001802e2d20     clientlib:client.obj
 0002:00282d34       $chain$0$run_plugin_auth   00000001802e2d34     clientlib:client.obj
 0002:00282d48       $chain$1$run_plugin_auth   00000001802e2d48     clientlib:client.obj
 0002:00282d58       $unwind$connect_sync_or_async 00000001802e2d58     clientlib:client.obj
 0002:00282d68       $chain$0$connect_sync_or_async 00000001802e2d68     clientlib:client.obj
 0002:00282d7c       $chain$1$connect_sync_or_async 00000001802e2d7c     clientlib:client.obj
 0002:00282d8c       $unwind$mysql_real_connect 00000001802e2d8c     clientlib:client.obj
 0002:00282dac       $unwind$mysql_reconnect    00000001802e2dac     clientlib:client.obj
 0002:00282dc8       $chain$0$mysql_reconnect   00000001802e2dc8     clientlib:client.obj
 0002:00282ddc       $chain$3$mysql_reconnect   00000001802e2ddc     clientlib:client.obj
 0002:00282ddc       $chain$1$mysql_reconnect   00000001802e2ddc     clientlib:client.obj
 0002:00282dec       $chain$2$mysql_reconnect   00000001802e2dec     clientlib:client.obj
 0002:00282e00       $unwind$mysql_select_db    00000001802e2e00     clientlib:client.obj
 0002:00282e10       $chain$0$mysql_select_db   00000001802e2e10     clientlib:client.obj
 0002:00282e24       $chain$1$mysql_select_db   00000001802e2e24     clientlib:client.obj
 0002:00282e34       $unwind$mysql_close_free_options 00000001802e2e34     clientlib:client.obj
 0002:00282e44       $chain$0$mysql_close_free_options 00000001802e2e44     clientlib:client.obj
 0002:00282e58       $chain$1$mysql_close_free_options 00000001802e2e58     clientlib:client.obj
 0002:00282e6c       $chain$2$mysql_close_free_options 00000001802e2e6c     clientlib:client.obj
 0002:00282e80       $chain$3$mysql_close_free_options 00000001802e2e80     clientlib:client.obj
 0002:00282e94       $chain$4$mysql_close_free_options 00000001802e2e94     clientlib:client.obj
 0002:00282ea4       $chain$5$mysql_close_free_options 00000001802e2ea4     clientlib:client.obj
 0002:00282eb4       $chain$6$mysql_close_free_options 00000001802e2eb4     clientlib:client.obj
 0002:00282ec8       $unwind$__GSHandlerCheckCommon 00000001802e2ec8     LIBCMT:_gshandler_.obj
 0002:00282ec8       $unwind$mysql_prune_stmt_list 00000001802e2ec8     clientlib:client.obj
 0002:00282ed0       $chain$0$mysql_prune_stmt_list 00000001802e2ed0     clientlib:client.obj
 0002:00282ee4       $chain$1$mysql_prune_stmt_list 00000001802e2ee4     clientlib:client.obj
 0002:00282ef4       $unwind$mysql_detach_stmt_list 00000001802e2ef4     clientlib:client.obj
 0002:00282f0c       $unwind$mysql_close        00000001802e2f0c     clientlib:client.obj
 0002:00282f14       $chain$0$mysql_close       00000001802e2f14     clientlib:client.obj
 0002:00282f28       $chain$1$mysql_close       00000001802e2f28     clientlib:client.obj
 0002:00282f38       $unwind$cli_read_query_result 00000001802e2f38     clientlib:client.obj
 0002:00282f4c       $chain$1$mysql_store_result 00000001802e2f4c     clientlib:client.obj
 0002:00282f64       $chain$3$mysql_store_result 00000001802e2f64     clientlib:client.obj
 0002:00282f64       $chain$5$mysql_store_result 00000001802e2f64     clientlib:client.obj
 0002:00282f7c       $chain$0$cli_use_result    00000001802e2f7c     clientlib:client.obj
 0002:00282f90       $chain$2$cli_use_result    00000001802e2f90     clientlib:client.obj
 0002:00282fa4       $chain$0$mysql_fetch_row   00000001802e2fa4     clientlib:client.obj
 0002:00282fb8       $chain$2$mysql_fetch_row   00000001802e2fb8     clientlib:client.obj
 0002:00282fcc       $chain$3$mysql_fetch_row   00000001802e2fcc     clientlib:client.obj
 0002:00282fdc       $unwind$mysql_options4     00000001802e2fdc     clientlib:client.obj
 0002:00282ff4       $chain$0$mysql_options4    00000001802e2ff4     clientlib:client.obj
 0002:00283008       $chain$1$mysql_options4    00000001802e3008     clientlib:client.obj
 0002:00283018       $unwind$mysql_set_character_set 00000001802e3018     clientlib:client.obj
 0002:00283038       $unwind$native_password_auth_client 00000001802e3038     clientlib:client.obj
 0002:0028304c       $unwind$old_password_auth_client 00000001802e304c     clientlib:client.obj
 0002:00283060       $chain$0$old_password_auth_client 00000001802e3060     clientlib:client.obj
 0002:00283074       $chain$1$old_password_auth_client 00000001802e3074     clientlib:client.obj
 0002:00283084       $unwind$handle_local_infile 00000001802e3084     clientlib:libmysql.obj
 0002:00283098       $unwind$default_local_infile_init 00000001802e3098     clientlib:libmysql.obj
 0002:00283098       $unwind$my_charset_get_by_name 00000001802e3098     mysys:charset.obj
 0002:002830b0       $chain$0$default_local_infile_init 00000001802e30b0     clientlib:libmysql.obj
 0002:002830c4       $chain$1$default_local_infile_init 00000001802e30c4     clientlib:libmysql.obj
 0002:002830d4       $unwind$vio_new            00000001802e30d4     vio:vio.obj
 0002:002830d4       $unwind$default_local_infile_read 00000001802e30d4     clientlib:libmysql.obj
 0002:002830d4       $unwind$vio_close_shared_memory 00000001802e30d4     vio:vioshm.obj
 0002:002830d4       $unwind$??$__acrt_stdio_parse_mode@D@@YA?AU__acrt_stdio_stream_mode@@QEBD@Z 00000001802e30d4     libucrt:fdopen.obj
 0002:002830e0       $unwind$cs_enter           00000001802e30e0     strings:ctype.obj
 0002:002830e0       $unwind$_recalloc_base     00000001802e30e0     libucrt:recalloc.obj
 0002:002830e0       $unwind$my_compress_alloc  00000001802e30e0     mysys:my_compress.obj
 0002:002830e0       $unwind$?find_or_allocate_unused_stream_nolock@@YA?AV__crt_stdio_stream@@XZ 00000001802e30e0     libucrt:stream.obj
 0002:002830e0       $unwind$my_once_alloc      00000001802e30e0     mysys:my_once.obj
 0002:002830e0       $unwind$__scrt_dllmain_exception_filter 00000001802e30e0     LIBCMT:utility.obj
 0002:002830e0       $unwind$?dllmain_raw@@YAHQEAUHINSTANCE__@@KQEAX@Z 00000001802e30e0     LIBCMT:dll_dllmain.obj
 0002:002830e0       $unwind$my_numchars_mb     00000001802e30e0     strings:ctype-mb.obj
 0002:002830e0       $unwind$_wassert           00000001802e30e0     libucrt:assert.obj
 0002:002830e0       $unwind$my_casedn_str_mb   00000001802e30e0     strings:ctype-mb.obj
 0002:002830e0       $unwind$my_strcasecmp_mb   00000001802e30e0     strings:ctype-mb.obj
 0002:002830e0       $unwind$__acrt_lowio_create_handle_array 00000001802e30e0     libucrt:osfinfo.obj
 0002:002830e0       $unwind$??R<lambda_55f9cbce55698c0319f95c01c080475b>@@QEBAHXZ 00000001802e30e0     libucrt:puts.obj
 0002:002830e0       $unwind$__acrt_InitializeCriticalSectionEx 00000001802e30e0     libucrt:winapi_thunks.obj
 0002:002830e0       $unwind$alloc_root         00000001802e30e0     mysys:my_alloc.obj
 0002:002830e0       $unwind$?expand_if_necessary@?$argument_list@D@?A0xca0879c4@@AEAAHXZ 00000001802e30e0     libucrt:argv_wildcards.obj
 0002:002830e0       $unwind$__vcrt_InitializeCriticalSectionEx 00000001802e30e0     libvcruntime:winapi_downlevel.obj
 0002:002830e0       $unwind$__acrt_execute_initializers 00000001802e30e0     libucrt:shared_initialization.obj
 0002:002830e0       $unwind$my_realloc_str     00000001802e30e0     clientlib:libmysql.obj
 0002:002830e0       $unwind$my_realpath        00000001802e30e0     mysys:my_symlink.obj
 0002:002830e0       $unwind$my_caseup_str_mb   00000001802e30e0     strings:ctype-mb.obj
 0002:002830e0       $unwind$??$ensure_buffer_is_big_enough@D@formatting_buffer@__crt_stdio_output@@QEAA_N_K@Z 00000001802e30e0     libucrt:output.obj
 0002:002830e0       $unwind$my_strnncollsp_gbk_chinese_ci 00000001802e30e0     strings:ctype-gbk.obj
 0002:002830e0       $unwind$_seh_filter_exe    00000001802e30e0     libucrt:exception_filter.obj
 0002:002830e0       $unwind$cs_copy_data       00000001802e30e0     mysys:charset.obj
 0002:002830e0       $unwind$__dcrt_get_wide_environment_from_os 00000001802e30e0     libucrt:get_environment_from_os.obj
 0002:002830e0       $unwind$_wfullpath         00000001802e30e0     libucrt:fullpath.obj
 0002:002830e0       $unwind$?setSBCS@@YAXPEAU__crt_multibyte_data@@@Z 00000001802e30e0     libucrt:mbctype.obj
 0002:002830e0       $unwind$__acrt_free_locale 00000001802e30e0     libucrt:locale_refcounting.obj
 0002:002830f4       $unwind$cli_read_prepare_result 00000001802e30f4     clientlib:libmysql.obj
 0002:00283108       $unwind$execute            00000001802e3108     clientlib:libmysql.obj
 0002:0028311c       $unwind$cli_stmt_execute   00000001802e311c     clientlib:libmysql.obj
 0002:00283124       $chain$0$cli_stmt_execute  00000001802e3124     clientlib:libmysql.obj
 0002:00283138       $chain$3$cli_stmt_execute  00000001802e3138     clientlib:libmysql.obj
 0002:00283150       $chain$6$cli_stmt_execute  00000001802e3150     clientlib:libmysql.obj
 0002:0028316c       $chain$7$cli_stmt_execute  00000001802e316c     clientlib:libmysql.obj
 0002:00283180       $chain$8$cli_stmt_execute  00000001802e3180     clientlib:libmysql.obj
 0002:00283190       $chain$10$cli_stmt_execute 00000001802e3190     clientlib:libmysql.obj
 0002:002831b0       $chain$13$cli_stmt_execute 00000001802e31b0     clientlib:libmysql.obj
 0002:002831b0       $chain$11$cli_stmt_execute 00000001802e31b0     clientlib:libmysql.obj
 0002:002831c4       $chain$14$cli_stmt_execute 00000001802e31c4     clientlib:libmysql.obj
 0002:002831d4       $unwind$cli_read_binary_rows 00000001802e31d4     clientlib:libmysql.obj
 0002:002831e4       $chain$2$cli_read_binary_rows 00000001802e31e4     clientlib:libmysql.obj
 0002:00283200       $chain$4$cli_read_binary_rows 00000001802e3200     clientlib:libmysql.obj
 0002:0028321c       $chain$0$net_realloc       00000001802e321c     clientlib:net_serv.obj
 0002:00283230       $chain$2$net_realloc       00000001802e3230     clientlib:net_serv.obj
 0002:00283244       $unwind$?net_data_is_ready@@YAH_K@Z 00000001802e3244     clientlib:net_serv.obj
 0002:0028325c       $chain$1$net_clear         00000001802e325c     clientlib:net_serv.obj
 0002:00283274       $chain$2$net_clear         00000001802e3274     clientlib:net_serv.obj
 0002:00283284       $unwind$??R<lambda_b721fa326cdb32351d23dfa67958c160>@@QEBAHXZ 00000001802e3284     libucrt:setvbuf.obj
 0002:00283284       $unwind$?truncate_ctrl_z_if_present@@YAHH@Z 00000001802e3284     libucrt:open.obj
 0002:00283284       $unwind$my_hash_sort_latin1_de 00000001802e3284     strings:ctype-latin1.obj
 0002:00283284       $unwind$fill_window        00000001802e3284     zlib:deflate.obj
 0002:00283284       $unwind$?type_case_c_tchar@?$output_processor@_WV?$stream_output_adapter@_W@__crt_stdio_output@@V?$standard_base@_WV?$stream_output_adapter@_W@__crt_stdio_output@@@2@@__crt_stdio_output@@AEAA_N_W@Z 00000001802e3284     libucrt:output.obj
 0002:00283284       $unwind$?type_case_c_tchar@?$output_processor@_WV?$string_output_adapter@_W@__crt_stdio_output@@V?$standard_base@_WV?$string_output_adapter@_W@__crt_stdio_output@@@2@@__crt_stdio_output@@AEAA_N_W@Z 00000001802e3284     libucrt:output.obj
 0002:00283284       $unwind$my_net_write       00000001802e3284     clientlib:net_serv.obj
 0002:00283294       $unwind$net_write_command  00000001802e3294     clientlib:net_serv.obj
 0002:002832b0       $unwind$?net_write_buff@@YADPEAUst_net@@PEBEK@Z 00000001802e32b0     clientlib:net_serv.obj
 0002:002832c8       $unwind$net_real_write     00000001802e32c8     clientlib:net_serv.obj
 0002:002832d4       $chain$2$net_real_write    00000001802e32d4     clientlib:net_serv.obj
 0002:002832f0       $chain$4$net_real_write    00000001802e32f0     clientlib:net_serv.obj
 0002:0028330c       $unwind$?try_get_function@@YAPEAXW4function_id@?A0x63058377@@QEBDQEBW4module_id@2@2@Z 00000001802e330c     libucrt:winapi_thunks.obj
 0002:0028330c       $unwind$?write_string@?$string_output_adapter@_W@__crt_stdio_output@@QEBAXQEB_WHQEAH1@Z 00000001802e330c     libucrt:output.obj
 0002:0028330c       $unwind$?try_get_function@@YAPEAXW4function_id@?A0x679b24ab@@QEBDQEBW4module_id@2@2@Z 00000001802e330c     libvcruntime:winapi_downlevel.obj
 0002:0028330c       $unwind$mult               00000001802e330c     strings:dtoa.obj
 0002:0028330c       $unwind$?my_real_read@@YAKPEAUst_net@@PEA_KD@Z 00000001802e330c     clientlib:net_serv.obj
 0002:0028330c       $unwind$escape_quotes_for_mysql 00000001802e330c     mysys:charset.obj
 0002:0028330c       $unwind$_fwrite_nolock     00000001802e330c     libucrt:fwrite.obj
 0002:00283328       $unwind$my_net_read_packet 00000001802e3328     clientlib:net_serv.obj
 0002:00283338       $chain$3$my_net_read_packet 00000001802e3338     clientlib:net_serv.obj
 0002:00283358       $chain$4$my_net_read_packet 00000001802e3358     clientlib:net_serv.obj
 0002:00283368       $unwind$add_plugin         00000001802e3368     clientlib:client_plugin.obj
 0002:00283380       $unwind$load_env_plugins   00000001802e3380     clientlib:client_plugin.obj
 0002:0028338c       $chain$1$load_env_plugins  00000001802e338c     clientlib:client_plugin.obj
 0002:002833a4       $chain$2$load_env_plugins  00000001802e33a4     clientlib:client_plugin.obj
 0002:002833b8       $chain$3$load_env_plugins  00000001802e33b8     clientlib:client_plugin.obj
 0002:002833c8       $unwind$mysql_client_plugin_init 00000001802e33c8     clientlib:client_plugin.obj
 0002:002833dc       $chain$0$mysql_client_plugin_init 00000001802e33dc     clientlib:client_plugin.obj
 0002:002833f0       $chain$1$mysql_client_plugin_init 00000001802e33f0     clientlib:client_plugin.obj
 0002:00283400       $unwind$mysql_load_plugin_v 00000001802e3400     clientlib:client_plugin.obj
 0002:0028341c       $chain$0$mysql_load_plugin_v 00000001802e341c     clientlib:client_plugin.obj
 0002:00283430       $chain$1$mysql_load_plugin_v 00000001802e3430     clientlib:client_plugin.obj
 0002:00283440       $unwind$mysql_load_plugin  00000001802e3440     clientlib:client_plugin.obj
 0002:00283440       $unwind$_putwch_nolock     00000001802e3440     libucrt:putwch.obj
 0002:00283440       $unwind$__report_gsfailure 00000001802e3440     LIBCMT:gs_report.obj
 0002:00283440       $unwind$my_snprintf_8bit   00000001802e3440     strings:ctype-simple.obj
 0002:00283448       $unwind$my_strnncollsp_euckr_bin 00000001802e3448     strings:ctype-euc_kr.obj
 0002:00283448       $unwind$my_strnncollsp_sjis_japanese_ci 00000001802e3448     strings:ctype-sjis.obj
 0002:00283448       $unwind$my_strnncoll_utf16_bin 00000001802e3448     strings:ctype-ucs2.obj
 0002:00283448       $unwind$my_strnncollsp_cp932_japanese_ci 00000001802e3448     strings:ctype-cp932.obj
 0002:00283448       $unwind$?DloadObtainSection@@YAPEAXPEAK0@Z 00000001802e3448     DelayImp:delayhlp.obj
 0002:00283448       $unwind$my_strnncoll_cp932_bin 00000001802e3448     strings:ctype-cp932.obj
 0002:00283448       $unwind$my_strnncollsp_big5_chinese_ci 00000001802e3448     strings:ctype-big5.obj
 0002:00283448       $unwind$my_strnncollsp_gb2312_chinese_ci 00000001802e3448     strings:ctype-gb2312.obj
 0002:00283448       $unwind$my_strcasecmp_utf8 00000001802e3448     strings:ctype-utf8.obj
 0002:00283448       $unwind$my_strnncoll_sjis_bin 00000001802e3448     strings:ctype-sjis.obj
 0002:00283448       $unwind$my_strnncoll_gbk_bin 00000001802e3448     strings:ctype-gbk.obj
 0002:00283448       $unwind$my_strnncollsp_simple 00000001802e3448     strings:ctype-simple.obj
 0002:00283448       $unwind$my_strnncoll_big5_bin 00000001802e3448     strings:ctype-big5.obj
 0002:00283448       $unwind$my_strnncoll_gb2312_bin 00000001802e3448     strings:ctype-gb2312.obj
 0002:00283448       $unwind$hash_password      00000001802e3448     clientlib:password.obj
 0002:00283448       $unwind$my_instr_bin       00000001802e3448     strings:ctype-bin.obj
 0002:00283458       $unwind$scramble_323       00000001802e3458     clientlib:password.obj
 0002:00283464       $chain$0$scramble_323      00000001802e3464     clientlib:password.obj
 0002:00283478       $chain$5$scramble_323      00000001802e3478     clientlib:password.obj
 0002:0028349c       $chain$6$scramble_323      00000001802e349c     clientlib:password.obj
 0002:002834b0       $chain$7$scramble_323      00000001802e34b0     clientlib:password.obj
 0002:002834c0       $chain$8$scramble_323      00000001802e34c0     clientlib:password.obj
 0002:002834d0       $chain$10$scramble_323     00000001802e34d0     clientlib:password.obj
 0002:002834e4       $chain$11$scramble_323     00000001802e34e4     clientlib:password.obj
 0002:002834f4       $unwind$scramble           00000001802e34f4     clientlib:password.obj
 0002:00283510       $unwind$my_error           00000001802e3510     mysys:my_error.obj
 0002:00283524       $unwind$my_printf_error    00000001802e3524     mysys:my_error.obj
 0002:00283538       $unwind$my_error_register  00000001802e3538     mysys:my_error.obj
 0002:00283544       $unwind$init_state_maps    00000001802e3544     mysys:charset.obj
 0002:00283550       $chain$0$init_state_maps   00000001802e3550     mysys:charset.obj
 0002:00283564       $chain$6$init_state_maps   00000001802e3564     mysys:charset.obj
 0002:00283584       $chain$2$init_state_maps   00000001802e3584     mysys:charset.obj
 0002:00283598       $unwind$my_read_charset_file 00000001802e3598     mysys:charset.obj
 0002:002835b4       $chain$0$my_read_charset_file 00000001802e35b4     mysys:charset.obj
 0002:002835c8       $chain$3$my_read_charset_file 00000001802e35c8     mysys:charset.obj
 0002:002835c8       $chain$1$my_read_charset_file 00000001802e35c8     mysys:charset.obj
 0002:002835d8       $chain$2$my_read_charset_file 00000001802e35d8     mysys:charset.obj
 0002:002835ec       $chain$0$get_charsets_dir  00000001802e35ec     mysys:charset.obj
 0002:00283600       $chain$1$get_charsets_dir  00000001802e3600     mysys:charset.obj
 0002:00283610       $chain$2$get_charsets_dir  00000001802e3610     mysys:charset.obj
 0002:00283624       $unwind$init_available_charsets 00000001802e3624     mysys:charset.obj
 0002:00283640       $unwind$??$convert_file_time_to_time_t@_J@@YA_JAEBU_FILETIME@@@Z 00000001802e3640     libucrt:findfile.obj
 0002:00283640       $unwind$get_collation_number 00000001802e3640     mysys:charset.obj
 0002:00283650       $chain$0$get_collation_number 00000001802e3650     mysys:charset.obj
 0002:00283664       $chain$1$get_collation_number 00000001802e3664     mysys:charset.obj
 0002:00283674       $chain$0$get_charset_number 00000001802e3674     mysys:charset.obj
 0002:00283688       $chain$1$get_charset_number 00000001802e3688     mysys:charset.obj
 0002:00283698       $unwind$get_internal_charset 00000001802e3698     mysys:charset.obj
 0002:002836b4       $unwind$my_collation_get_by_name 00000001802e36b4     mysys:charset.obj
 0002:002836cc       $unwind$get_charset_by_csname 00000001802e36cc     mysys:charset.obj
 0002:002836cc       $unwind$get_charset_by_name 00000001802e36cc     mysys:charset.obj
 0002:002836dc       $chain$0$my_charset_get_by_name 00000001802e36dc     mysys:charset.obj
 0002:002836f0       $chain$1$my_charset_get_by_name 00000001802e36f0     mysys:charset.obj
 0002:00283700       $unwind$escape_string_for_mysql 00000001802e3700     mysys:charset.obj
 0002:0028371c       $unwind$fs_character_set   00000001802e371c     mysys:charset.obj
 0002:0028372c       $unwind$?initialize_stdio_handles_nolock@@YAXXZ 00000001802e372c     libucrt:ioinit.obj
 0002:0028372c       $unwind$__std_exception_copy 00000001802e372c     libvcruntime:std_exception.obj
 0002:0028372c       $unwind$my_malloc          00000001802e372c     mysys:my_malloc.obj
 0002:0028372c       $unwind$_free_osfhnd       00000001802e372c     libucrt:osfinfo.obj
 0002:00283740       $unwind$my_realloc         00000001802e3740     mysys:my_malloc.obj
 0002:0028375c       $chain$0$my_free           00000001802e375c     mysys:my_malloc.obj
 0002:00283770       $chain$1$my_free           00000001802e3770     mysys:my_malloc.obj
 0002:00283780       $unwind$find_type_eol      00000001802e3780     mysys:typelib.obj
 0002:002837a4       $unwind$free_root          00000001802e37a4     mysys:my_alloc.obj
 0002:002837b0       $chain$1$free_root         00000001802e37b0     mysys:my_alloc.obj
 0002:002837c8       $chain$2$free_root         00000001802e37c8     mysys:my_alloc.obj
 0002:002837d8       $unwind$my_thread_init     00000001802e37d8     mysys:my_thr_init.obj
 0002:002837d8       $unwind$my_hash_free_elements 00000001802e37d8     mysys:hash.obj
 0002:002837d8       $unwind$send_tree          00000001802e37d8     zlib:trees.obj
 0002:002837e0       $chain$1$my_hash_free_elements 00000001802e37e0     mysys:hash.obj
 0002:002837f8       $chain$3$my_hash_free_elements 00000001802e37f8     mysys:hash.obj
 0002:00283810       $chain$4$my_hash_free_elements 00000001802e3810     mysys:hash.obj
 0002:00283820       $unwind$my_hash_search     00000001802e3820     mysys:hash.obj
 0002:00283830       $unwind$my_strnxfrm_mb     00000001802e3830     strings:ctype-mb.obj
 0002:00283830       $unwind$my_hash_first_from_hash_value 00000001802e3830     mysys:hash.obj
 0002:00283830       $unwind$my_strnxfrm_gbk    00000001802e3830     strings:ctype-gbk.obj
 0002:0028384c       $unwind$my_hash_insert     00000001802e384c     mysys:hash.obj
 0002:00283864       $chain$5$my_hash_insert    00000001802e3864     mysys:hash.obj
 0002:00283880       $chain$6$my_hash_insert    00000001802e3880     mysys:hash.obj
 0002:00283890       $unwind$my_hash_delete     00000001802e3890     mysys:hash.obj
 0002:0028389c       $chain$1$my_hash_delete    00000001802e389c     mysys:hash.obj
 0002:002838b4       $chain$4$my_hash_delete    00000001802e38b4     mysys:hash.obj
 0002:002838d0       $chain$5$my_hash_delete    00000001802e38d0     mysys:hash.obj
 0002:002838e0       $chain$7$my_hash_delete    00000001802e38e0     mysys:hash.obj
 0002:00283904       $chain$8$my_hash_delete    00000001802e3904     mysys:hash.obj
 0002:00283918       $chain$9$my_hash_delete    00000001802e3918     mysys:hash.obj
 0002:00283928       $chain$10$my_hash_delete   00000001802e3928     mysys:hash.obj
 0002:00283940       $unwind$printf             00000001802e3940     mysys:my_default.obj
 0002:0028394c       $unwind$fn_expand          00000001802e394c     mysys:my_default.obj
 0002:00283964       $unwind$my_search_option_files 00000001802e3964     mysys:my_default.obj
 0002:00283970       $chain$5$my_search_option_files 00000001802e3970     mysys:my_default.obj
 0002:00283998       $chain$6$my_search_option_files 00000001802e3998     mysys:my_default.obj
 0002:002839a8       $chain$7$my_search_option_files 00000001802e39a8     mysys:my_default.obj
 0002:002839d0       $unwind$handle_default_option 00000001802e39d0     mysys:my_default.obj
 0002:002839dc       $chain$0$handle_default_option 00000001802e39dc     mysys:my_default.obj
 0002:002839f0       $chain$2$handle_default_option 00000001802e39f0     mysys:my_default.obj
 0002:00283a04       $unwind$get_defaults_options 00000001802e3a04     mysys:my_default.obj
 0002:00283a14       $chain$2$get_defaults_options 00000001802e3a14     mysys:my_default.obj
 0002:00283a30       $chain$3$get_defaults_options 00000001802e3a30     mysys:my_default.obj
 0002:00283a40       $unwind$my_load_defaults   00000001802e3a40     mysys:my_default.obj
 0002:00283a60       $unwind$free_defaults      00000001802e3a60     mysys:my_default.obj
 0002:00283a6c       $unwind$my_strnxfrm_8bit_bin 00000001802e3a6c     strings:ctype-bin.obj
 0002:00283a6c       $unwind$search_default_file 00000001802e3a6c     mysys:my_default.obj
 0002:00283a84       $unwind$search_default_file_with_ext 00000001802e3a84     mysys:my_default.obj
 0002:00283a9c       $unwind$add_directory      00000001802e3a9c     mysys:my_default.obj
 0002:00283ab0       $chain$0$add_directory     00000001802e3ab0     mysys:my_default.obj
 0002:00283ac4       $chain$1$add_directory     00000001802e3ac4     mysys:my_default.obj
 0002:00283ad4       $unwind$init_default_directories 00000001802e3ad4     mysys:my_default.obj
 0002:00283af0       $chain$0$init_default_directories 00000001802e3af0     mysys:my_default.obj
 0002:00283b04       $chain$1$init_default_directories 00000001802e3b04     mysys:my_default.obj
 0002:00283b14       $chain$2$my_init           00000001802e3b14     mysys:my_init.obj
 0002:00283b30       $chain$5$my_init           00000001802e3b30     mysys:my_init.obj
 0002:00283b30       $chain$3$my_init           00000001802e3b30     mysys:my_init.obj
 0002:00283b44       $unwind$win_init_registry  00000001802e3b44     mysys:my_init.obj
 0002:00283b58       $chain$1$win_init_registry 00000001802e3b58     mysys:my_init.obj
 0002:00283b70       $chain$2$win_init_registry 00000001802e3b70     mysys:my_init.obj
 0002:00283b80       $unwind$win32_init_tcp_ip  00000001802e3b80     mysys:my_init.obj
 0002:00283b90       $chain$0$win32_init_tcp_ip 00000001802e3b90     mysys:my_init.obj
 0002:00283ba4       $chain$1$win32_init_tcp_ip 00000001802e3ba4     mysys:my_init.obj
 0002:00283bb4       $unwind$my_multi_malloc    00000001802e3bb4     mysys:mulalloc.obj
 0002:00283bbc       $chain$3$convert_dirname   00000001802e3bbc     mysys:mf_dirname.obj
 0002:00283bdc       $chain$4$convert_dirname   00000001802e3bdc     mysys:mf_dirname.obj
 0002:00283bf0       $chain$5$convert_dirname   00000001802e3bf0     mysys:mf_dirname.obj
 0002:00283c00       $chain$6$convert_dirname   00000001802e3c00     mysys:mf_dirname.obj
 0002:00283c10       $chain$0$my_thread_global_init 00000001802e3c10     mysys:my_thr_init.obj
 0002:00283c24       $chain$2$my_thread_global_init 00000001802e3c24     mysys:my_thr_init.obj
 0002:00283c38       $chain$0$my_thread_init    00000001802e3c38     mysys:my_thr_init.obj
 0002:00283c4c       $chain$1$my_thread_init    00000001802e3c4c     mysys:my_thr_init.obj
 0002:00283c5c       $unwind$my_close           00000001802e3c5c     mysys:my_open.obj
 0002:00283c68       $chain$1$my_close          00000001802e3c68     mysys:my_open.obj
 0002:00283c80       $chain$2$my_close          00000001802e3c80     mysys:my_open.obj
 0002:00283c94       $chain$3$my_close          00000001802e3c94     mysys:my_open.obj
 0002:00283ca4       $chain$4$my_close          00000001802e3ca4     mysys:my_open.obj
 0002:00283cb4       $unwind$fn_format          00000001802e3cb4     mysys:mf_format.obj
 0002:00283cd4       $unwind$my_read            00000001802e3cd4     mysys:my_read.obj
 0002:00283cf0       $chain$0$my_az_free        00000001802e3cf0     mysys:my_compress.obj
 0002:00283d04       $chain$1$my_az_free        00000001802e3d04     mysys:my_compress.obj
 0002:00283d14       $unwind$my_compress_buffer 00000001802e3d14     mysys:my_compress.obj
 0002:00283d20       $chain$0$my_compress_buffer 00000001802e3d20     mysys:my_compress.obj
 0002:00283d34       $chain$2$my_compress_buffer 00000001802e3d34     mysys:my_compress.obj
 0002:00283d48       $chain$3$my_compress_buffer 00000001802e3d48     mysys:my_compress.obj
 0002:00283d58       $unwind$my_dir             00000001802e3d58     mysys:my_lib.obj
 0002:00283d84       $unwind$pack_dirname       00000001802e3d84     mysys:mf_pack.obj
 0002:00283da4       $unwind$cleanup_dirname    00000001802e3da4     mysys:mf_pack.obj
 0002:00283db8       $chain$3$cleanup_dirname   00000001802e3db8     mysys:mf_pack.obj
 0002:00283dd8       $chain$5$cleanup_dirname   00000001802e3dd8     mysys:mf_pack.obj
 0002:00283df0       $chain$6$cleanup_dirname   00000001802e3df0     mysys:mf_pack.obj
 0002:00283e00       $chain$7$cleanup_dirname   00000001802e3e00     mysys:mf_pack.obj
 0002:00283e10       $unwind$symdirget          00000001802e3e10     mysys:mf_pack.obj
 0002:00283e24       $chain$0$symdirget         00000001802e3e24     mysys:mf_pack.obj
 0002:00283e38       $chain$2$symdirget         00000001802e3e38     mysys:mf_pack.obj
 0002:00283e50       $chain$3$symdirget         00000001802e3e50     mysys:mf_pack.obj
 0002:00283e64       $chain$4$symdirget         00000001802e3e64     mysys:mf_pack.obj
 0002:00283e74       $chain$5$symdirget         00000001802e3e74     mysys:mf_pack.obj
 0002:00283e84       $chain$6$symdirget         00000001802e3e84     mysys:mf_pack.obj
 0002:00283e94       $unwind$unpack_dirname     00000001802e3e94     mysys:mf_pack.obj
 0002:00283eac       $chain$0$unpack_dirname    00000001802e3eac     mysys:mf_pack.obj
 0002:00283ec0       $chain$1$unpack_dirname    00000001802e3ec0     mysys:mf_pack.obj
 0002:00283ed0       $unwind$intern_filename    00000001802e3ed0     mysys:mf_pack.obj
 0002:00283eec       $unwind$fn_ext             00000001802e3eec     mysys:mf_fn_ext.obj
 0002:00283eec       $unwind$fn_ext2            00000001802e3eec     mysys:mf_fn_ext.obj
 0002:00283f04       $unwind$my_fopen           00000001802e3f04     mysys:my_fopen.obj
 0002:00283f1c       $unwind$my_load_path       00000001802e3f1c     mysys:mf_loadpath.obj
 0002:00283f30       $chain$3$my_load_path      00000001802e3f30     mysys:mf_loadpath.obj
 0002:00283f50       $chain$4$my_load_path      00000001802e3f50     mysys:mf_loadpath.obj
 0002:00283f60       $chain$0$pthread_cond_init 00000001802e3f60     mysys:my_wincond.obj
 0002:00283f74       $chain$1$pthread_cond_init 00000001802e3f74     mysys:my_wincond.obj
 0002:00283f84       $unwind$my_win_sopen       00000001802e3f84     mysys:my_winfile.obj
 0002:00283f8c       $chain$0$my_win_sopen      00000001802e3f8c     mysys:my_winfile.obj
 0002:00283fa0       $chain$2$my_win_sopen      00000001802e3fa0     mysys:my_winfile.obj
 0002:00283fb4       $unwind$my_qsort           00000001802e3fb4     mysys:mf_qsort.obj
 0002:00283fd8       $chain$0$is_filename_allowed 00000001802e3fd8     mysys:my_access.obj
 0002:00283fec       $chain$1$is_filename_allowed 00000001802e3fec     mysys:my_access.obj
 0002:00284000       $chain$2$is_filename_allowed 00000001802e4000     mysys:my_access.obj
 0002:00284010       $chain$4$is_filename_allowed 00000001802e4010     mysys:my_access.obj
 0002:00284024       $unwind$my_sha1_multi      00000001802e4024     mysys_ssl:my_sha1.obj
 0002:00284038       $unwind$longlong10_to_str  00000001802e4038     strings:longlong2str.obj
 0002:00284038       $unwind$int10_to_str       00000001802e4038     strings:int2str.obj
 0002:00284048       $unwind$backtick_string    00000001802e4048     strings:my_vsnprintf.obj
 0002:00284064       $unwind$process_str_arg    00000001802e4064     strings:my_vsnprintf.obj
 0002:00284064       $unwind$??$create_environment@_W@@YAQEAPEA_WQEA_W@Z 00000001802e4064     libucrt:environment_initialization.obj
 0002:00284064       $unwind$??$create_environment@D@@YAQEAPEADQEAD@Z 00000001802e4064     libucrt:environment_initialization.obj
 0002:00284064       $unwind$__acrt_copy_path_to_wide_string 00000001802e4064     libucrt:string_utilities.obj
 0002:0028407c       $unwind$process_int_arg    00000001802e407c     strings:my_vsnprintf.obj
 0002:00284098       $unwind$process_args       00000001802e4098     strings:my_vsnprintf.obj
 0002:002840bc       $unwind$my_vsnprintf_ex    00000001802e40bc     strings:my_vsnprintf.obj
 0002:002840dc       $unwind$my_snprintf        00000001802e40dc     strings:my_vsnprintf.obj
 0002:002840e4       $unwind$??$type_case_integer_parse_into_buffer@_K@?$output_processor@_WV?$stream_output_adapter@_W@__crt_stdio_output@@V?$standard_base@_WV?$stream_output_adapter@_W@__crt_stdio_output@@@2@@__crt_stdio_output@@AEAAX_KI_N@Z 00000001802e40e4     libucrt:output.obj
 0002:002840e4       $unwind$??$type_case_integer_parse_into_buffer@I@?$output_processor@_WV?$stream_output_adapter@_W@__crt_stdio_output@@V?$standard_base@_WV?$stream_output_adapter@_W@__crt_stdio_output@@@2@@__crt_stdio_output@@AEAAXII_N@Z 00000001802e40e4     libucrt:output.obj
 0002:002840e4       $unwind$my_well_formed_len_ujis 00000001802e40e4     strings:ctype-ujis.obj
 0002:002840e4       $unwind$my_strnncollsp_utf32_bin 00000001802e40e4     strings:ctype-ucs2.obj
 0002:002840e4       $unwind$??$type_case_integer_parse_into_buffer@I@?$output_processor@DV?$string_output_adapter@D@__crt_stdio_output@@V?$standard_base@DV?$string_output_adapter@D@__crt_stdio_output@@@2@@__crt_stdio_output@@AEAAXII_N@Z 00000001802e40e4     libucrt:output.obj
 0002:002840e4       $unwind$??$type_case_integer_parse_into_buffer@_K@?$output_processor@DV?$string_output_adapter@D@__crt_stdio_output@@V?$standard_base@DV?$string_output_adapter@D@__crt_stdio_output@@@2@@__crt_stdio_output@@AEAAX_KI_N@Z 00000001802e40e4     libucrt:output.obj
 0002:002840e4       $unwind$??$type_case_integer_parse_into_buffer@_K@?$output_processor@DV?$stream_output_adapter@D@__crt_stdio_output@@V?$standard_base@DV?$stream_output_adapter@D@__crt_stdio_output@@@2@@__crt_stdio_output@@AEAAX_KI_N@Z 00000001802e40e4     libucrt:output.obj
 0002:002840e4       $unwind$??$write_multiple_characters@V?$string_output_adapter@D@__crt_stdio_output@@D@__crt_stdio_output@@YAXAEBV?$string_output_adapter@D@0@DHQEAH@Z 00000001802e40e4     libucrt:output.obj
 0002:002840e4       $unwind$my_well_formed_len_cp932 00000001802e40e4     strings:ctype-cp932.obj
 0002:002840e4       $unwind$my_strnncollsp_ucs2_bin 00000001802e40e4     strings:ctype-ucs2.obj
 0002:002840e4       $unwind$my_strnncollsp_8bit_bin 00000001802e40e4     strings:ctype-bin.obj
 0002:002840e4       $unwind$??$type_case_integer_parse_into_buffer@I@?$output_processor@DV?$stream_output_adapter@D@__crt_stdio_output@@V?$standard_base@DV?$stream_output_adapter@D@__crt_stdio_output@@@2@@__crt_stdio_output@@AEAAXII_N@Z 00000001802e40e4     libucrt:output.obj
 0002:002840e4       $unwind$my_well_formed_len_eucjpms 00000001802e40e4     strings:ctype-eucjpms.obj
 0002:002840e4       $unwind$copy_block         00000001802e40e4     zlib:trees.obj
 0002:002840e4       $unwind$my_well_formed_len_sjis 00000001802e40e4     strings:ctype-sjis.obj
 0002:002840e4       $unwind$??$type_case_integer_parse_into_buffer@I@?$output_processor@_WV?$string_output_adapter@_W@__crt_stdio_output@@V?$standard_base@_WV?$string_output_adapter@_W@__crt_stdio_output@@@2@@__crt_stdio_output@@AEAAXII_N@Z 00000001802e40e4     libucrt:output.obj
 0002:002840e4       $unwind$??$type_case_integer_parse_into_buffer@_K@?$output_processor@_WV?$string_output_adapter@_W@__crt_stdio_output@@V?$standard_base@_WV?$string_output_adapter@_W@__crt_stdio_output@@@2@@__crt_stdio_output@@AEAAX_KI_N@Z 00000001802e40e4     libucrt:output.obj
 0002:002840ec       $unwind$my_wildcmp_bin_impl 00000001802e40ec     strings:ctype-bin.obj
 0002:002840fc       $chain$0$my_wildcmp_bin_impl 00000001802e40fc     strings:ctype-bin.obj
 0002:00284110       $chain$2$my_wildcmp_bin_impl 00000001802e4110     strings:ctype-bin.obj
 0002:00284124       $unwind$my_wildcmp_8bit    00000001802e4124     strings:ctype-simple.obj
 0002:00284124       $unwind$my_wildcmp_ucs2_bin 00000001802e4124     strings:ctype-ucs2.obj
 0002:00284124       $unwind$my_wildcmp_utf32_bin 00000001802e4124     strings:ctype-ucs2.obj
 0002:00284124       $unwind$my_wildcmp_utf8mb4 00000001802e4124     strings:ctype-utf8.obj
 0002:00284124       $unwind$my_wildcmp_utf8    00000001802e4124     strings:ctype-utf8.obj
 0002:00284124       $unwind$my_wildcmp_utf32_ci 00000001802e4124     strings:ctype-ucs2.obj
 0002:00284124       $unwind$my_wildcmp_mb_bin  00000001802e4124     strings:ctype-mb.obj
 0002:00284124       $unwind$my_wildcmp_uca     00000001802e4124     strings:ctype-uca.obj
 0002:00284124       $unwind$my_wildcmp_mb      00000001802e4124     strings:ctype-mb.obj
 0002:00284124       $unwind$my_wildcmp_ucs2_ci 00000001802e4124     strings:ctype-ucs2.obj
 0002:00284124       $unwind$my_wildcmp_utf16_bin 00000001802e4124     strings:ctype-ucs2.obj
 0002:00284124       $unwind$my_wildcmp_utf16_ci 00000001802e4124     strings:ctype-ucs2.obj
 0002:00284124       $unwind$my_wildcmp_bin     00000001802e4124     strings:ctype-bin.obj
 0002:0028412c       $unwind$my_strnxfrm_latin1_de 00000001802e412c     strings:ctype-latin1.obj
 0002:00284138       $chain$0$my_strnxfrm_latin1_de 00000001802e4138     strings:ctype-latin1.obj
 0002:0028414c       $chain$1$my_strnxfrm_latin1_de 00000001802e414c     strings:ctype-latin1.obj
 0002:0028415c       $chain$0$my_hash_sort_latin1_de 00000001802e415c     strings:ctype-latin1.obj
 0002:00284170       $chain$1$my_hash_sort_latin1_de 00000001802e4170     strings:ctype-latin1.obj
 0002:00284180       $unwind$my_fcvt            00000001802e4180     strings:dtoa.obj
 0002:00284198       $chain$0$my_fcvt           00000001802e4198     strings:dtoa.obj
 0002:002841ac       $chain$1$my_fcvt           00000001802e41ac     strings:dtoa.obj
 0002:002841bc       $unwind$my_gcvt            00000001802e41bc     strings:dtoa.obj
 0002:002841e0       $chain$1$my_gcvt           00000001802e41e0     strings:dtoa.obj
 0002:002841f4       $chain$2$my_gcvt           00000001802e41f4     strings:dtoa.obj
 0002:00284204       $chain$0$Balloc            00000001802e4204     strings:dtoa.obj
 0002:00284218       $chain$1$Balloc            00000001802e4218     strings:dtoa.obj
 0002:00284228       $chain$0$multadd           00000001802e4228     strings:dtoa.obj
 0002:0028423c       $chain$1$multadd           00000001802e423c     strings:dtoa.obj
 0002:0028424c       $unwind$s2b                00000001802e424c     strings:dtoa.obj
 0002:0028425c       $chain$1$s2b               00000001802e425c     strings:dtoa.obj
 0002:00284274       $chain$2$s2b               00000001802e4274     strings:dtoa.obj
 0002:00284288       $chain$3$s2b               00000001802e4288     strings:dtoa.obj
 0002:00284298       $chain$4$s2b               00000001802e4298     strings:dtoa.obj
 0002:002842ac       $chain$5$s2b               00000001802e42ac     strings:dtoa.obj
 0002:002842bc       $unwind$pow5mult           00000001802e42bc     strings:dtoa.obj
 0002:002842cc       $chain$2$pow5mult          00000001802e42cc     strings:dtoa.obj
 0002:002842e8       $chain$3$pow5mult          00000001802e42e8     strings:dtoa.obj
 0002:002842f8       $unwind$lshift             00000001802e42f8     strings:dtoa.obj
 0002:00284304       $chain$1$lshift            00000001802e4304     strings:dtoa.obj
 0002:0028431c       $chain$3$lshift            00000001802e431c     strings:dtoa.obj
 0002:00284334       $chain$4$lshift            00000001802e4334     strings:dtoa.obj
 0002:00284348       $chain$5$lshift            00000001802e4348     strings:dtoa.obj
 0002:00284358       $chain$6$lshift            00000001802e4358     strings:dtoa.obj
 0002:0028436c       $chain$7$lshift            00000001802e436c     strings:dtoa.obj
 0002:0028437c       $unwind$diff               00000001802e437c     strings:dtoa.obj
 0002:0028438c       $chain$1$diff              00000001802e438c     strings:dtoa.obj
 0002:002843a4       $chain$2$diff              00000001802e43a4     strings:dtoa.obj
 0002:002843b8       $unwind$b2d                00000001802e43b8     strings:dtoa.obj
 0002:002843c4       $unwind$d2b                00000001802e43c4     strings:dtoa.obj
 0002:002843c4       $unwind$build_tree         00000001802e43c4     zlib:trees.obj
 0002:002843c4       $unwind$my_strnxfrm_unicode_full_bin 00000001802e43c4     strings:ctype-utf8.obj
 0002:002843c4       $unwind$my_well_formed_len_mb 00000001802e43c4     strings:ctype-mb.obj
 0002:002843c4       $unwind$my_well_formed_len_utf16 00000001802e43c4     strings:ctype-ucs2.obj
 0002:002843e0       $unwind$my_strtod_int      00000001802e43e0     strings:dtoa.obj
 0002:002843f0       $chain$6$my_strtod_int     00000001802e43f0     strings:dtoa.obj
 0002:0028441c       $chain$15$my_strtod_int    00000001802e441c     strings:dtoa.obj
 0002:00284450       $chain$16$my_strtod_int    00000001802e4450     strings:dtoa.obj
 0002:00284460       $chain$17$my_strtod_int    00000001802e4460     strings:dtoa.obj
 0002:00284470       $chain$18$my_strtod_int    00000001802e4470     strings:dtoa.obj
 0002:002844c0       $unwind$quorem             00000001802e44c0     strings:dtoa.obj
 0002:002844cc       $chain$2$quorem            00000001802e44cc     strings:dtoa.obj
 0002:002844e8       $chain$4$quorem            00000001802e44e8     strings:dtoa.obj
 0002:00284500       $chain$5$quorem            00000001802e4500     strings:dtoa.obj
 0002:00284510       $chain$6$quorem            00000001802e4510     strings:dtoa.obj
 0002:00284528       $unwind$dtoa               00000001802e4528     strings:dtoa.obj
 0002:00284544       $chain$3$dtoa              00000001802e4544     strings:dtoa.obj
 0002:00284560       $chain$4$dtoa              00000001802e4560     strings:dtoa.obj
 0002:00284570       $unwind$my_strtoll10       00000001802e4570     strings:my_strtoll10.obj
 0002:00284580       $chain$1$my_strtoll10      00000001802e4580     strings:my_strtoll10.obj
 0002:00284598       $chain$3$my_strtoll10      00000001802e4598     strings:my_strtoll10.obj
 0002:002845b0       $unwind$my_uca_scanner_contraction_find 00000001802e45b0     strings:ctype-uca.obj
 0002:002845d0       $unwind$my_uca_scanner_next_any 00000001802e45d0     strings:ctype-uca.obj
 0002:002845e4       $unwind$my_strnncollsp_uca 00000001802e45e4     strings:ctype-uca.obj
 0002:002845e4       $unwind$my_strnncoll_uca   00000001802e45e4     strings:ctype-uca.obj
 0002:002845fc       $unwind$my_hash_sort_uca   00000001802e45fc     strings:ctype-uca.obj
 0002:00284614       $chain$0$my_hash_sort_uca  00000001802e4614     strings:ctype-uca.obj
 0002:00284628       $chain$1$my_hash_sort_uca  00000001802e4628     strings:ctype-uca.obj
 0002:00284638       $unwind$my_strnxfrm_uca    00000001802e4638     strings:ctype-uca.obj
 0002:00284650       $chain$0$my_strnxfrm_uca   00000001802e4650     strings:ctype-uca.obj
 0002:00284664       $chain$1$my_strnxfrm_uca   00000001802e4664     strings:ctype-uca.obj
 0002:00284674       $unwind$my_uca_charcmp     00000001802e4674     strings:ctype-uca.obj
 0002:00284680       $chain$1$my_uca_charcmp    00000001802e4680     strings:ctype-uca.obj
 0002:00284694       $chain$3$my_uca_charcmp    00000001802e4694     strings:ctype-uca.obj
 0002:00284694       $chain$5$my_uca_charcmp    00000001802e4694     strings:ctype-uca.obj
 0002:002846a8       $chain$6$my_uca_charcmp    00000001802e46a8     strings:ctype-uca.obj
 0002:002846b8       $unwind$my_wildcmp_uca_impl 00000001802e46b8     strings:ctype-uca.obj
 0002:002846c8       $unwind$my_coll_parser_scan_shift_sequence 00000001802e46c8     strings:ctype-uca.obj
 0002:002846d0       $chain$1$my_coll_parser_scan_shift_sequence 00000001802e46d0     strings:ctype-uca.obj
 0002:002846e8       $chain$3$my_coll_parser_scan_shift_sequence 00000001802e46e8     strings:ctype-uca.obj
 0002:00284700       $unwind$my_coll_rule_parse 00000001802e4700     strings:ctype-uca.obj
 0002:00284720       $unwind$my_char_weight_put 00000001802e4720     strings:ctype-uca.obj
 0002:00284730       $chain$6$my_char_weight_put 00000001802e4730     strings:ctype-uca.obj
 0002:00284754       $chain$7$my_char_weight_put 00000001802e4754     strings:ctype-uca.obj
 0002:00284764       $unwind$my_charset_loader_error_for_rule 00000001802e4764     strings:ctype-uca.obj
 0002:00284784       $unwind$apply_one_rule     00000001802e4784     strings:ctype-uca.obj
 0002:00284794       $chain$0$apply_one_rule    00000001802e4794     strings:ctype-uca.obj
 0002:002847a8       $chain$1$apply_one_rule    00000001802e47a8     strings:ctype-uca.obj
 0002:002847bc       $chain$2$apply_one_rule    00000001802e47bc     strings:ctype-uca.obj
 0002:002847cc       $chain$4$apply_one_rule    00000001802e47cc     strings:ctype-uca.obj
 0002:002847cc       $chain$6$apply_one_rule    00000001802e47cc     strings:ctype-uca.obj
 0002:002847e0       $unwind$init_weight_level  00000001802e47e0     strings:ctype-uca.obj
 0002:002847f4       $chain$1$init_weight_level 00000001802e47f4     strings:ctype-uca.obj
 0002:0028480c       $chain$2$init_weight_level 00000001802e480c     strings:ctype-uca.obj
 0002:0028481c       $chain$6$init_weight_level 00000001802e481c     strings:ctype-uca.obj
 0002:0028481c       $chain$3$init_weight_level 00000001802e481c     strings:ctype-uca.obj
 0002:00284834       $chain$4$init_weight_level 00000001802e4834     strings:ctype-uca.obj
 0002:00284834       $chain$7$init_weight_level 00000001802e4834     strings:ctype-uca.obj
 0002:00284848       $unwind$create_tailoring   00000001802e4848     strings:ctype-uca.obj
 0002:00284860       $chain$0$create_tailoring  00000001802e4860     strings:ctype-uca.obj
 0002:00284874       $chain$1$create_tailoring  00000001802e4874     strings:ctype-uca.obj
 0002:00284884       $unwind$?__scrt_throw_std_bad_array_new_length@@YAXXZ 00000001802e4884     LIBCMT:throw_bad_alloc.obj
 0002:00284884       $unwind$my_caseup_ujis     00000001802e4884     strings:ctype-ujis.obj
 0002:00284884       $unwind$my_strnxfrm_any_uca 00000001802e4884     strings:ctype-uca.obj
 0002:00284884       $unwind$my_strnncoll_ucs2_uca 00000001802e4884     strings:ctype-uca.obj
 0002:00284884       $unwind$my_strnncoll_any_uca 00000001802e4884     strings:ctype-uca.obj
 0002:00284884       $unwind$my_casedn_ujis     00000001802e4884     strings:ctype-ujis.obj
 0002:00284884       $unwind$my_strnncollsp_ucs2_uca 00000001802e4884     strings:ctype-uca.obj
 0002:00284884       $unwind$?__scrt_throw_std_bad_alloc@@YAXXZ 00000001802e4884     LIBCMT:throw_bad_alloc.obj
 0002:00284884       $unwind$__dcrt_lowio_initialize_console_output 00000001802e4884     libucrt:initcon.obj
 0002:00284884       $unwind$_raise_exc         00000001802e4884     libucrt:fpexcept.obj
 0002:00284884       $unwind$my_strnxfrm_ucs2_uca 00000001802e4884     strings:ctype-uca.obj
 0002:00284884       $unwind$my_caseup_mb_varlen 00000001802e4884     strings:ctype-mb.obj
 0002:00284884       $unwind$my_strnncollsp_any_uca 00000001802e4884     strings:ctype-uca.obj
 0002:0028488c       $unwind$ll2str             00000001802e488c     strings:longlong2str.obj
 0002:002848a0       $unwind$my_wildcmp_unicode_impl 00000001802e48a0     strings:ctype-utf8.obj
 0002:002848ac       $chain$1$my_wildcmp_unicode_impl 00000001802e48ac     strings:ctype-utf8.obj
 0002:002848c4       $chain$3$my_wildcmp_unicode_impl 00000001802e48c4     strings:ctype-utf8.obj
 0002:002848dc       $chain$4$my_wildcmp_unicode_impl 00000001802e48dc     strings:ctype-utf8.obj
 0002:002848ec       $unwind$my_strnxfrm_unicode 00000001802e48ec     strings:ctype-utf8.obj
 0002:002848f8       $chain$4$my_strnxfrm_unicode 00000001802e48f8     strings:ctype-utf8.obj
 0002:0028491c       $chain$5$my_strnxfrm_unicode 00000001802e491c     strings:ctype-utf8.obj
 0002:0028492c       $unwind$my_casedn_utf8     00000001802e492c     strings:ctype-utf8.obj
 0002:0028492c       $unwind$my_caseup_utf8     00000001802e492c     strings:ctype-utf8.obj
 0002:00284940       $chain$0$my_caseup_utf8    00000001802e4940     strings:ctype-utf8.obj
 0002:00284954       $chain$1$my_caseup_utf8    00000001802e4954     strings:ctype-utf8.obj
 0002:00284964       $unwind$my_hash_sort_utf8  00000001802e4964     strings:ctype-utf8.obj
 0002:0028497c       $chain$0$my_hash_sort_utf8 00000001802e497c     strings:ctype-utf8.obj
 0002:00284990       $chain$1$my_hash_sort_utf8 00000001802e4990     strings:ctype-utf8.obj
 0002:002849a0       $unwind$my_casedn_str_utf8 00000001802e49a0     strings:ctype-utf8.obj
 0002:002849a0       $unwind$my_caseup_str_utf8 00000001802e49a0     strings:ctype-utf8.obj
 0002:002849ac       $chain$0$my_caseup_str_utf8 00000001802e49ac     strings:ctype-utf8.obj
 0002:002849c0       $chain$1$my_caseup_str_utf8 00000001802e49c0     strings:ctype-utf8.obj
 0002:002849d0       $chain$0$my_casedn_utf8    00000001802e49d0     strings:ctype-utf8.obj
 0002:002849e4       $chain$1$my_casedn_utf8    00000001802e49e4     strings:ctype-utf8.obj
 0002:002849f4       $chain$0$my_casedn_str_utf8 00000001802e49f4     strings:ctype-utf8.obj
 0002:00284a08       $chain$1$my_casedn_str_utf8 00000001802e4a08     strings:ctype-utf8.obj
 0002:00284a18       $unwind$my_strnncollsp_utf8_bin 00000001802e4a18     strings:ctype-utf8.obj
 0002:00284a18       $unwind$my_strnncoll_utf8_bin 00000001802e4a18     strings:ctype-utf8.obj
 0002:00284a18       $unwind$my_strnncoll_utf8mb4_general_ci 00000001802e4a18     strings:ctype-utf8.obj
 0002:00284a18       $unwind$my_strnncollsp_utf8mb4_bin 00000001802e4a18     strings:ctype-utf8.obj
 0002:00284a18       $unwind$my_strnncoll_utf8mb4_bin 00000001802e4a18     strings:ctype-utf8.obj
 0002:00284a18       $unwind$my_strnncoll_utf8_general_ci 00000001802e4a18     strings:ctype-utf8.obj
 0002:00284a18       $unwind$my_strnncoll_eucjpms_japanese_ci 00000001802e4a18     strings:ctype-eucjpms.obj
 0002:00284a18       $unwind$my_strnncollsp_utf8_general_mysql500_ci 00000001802e4a18     strings:ctype-utf8.obj
 0002:00284a18       $unwind$my_strnncoll_utf8_general_mysql500_ci 00000001802e4a18     strings:ctype-utf8.obj
 0002:00284a18       $unwind$my_strnncoll_ujis_japanese_ci 00000001802e4a18     strings:ctype-ujis.obj
 0002:00284a18       $unwind$my_strnncollsp_utf8mb4_general_ci 00000001802e4a18     strings:ctype-utf8.obj
 0002:00284a2c       $unwind$my_strnncollsp_utf8_general_ci 00000001802e4a2c     strings:ctype-utf8.obj
 0002:00284a44       $unwind$my_scan_weight_utf8mb4_bin 00000001802e4a44     strings:ctype-utf8.obj
 0002:00284a44       $unwind$my_mb_wc_filename  00000001802e4a44     strings:ctype-utf8.obj
 0002:00284a44       $unwind$my_well_formed_len_euckr 00000001802e4a44     strings:ctype-euc_kr.obj
 0002:00284a4c       $chain$0$my_mb_wc_filename 00000001802e4a4c     strings:ctype-utf8.obj
 0002:00284a60       $chain$2$my_mb_wc_filename 00000001802e4a60     strings:ctype-utf8.obj
 0002:00284a74       $chain$5$my_mb_wc_filename 00000001802e4a74     strings:ctype-utf8.obj
 0002:00284a8c       $chain$7$my_mb_wc_filename 00000001802e4a8c     strings:ctype-utf8.obj
 0002:00284a8c       $chain$11$my_mb_wc_filename 00000001802e4a8c     strings:ctype-utf8.obj
 0002:00284a8c       $chain$9$my_mb_wc_filename 00000001802e4a8c     strings:ctype-utf8.obj
 0002:00284aa4       $chain$14$my_mb_wc_filename 00000001802e4aa4     strings:ctype-utf8.obj
 0002:00284ac0       $chain$16$my_mb_wc_filename 00000001802e4ac0     strings:ctype-utf8.obj
 0002:00284ac0       $chain$18$my_mb_wc_filename 00000001802e4ac0     strings:ctype-utf8.obj
 0002:00284adc       $unwind$my_well_formed_char_length_filename 00000001802e4adc     strings:ctype-utf8.obj
 0002:00284adc       $unwind$my_scan_mb2        00000001802e4adc     strings:ctype-ucs2.obj
 0002:00284adc       $unwind$my_well_formed_char_length_utf16 00000001802e4adc     strings:ctype-ucs2.obj
 0002:00284af0       $unwind$my_casedn_utf8mb4  00000001802e4af0     strings:ctype-utf8.obj
 0002:00284af0       $unwind$my_caseup_utf8mb4  00000001802e4af0     strings:ctype-utf8.obj
 0002:00284b08       $chain$0$my_caseup_utf8mb4 00000001802e4b08     strings:ctype-utf8.obj
 0002:00284b1c       $chain$1$my_caseup_utf8mb4 00000001802e4b1c     strings:ctype-utf8.obj
 0002:00284b2c       $unwind$my_hash_sort_utf8mb4 00000001802e4b2c     strings:ctype-utf8.obj
 0002:00284b48       $chain$0$my_casedn_utf8mb4 00000001802e4b48     strings:ctype-utf8.obj
 0002:00284b5c       $chain$1$my_casedn_utf8mb4 00000001802e4b5c     strings:ctype-utf8.obj
 0002:00284b6c       $unwind$my_strcasecmp_utf8mb4 00000001802e4b6c     strings:ctype-utf8.obj
 0002:00284b80       $chain$1$my_scan_weight_utf8mb4_general_ci 00000001802e4b80     strings:ctype-utf8.obj
 0002:00284b98       $chain$7$my_scan_weight_utf8mb4_general_ci 00000001802e4b98     strings:ctype-utf8.obj
 0002:00284b98       $chain$5$my_scan_weight_utf8mb4_general_ci 00000001802e4b98     strings:ctype-utf8.obj
 0002:00284b98       $chain$3$my_scan_weight_utf8mb4_general_ci 00000001802e4b98     strings:ctype-utf8.obj
 0002:00284bb0       $chain$1$my_scan_weight_utf8mb4_bin 00000001802e4bb0     strings:ctype-utf8.obj
 0002:00284bc8       $chain$7$my_scan_weight_utf8mb4_bin 00000001802e4bc8     strings:ctype-utf8.obj
 0002:00284bc8       $chain$3$my_scan_weight_utf8mb4_bin 00000001802e4bc8     strings:ctype-utf8.obj
 0002:00284bc8       $chain$5$my_scan_weight_utf8mb4_bin 00000001802e4bc8     strings:ctype-utf8.obj
 0002:00284be0       $unwind$my_strnxfrm_simple 00000001802e4be0     strings:ctype-simple.obj
 0002:00284be0       $unwind$my_strnncoll_euckr_korean_ci 00000001802e4be0     strings:ctype-euc_kr.obj
 0002:00284bf8       $unwind$my_hash_sort_simple 00000001802e4bf8     strings:ctype-simple.obj
 0002:00284c10       $unwind$my_strntol_8bit    00000001802e4c10     strings:ctype-simple.obj
 0002:00284c2c       $unwind$my_strntoul_8bit   00000001802e4c2c     strings:ctype-simple.obj
 0002:00284c44       $unwind$my_strntoll_8bit   00000001802e4c44     strings:ctype-simple.obj
 0002:00284c60       $unwind$my_strntoull_8bit  00000001802e4c60     strings:ctype-simple.obj
 0002:00284c7c       $unwind$my_strntod_8bit    00000001802e4c7c     strings:ctype-simple.obj
 0002:00284c90       $unwind$my_long10_to_str_8bit 00000001802e4c90     strings:ctype-simple.obj
 0002:00284ca8       $unwind$my_longlong10_to_str_8bit 00000001802e4ca8     strings:ctype-simple.obj
 0002:00284cbc       $unwind$my_wildcmp_8bit_impl 00000001802e4cbc     strings:ctype-simple.obj
 0002:00284cd0       $unwind$my_like_range_simple 00000001802e4cd0     strings:ctype-simple.obj
 0002:00284cd0       $unwind$longest_match      00000001802e4cd0     zlib:deflate.obj
 0002:00284cec       $unwind$my_instr_simple    00000001802e4cec     strings:ctype-simple.obj
 0002:00284d04       $unwind$create_fromuni     00000001802e4d04     strings:ctype-simple.obj
 0002:00284d1c       $chain$3$create_fromuni    00000001802e4d1c     strings:ctype-simple.obj
 0002:00284d3c       $chain$4$create_fromuni    00000001802e4d3c     strings:ctype-simple.obj
 0002:00284d4c       $unwind$my_strntoull10rnd_8bit 00000001802e4d4c     strings:ctype-simple.obj
 0002:00284d64       $chain$0$my_strntoull10rnd_8bit 00000001802e4d64     strings:ctype-simple.obj
 0002:00284d78       $chain$1$my_strntoull10rnd_8bit 00000001802e4d78     strings:ctype-simple.obj
 0002:00284d78       $chain$3$my_strntoull10rnd_8bit 00000001802e4d78     strings:ctype-simple.obj
 0002:00284d88       $chain$2$my_strntoull10rnd_8bit 00000001802e4d88     strings:ctype-simple.obj
 0002:00284d9c       $unwind$my_strxfrm_pad_desc_and_reverse 00000001802e4d9c     strings:ctype-simple.obj
 0002:00284db0       $chain$0$my_strxfrm_pad_desc_and_reverse 00000001802e4db0     strings:ctype-simple.obj
 0002:00284dc4       $chain$1$my_strxfrm_pad_desc_and_reverse 00000001802e4dc4     strings:ctype-simple.obj
 0002:00284dd4       $unwind$fill_uchar         00000001802e4dd4     strings:ctype.obj
 0002:00284de8       $chain$0$fill_uchar        00000001802e4de8     strings:ctype.obj
 0002:00284dfc       $chain$1$fill_uchar        00000001802e4dfc     strings:ctype.obj
 0002:00284e0c       $unwind$fill_uint16        00000001802e4e0c     strings:ctype.obj
 0002:00284e20       $chain$0$fill_uint16       00000001802e4e20     strings:ctype.obj
 0002:00284e34       $chain$1$fill_uint16       00000001802e4e34     strings:ctype.obj
 0002:00284e44       $unwind$tailoring_append   00000001802e4e44     strings:ctype.obj
 0002:00284e58       $chain$0$tailoring_append  00000001802e4e58     strings:ctype.obj
 0002:00284e6c       $chain$1$tailoring_append  00000001802e4e6c     strings:ctype.obj
 0002:00284e7c       $unwind$tailoring_append2  00000001802e4e7c     strings:ctype.obj
 0002:00284e90       $chain$0$tailoring_append2 00000001802e4e90     strings:ctype.obj
 0002:00284ea4       $chain$1$tailoring_append2 00000001802e4ea4     strings:ctype.obj
 0002:00284eb4       $unwind$tailoring_append_abbreviation 00000001802e4eb4     strings:ctype.obj
 0002:00284ecc       $unwind$cs_value           00000001802e4ecc     strings:ctype.obj
 0002:00284ee4       $unwind$my_parse_charset_xml 00000001802e4ee4     strings:ctype.obj
 0002:00284f00       $unwind$my_strnncollsp_euckr_korean_ci 00000001802e4f00     strings:ctype-euc_kr.obj
 0002:00284f00       $unwind$my_strnncoll_euckr_bin 00000001802e4f00     strings:ctype-euc_kr.obj
 0002:00284f00       $unwind$my_strnncoll_cp932_japanese_ci 00000001802e4f00     strings:ctype-cp932.obj
 0002:00284f00       $unwind$my_casedn_utf32    00000001802e4f00     strings:ctype-ucs2.obj
 0002:00284f00       $unwind$my_strnncoll_gb2312_chinese_ci 00000001802e4f00     strings:ctype-gb2312.obj
 0002:00284f00       $unwind$my_strnncoll_big5_chinese_ci 00000001802e4f00     strings:ctype-big5.obj
 0002:00284f00       $unwind$my_strnncoll_sjis_japanese_ci 00000001802e4f00     strings:ctype-sjis.obj
 0002:00284f14       $unwind$str2int            00000001802e4f14     strings:str2int.obj
 0002:00284f34       $unwind$my_strnncoll_win1250ch 00000001802e4f34     strings:ctype-win1250ch.obj
 0002:00284f4c       $unwind$my_strnxfrm_win1250ch 00000001802e4f4c     strings:ctype-win1250ch.obj
 0002:00284f58       $chain$3$my_strnxfrm_win1250ch 00000001802e4f58     strings:ctype-win1250ch.obj
 0002:00284f78       $chain$5$my_strnxfrm_win1250ch 00000001802e4f78     strings:ctype-win1250ch.obj
 0002:00284f90       $chain$6$my_strnxfrm_win1250ch 00000001802e4f90     strings:ctype-win1250ch.obj
 0002:00284fa0       $chain$9$my_strnxfrm_win1250ch 00000001802e4fa0     strings:ctype-win1250ch.obj
 0002:00284fa0       $chain$7$my_strnxfrm_win1250ch 00000001802e4fa0     strings:ctype-win1250ch.obj
 0002:00284fb0       $chain$8$my_strnxfrm_win1250ch 00000001802e4fb0     strings:ctype-win1250ch.obj
 0002:00284fd8       $chain$0$my_like_range_win1250ch 00000001802e4fd8     strings:ctype-win1250ch.obj
 0002:00284fec       $chain$4$my_like_range_win1250ch 00000001802e4fec     strings:ctype-win1250ch.obj
 0002:0028500c       $chain$6$my_like_range_win1250ch 00000001802e500c     strings:ctype-win1250ch.obj
 0002:00285024       $chain$7$my_like_range_win1250ch 00000001802e5024     strings:ctype-win1250ch.obj
 0002:00285034       $chain$8$my_like_range_win1250ch 00000001802e5034     strings:ctype-win1250ch.obj
 0002:00285048       $chain$9$my_like_range_win1250ch 00000001802e5048     strings:ctype-win1250ch.obj
 0002:00285058       $unwind$_tr_flush_block    00000001802e5058     zlib:trees.obj
 0002:00285058       $unwind$my_caseup_mb       00000001802e5058     strings:ctype-mb.obj
 0002:00285058       $unwind$my_charpos_utf16   00000001802e5058     strings:ctype-ucs2.obj
 0002:00285058       $unwind$my_strnncoll_gbk_chinese_ci 00000001802e5058     strings:ctype-gbk.obj
 0002:00285058       $unwind$vio_new_win32shared_memory 00000001802e5058     vio:vio.obj
 0002:00285058       $unwind$my_casedn_mb       00000001802e5058     strings:ctype-mb.obj
 0002:00285058       $unwind$my_charpos_mb      00000001802e5058     strings:ctype-mb.obj
 0002:00285058       $unwind$my_xml_enter       00000001802e5058     strings:xml.obj
 0002:00285058       $unwind$my_copy_incomplete_char 00000001802e5058     strings:ctype-ucs2.obj
 0002:00285070       $unwind$my_copy_fix_mb2_or_mb4 00000001802e5070     strings:ctype-ucs2.obj
 0002:00285084       $chain$1$my_copy_fix_mb2_or_mb4 00000001802e5084     strings:ctype-ucs2.obj
 0002:0028509c       $chain$2$my_copy_fix_mb2_or_mb4 00000001802e509c     strings:ctype-ucs2.obj
 0002:002850ac       $unwind$my_strntol_mb2_or_mb4 00000001802e50ac     strings:ctype-ucs2.obj
 0002:002850c4       $unwind$my_strntoul_mb2_or_mb4 00000001802e50c4     strings:ctype-ucs2.obj
 0002:002850c4       $unwind$my_strntoull_mb2_or_mb4 00000001802e50c4     strings:ctype-ucs2.obj
 0002:002850c4       $unwind$my_like_range_generic 00000001802e50c4     strings:ctype-mb.obj
 0002:002850dc       $unwind$inflate_fast       00000001802e50dc     zlib:inffast.obj
 0002:002850dc       $unwind$my_strntoll_mb2_or_mb4 00000001802e50dc     strings:ctype-ucs2.obj
 0002:002850f4       $unwind$my_strntod_mb2_or_mb4 00000001802e50f4     strings:ctype-ucs2.obj
 0002:00285114       $unwind$my_strntoull10rnd_mb2_or_mb4 00000001802e5114     strings:ctype-ucs2.obj
 0002:00285138       $unwind$my_l10tostr_mb2_or_mb4 00000001802e5138     strings:ctype-ucs2.obj
 0002:00285138       $unwind$my_ll10tostr_mb2_or_mb4 00000001802e5138     strings:ctype-ucs2.obj
 0002:00285150       $unwind$my_strtoll10_mb2   00000001802e5150     strings:ctype-ucs2.obj
 0002:00285168       $unwind$my_fill_mb2        00000001802e5168     strings:ctype-ucs2.obj
 0002:00285180       $unwind$my_vsnprintf_mb2   00000001802e5180     strings:ctype-ucs2.obj
 0002:00285180       $unwind$my_vsnprintf_utf32 00000001802e5180     strings:ctype-ucs2.obj
 0002:00285198       $chain$2$my_vsnprintf_mb2  00000001802e5198     strings:ctype-ucs2.obj
 0002:002851b4       $chain$3$my_vsnprintf_mb2  00000001802e51b4     strings:ctype-ucs2.obj
 0002:002851c4       $unwind$my_strnncoll_utf32_general_ci 00000001802e51c4     strings:ctype-ucs2.obj
 0002:002851c4       $unwind$my_strnncoll_utf16le_general_ci 00000001802e51c4     strings:ctype-ucs2.obj
 0002:002851c4       $unwind$my_strnncoll_ucs2_general_ci 00000001802e51c4     strings:ctype-ucs2.obj
 0002:002851c4       $unwind$my_strnncoll_utf16_general_ci 00000001802e51c4     strings:ctype-ucs2.obj
 0002:002851dc       $unwind$my_strnncollsp_utf32_general_ci 00000001802e51dc     strings:ctype-ucs2.obj
 0002:002851dc       $unwind$my_strnncollsp_utf16le_general_ci 00000001802e51dc     strings:ctype-ucs2.obj
 0002:002851dc       $unwind$my_strnncollsp_utf16_general_ci 00000001802e51dc     strings:ctype-ucs2.obj
 0002:002851dc       $unwind$my_strnncollsp_ucs2_general_ci 00000001802e51dc     strings:ctype-ucs2.obj
 0002:002851f0       $unwind$my_casedn_utf16    00000001802e51f0     strings:ctype-ucs2.obj
 0002:002851f0       $unwind$my_caseup_utf16    00000001802e51f0     strings:ctype-ucs2.obj
 0002:00285208       $chain$0$my_caseup_utf16   00000001802e5208     strings:ctype-ucs2.obj
 0002:0028521c       $chain$1$my_caseup_utf16   00000001802e521c     strings:ctype-ucs2.obj
 0002:0028522c       $unwind$my_hash_sort_utf16 00000001802e522c     strings:ctype-ucs2.obj
 0002:00285244       $chain$0$my_casedn_utf16   00000001802e5244     strings:ctype-ucs2.obj
 0002:00285258       $chain$1$my_casedn_utf16   00000001802e5258     strings:ctype-ucs2.obj
 0002:00285268       $unwind$my_strnncoll_utf16le_bin 00000001802e5268     strings:ctype-ucs2.obj
 0002:0028527c       $unwind$my_strnncollsp_utf16le_bin 00000001802e527c     strings:ctype-ucs2.obj
 0002:0028528c       $unwind$pqdownheap         00000001802e528c     zlib:trees.obj
 0002:0028528c       $unwind$my_caseup_utf32    00000001802e528c     strings:ctype-ucs2.obj
 0002:00285298       $chain$1$my_caseup_utf32   00000001802e5298     strings:ctype-ucs2.obj
 0002:002852b0       $chain$2$my_caseup_utf32   00000001802e52b0     strings:ctype-ucs2.obj
 0002:002852c0       $unwind$my_hash_sort_utf32 00000001802e52c0     strings:ctype-ucs2.obj
 0002:002852dc       $chain$2$my_vsnprintf_utf32 00000001802e52dc     strings:ctype-ucs2.obj
 0002:002852f8       $chain$3$my_vsnprintf_utf32 00000001802e52f8     strings:ctype-ucs2.obj
 0002:00285308       $unwind$my_strtoll10_utf32 00000001802e5308     strings:ctype-ucs2.obj
 0002:0028531c       $chain$1$my_strtoll10_utf32 00000001802e531c     strings:ctype-ucs2.obj
 0002:00285334       $chain$3$my_strtoll10_utf32 00000001802e5334     strings:ctype-ucs2.obj
 0002:0028534c       $chain$4$my_strtoll10_utf32 00000001802e534c     strings:ctype-ucs2.obj
 0002:0028535c       $unwind$my_fill_utf32      00000001802e535c     strings:ctype-ucs2.obj
 0002:00285370       $unwind$crc32_little       00000001802e5370     zlib:crc32.obj
 0002:00285370       $unwind$my_caseup_ucs2     00000001802e5370     strings:ctype-ucs2.obj
 0002:00285370       $unwind$my_casedn_ucs2     00000001802e5370     strings:ctype-ucs2.obj
 0002:00285378       $chain$0$my_caseup_ucs2    00000001802e5378     strings:ctype-ucs2.obj
 0002:0028538c       $chain$1$my_caseup_ucs2    00000001802e538c     strings:ctype-ucs2.obj
 0002:0028539c       $unwind$my_hash_sort_ucs2  00000001802e539c     strings:ctype-ucs2.obj
 0002:002853b0       $chain$0$my_hash_sort_ucs2 00000001802e53b0     strings:ctype-ucs2.obj
 0002:002853c4       $chain$1$my_hash_sort_ucs2 00000001802e53c4     strings:ctype-ucs2.obj
 0002:002853d4       $chain$0$my_casedn_ucs2    00000001802e53d4     strings:ctype-ucs2.obj
 0002:002853e8       $chain$1$my_casedn_ucs2    00000001802e53e8     strings:ctype-ucs2.obj
 0002:002853f8       $chain$0$my_well_formed_len_euckr 00000001802e53f8     strings:ctype-euc_kr.obj
 0002:0028540c       $chain$2$my_well_formed_len_euckr 00000001802e540c     strings:ctype-euc_kr.obj
 0002:00285420       $chain$3$my_well_formed_len_euckr 00000001802e5420     strings:ctype-euc_kr.obj
 0002:00285430       $unwind$my_strnncollsp_ujis_japanese_ci 00000001802e5430     strings:ctype-ujis.obj
 0002:00285430       $unwind$my_strnncollsp_eucjpms_japanese_ci 00000001802e5430     strings:ctype-eucjpms.obj
 0002:00285448       $unwind$my_strnncoll_eucjpms_bin 00000001802e5448     strings:ctype-eucjpms.obj
 0002:00285448       $unwind$my_strnncoll_ujis_bin 00000001802e5448     strings:ctype-ujis.obj
 0002:00285460       $unwind$my_strnncollsp_eucjpms_bin 00000001802e5460     strings:ctype-eucjpms.obj
 0002:00285460       $unwind$my_strnncollsp_ujis_bin 00000001802e5460     strings:ctype-ujis.obj
 0002:00285474       $unwind$my_casefold_ujis   00000001802e5474     strings:ctype-ujis.obj
 0002:00285488       $chain$1$my_casefold_ujis  00000001802e5488     strings:ctype-ujis.obj
 0002:002854a0       $chain$2$my_casefold_ujis  00000001802e54a0     strings:ctype-ujis.obj
 0002:002854b0       $unwind$my_strnncoll_czech 00000001802e54b0     strings:ctype-czech.obj
 0002:002854c8       $unwind$my_strnxfrm_czech  00000001802e54c8     strings:ctype-czech.obj
 0002:002854e4       $unwind$my_like_range_czech 00000001802e54e4     strings:ctype-czech.obj
 0002:002854e4       $unwind$__acrt_get_sigabrt_handler 00000001802e54e4     libucrt:signal.obj
 0002:002854ec       $chain$0$my_like_range_czech 00000001802e54ec     strings:ctype-czech.obj
 0002:00285500       $chain$7$my_like_range_czech 00000001802e5500     strings:ctype-czech.obj
 0002:0028552c       $chain$8$my_like_range_czech 00000001802e552c     strings:ctype-czech.obj
 0002:00285544       $chain$9$my_like_range_czech 00000001802e5544     strings:ctype-czech.obj
 0002:00285554       $unwind$my_strnxfrm_big5   00000001802e5554     strings:ctype-big5.obj
 0002:00285554       $unwind$__C_specific_handler 00000001802e5554     libvcruntime:_chandler_.obj
 0002:00285554       $unwind$my_copy_fix_mb     00000001802e5554     strings:ctype-mb.obj
 0002:00285570       $unwind$thai2sortable      00000001802e5570     strings:ctype-tis620.obj
 0002:00285580       $chain$2$thai2sortable     00000001802e5580     strings:ctype-tis620.obj
 0002:0028559c       $chain$3$thai2sortable     00000001802e559c     strings:ctype-tis620.obj
 0002:002855ac       $unwind$my_strnncoll_tis620 00000001802e55ac     strings:ctype-tis620.obj
 0002:002855c4       $chain$0$my_strnncoll_tis620 00000001802e55c4     strings:ctype-tis620.obj
 0002:002855d8       $chain$1$my_strnncoll_tis620 00000001802e55d8     strings:ctype-tis620.obj
 0002:002855e8       $unwind$my_strnncollsp_tis620 00000001802e55e8     strings:ctype-tis620.obj
 0002:00285604       $chain$0$my_strnncollsp_tis620 00000001802e5604     strings:ctype-tis620.obj
 0002:00285618       $chain$1$my_strnncollsp_tis620 00000001802e5618     strings:ctype-tis620.obj
 0002:00285628       $unwind$_wcsicmp_l         00000001802e5628     libucrt:wcsicmp.obj
 0002:00285628       $unwind$_strnicmp_l        00000001802e5628     libucrt:strnicmp.obj
 0002:00285628       $unwind$my_strnxfrm_tis620 00000001802e5628     strings:ctype-tis620.obj
 0002:0028563c       $unwind$my_casefold_mb_varlen 00000001802e563c     strings:ctype-mb.obj
 0002:00285650       $chain$0$my_casefold_mb_varlen 00000001802e5650     strings:ctype-mb.obj
 0002:00285664       $chain$1$my_casefold_mb_varlen 00000001802e5664     strings:ctype-mb.obj
 0002:00285674       $unwind$my_append_fix_badly_formed_tail 00000001802e5674     strings:ctype-mb.obj
 0002:0028568c       $chain$0$my_append_fix_badly_formed_tail 00000001802e568c     strings:ctype-mb.obj
 0002:002856a0       $chain$1$my_append_fix_badly_formed_tail 00000001802e56a0     strings:ctype-mb.obj
 0002:002856b0       $unwind$??$common_set_variable_in_environment_nolock@_W@@YAHQEA_WH@Z 00000001802e56b0     libucrt:setenv.obj
 0002:002856b0       $unwind$my_instr_mb        00000001802e56b0     strings:ctype-mb.obj
 0002:002856cc       $unwind$pad_max_char       00000001802e56cc     strings:ctype-mb.obj
 0002:002856e4       $unwind$my_like_range_mb   00000001802e56e4     strings:ctype-mb.obj
 0002:002856fc       $unwind$my_wildcmp_mb_bin_impl 00000001802e56fc     strings:ctype-mb.obj
 0002:00285710       $unwind$my_numcells_mb     00000001802e5710     strings:ctype-mb.obj
 0002:00285720       $chain$0$my_numcells_mb    00000001802e5720     strings:ctype-mb.obj
 0002:00285734       $chain$1$my_numcells_mb    00000001802e5734     strings:ctype-mb.obj
 0002:00285744       $unwind$my_xml_leave       00000001802e5744     strings:xml.obj
 0002:00285764       $unwind$my_xml_parse       00000001802e5764     strings:xml.obj
 0002:00285780       $unwind$strerror_s         00000001802e5780     libucrt:strerror.obj
 0002:00285780       $unwind$vio_init           00000001802e5780     vio:vio.obj
 0002:00285794       $chain$0$vio_delete        00000001802e5794     vio:vio.obj
 0002:002857a8       $chain$1$vio_delete        00000001802e57a8     vio:vio.obj
 0002:002857bc       $chain$2$vio_delete        00000001802e57bc     vio:vio.obj
 0002:002857cc       $chain$3$vio_delete        00000001802e57cc     vio:vio.obj
 0002:002857dc       $unwind$inline_mysql_socket_shutdown 00000001802e57dc     vio:viosocket.obj
 0002:002857ec       $unwind$vio_read           00000001802e57ec     vio:viosocket.obj
 0002:002857ec       $unwind$vio_write          00000001802e57ec     vio:viosocket.obj
 0002:00285800       $unwind$vio_read_buff      00000001802e5800     vio:viosocket.obj
 0002:00285810       $chain$0$vio_read_buff     00000001802e5810     vio:viosocket.obj
 0002:00285824       $chain$1$vio_read_buff     00000001802e5824     vio:viosocket.obj
 0002:00285834       $unwind$vio_close          00000001802e5834     vio:viosocket.obj
 0002:00285844       $unwind$vio_peer_addr      00000001802e5844     vio:viosocket.obj
 0002:0028585c       $chain$0$vio_peer_addr     00000001802e585c     vio:viosocket.obj
 0002:00285870       $chain$1$vio_peer_addr     00000001802e5870     vio:viosocket.obj
 0002:00285880       $unwind$vio_io_wait        00000001802e5880     vio:viosocket.obj
 0002:00285898       $chain$1$vio_io_wait       00000001802e5898     vio:viosocket.obj
 0002:002858b0       $chain$2$vio_io_wait       00000001802e58b0     vio:viosocket.obj
 0002:002858c0       $unwind$vio_read_shared_memory 00000001802e58c0     vio:vioshm.obj
 0002:002858d8       $unwind$vio_write_shared_memory 00000001802e58d8     vio:vioshm.obj
 0002:002858f4       $unwind$uncompress         00000001802e58f4     zlib:uncompr.obj
 0002:00285900       $chain$0$uncompress        00000001802e5900     zlib:uncompr.obj
 0002:00285914       $chain$1$uncompress        00000001802e5914     zlib:uncompr.obj
 0002:00285924       $chain$1$deflateInit2_     00000001802e5924     zlib:deflate.obj
 0002:0028593c       $chain$3$deflateInit2_     00000001802e593c     zlib:deflate.obj
 0002:00285954       $unwind$flush_pending      00000001802e5954     zlib:deflate.obj
 0002:00285964       $chain$0$flush_pending     00000001802e5964     zlib:deflate.obj
 0002:00285978       $chain$1$flush_pending     00000001802e5978     zlib:deflate.obj
 0002:00285988       $unwind$deflate            00000001802e5988     zlib:deflate.obj
 0002:00285994       $chain$0$deflate           00000001802e5994     zlib:deflate.obj
 0002:002859a8       $chain$1$deflate           00000001802e59a8     zlib:deflate.obj
 0002:002859bc       $chain$2$deflate           00000001802e59bc     zlib:deflate.obj
 0002:002859cc       $chain$4$deflate           00000001802e59cc     zlib:deflate.obj
 0002:002859cc       $chain$8$deflate           00000001802e59cc     zlib:deflate.obj
 0002:002859cc       $chain$6$deflate           00000001802e59cc     zlib:deflate.obj
 0002:002859e0       $chain$9$deflate           00000001802e59e0     zlib:deflate.obj
 0002:002859f0       $chain$0$deflateEnd        00000001802e59f0     zlib:deflate.obj
 0002:00285a04       $chain$2$deflateEnd        00000001802e5a04     zlib:deflate.obj
 0002:00285a18       $chain$3$deflateEnd        00000001802e5a18     zlib:deflate.obj
 0002:00285a28       $unwind$read_buf           00000001802e5a28     zlib:deflate.obj
 0002:00285a3c       $chain$0$fill_window       00000001802e5a3c     zlib:deflate.obj
 0002:00285a50       $chain$1$fill_window       00000001802e5a50     zlib:deflate.obj
 0002:00285a60       $unwind$deflate_stored     00000001802e5a60     zlib:deflate.obj
 0002:00285a80       $unwind$deflate_fast       00000001802e5a80     zlib:deflate.obj
 0002:00285a9c       $unwind$deflate_slow       00000001802e5a9c     zlib:deflate.obj
 0002:00285ab8       $unwind$deflate_rle        00000001802e5ab8     zlib:deflate.obj
 0002:00285ad8       $unwind$deflate_huff       00000001802e5ad8     zlib:deflate.obj
 0002:00285af4       $chain$0$inflateReset2     00000001802e5af4     zlib:inflate.obj
 0002:00285b08       $chain$2$inflateReset2     00000001802e5b08     zlib:inflate.obj
 0002:00285b1c       $chain$3$inflateReset2     00000001802e5b1c     zlib:inflate.obj
 0002:00285b2c       $chain$1$inflateInit2_     00000001802e5b2c     zlib:inflate.obj
 0002:00285b44       $chain$4$inflateInit2_     00000001802e5b44     zlib:inflate.obj
 0002:00285b60       $chain$0$updatewindow      00000001802e5b60     zlib:inflate.obj
 0002:00285b74       $chain$1$updatewindow      00000001802e5b74     zlib:inflate.obj
 0002:00285b84       $unwind$inflate            00000001802e5b84     zlib:inflate.obj
 0002:00285b94       $chain$3$inflate           00000001802e5b94     zlib:inflate.obj
 0002:00285bb4       $chain$5$inflate           00000001802e5bb4     zlib:inflate.obj
 0002:00285bd4       $chain$6$inflate           00000001802e5bd4     zlib:inflate.obj
 0002:00285be4       $chain$1$pqdownheap        00000001802e5be4     zlib:trees.obj
 0002:00285bfc       $chain$3$pqdownheap        00000001802e5bfc     zlib:trees.obj
 0002:00285c14       $chain$4$pqdownheap        00000001802e5c14     zlib:trees.obj
 0002:00285c24       $unwind$gen_bitlen         00000001802e5c24     zlib:trees.obj
 0002:00285c3c       $chain$0$gen_bitlen        00000001802e5c3c     zlib:trees.obj
 0002:00285c50       $chain$1$gen_bitlen        00000001802e5c50     zlib:trees.obj
 0002:00285c60       $unwind$gen_codes          00000001802e5c60     zlib:trees.obj
 0002:00285c70       $unwind$scan_tree          00000001802e5c70     zlib:trees.obj
 0002:00285c7c       $chain$4$scan_tree         00000001802e5c7c     zlib:trees.obj
 0002:00285ca0       $chain$5$scan_tree         00000001802e5ca0     zlib:trees.obj
 0002:00285cb0       $chain$6$send_tree         00000001802e5cb0     zlib:trees.obj
 0002:00285cdc       $chain$7$send_tree         00000001802e5cdc     zlib:trees.obj
 0002:00285cec       $unwind$compress_block     00000001802e5cec     zlib:trees.obj
 0002:00285cf8       $chain$1$compress_block    00000001802e5cf8     zlib:trees.obj
 0002:00285d10       $chain$4$compress_block    00000001802e5d10     zlib:trees.obj
 0002:00285d2c       $chain$5$compress_block    00000001802e5d2c     zlib:trees.obj
 0002:00285d3c       $chain$6$compress_block    00000001802e5d3c     zlib:trees.obj
 0002:00285d4c       $chain$0$crc32_little      00000001802e5d4c     zlib:crc32.obj
 0002:00285d60       $chain$1$crc32_little      00000001802e5d60     zlib:crc32.obj
 0002:00285d70       $unwind$inflate_table      00000001802e5d70     zlib:inftrees.obj
 0002:00285d90       $chain$0$inflate_table     00000001802e5d90     zlib:inftrees.obj
 0002:00285da4       $chain$2$inflate_table     00000001802e5da4     zlib:inftrees.obj
 0002:00285db8       $chain$3$inflate_table     00000001802e5db8     zlib:inftrees.obj
 0002:00285dc8       $unwind$?Transform@SHA@TaoCrypt@@EEAAXXZ 00000001802e5dc8     taocrypt:sha.obj
 0002:00285de0       $unwind$?Update@HASHwithTransform@TaoCrypt@@UEAAXPEBEI@Z 00000001802e5de0     taocrypt:hash.obj
 0002:00285df0       $chain$2$?Update@HASHwithTransform@TaoCrypt@@UEAAXPEBEI@Z 00000001802e5df0     taocrypt:hash.obj
 0002:00285e0c       $chain$3$?Update@HASHwithTransform@TaoCrypt@@UEAAXPEBEI@Z 00000001802e5e0c     taocrypt:hash.obj
 0002:00285e1c       $unwind$?Final@HASHwithTransform@TaoCrypt@@UEAAXPEAE@Z 00000001802e5e1c     taocrypt:hash.obj
 0002:00285e34       xdata                      00000001802e5e34     node:node.exe
 0002:00285e40       $xdatasym                  00000001802e5e40     LIBCMT:_amdsecgs_.obj
 0002:00285e44       $unwind$__scrt_is_nonwritable_in_current_image 00000001802e5e44     LIBCMT:utility.obj
 0002:00285e64       $unwind$__scrt_is_nonwritable_in_current_image$filt$0 00000001802e5e64     LIBCMT:utility.obj
 0002:00285e6c       $unwind$__scrt_initialize_onexit_tables 00000001802e5e6c     LIBCMT:utility.obj
 0002:00285e78       $unwind$?dllmain_crt_process_attach@@YAHQEAUHINSTANCE__@@QEAX@Z 00000001802e5e78     LIBCMT:dll_dllmain.obj
 0002:00285ea4       $unwind$?dllmain_crt_process_detach@@YAH_N@Z 00000001802e5ea4     LIBCMT:dll_dllmain.obj
 0002:00285ecc       $unwind$?dllmain_dispatch@@YAHQEAUHINSTANCE__@@KQEAX@Z 00000001802e5ecc     LIBCMT:dll_dllmain.obj
 0002:00285ef4       $unwind$?fin$0@?0???$common_getenv_s@D@@YAHQEA_KQEAD_KQEBD@Z@4HA 00000001802e5ef4     libucrt:getenv.obj
 0002:00285ef4       $unwind$?filt$0@?0??dllmain_dispatch@@YAHQEAUHINSTANCE__@@KQEAX@Z@4HA 00000001802e5ef4     LIBCMT:dll_dllmain.obj
 0002:00285efc       $unwind$__report_securityfailure 00000001802e5efc     LIBCMT:gs_report.obj
 0002:00285f04       $unwind$capture_current_context 00000001802e5f04     LIBCMT:gs_report.obj
 0002:00285f10       $unwind$capture_previous_context 00000001802e5f10     LIBCMT:gs_report.obj
 0002:00285f1c       $unwind$__isa_available_init 00000001802e5f1c     LIBCMT:_cpu_disp_.obj
 0002:00285f2c       $unwind$__scrt_fastfail    00000001802e5f2c     LIBCMT:utility_desktop.obj
 0002:00285f3c       $unwind$__security_init_cookie 00000001802e5f3c     LIBCMT:gs_support.obj
 0002:00285f48       $xdatasym                  00000001802e5f48     LIBCMT:_guard_dispatch_.obj
 0002:00285f50       $xdatasym                  00000001802e5f50     libvcruntime:memcpy.obj
 0002:00285f54       $unwind$strstr             00000001802e5f54     libvcruntime:strstr.obj
 0002:00285f64       $unwind$strchr             00000001802e5f64     libvcruntime:strchr.obj
 0002:00285f64       $unwind$strrchr            00000001802e5f64     libvcruntime:strrchr.obj
 0002:00285f64       $unwind$wcschr             00000001802e5f64     libvcruntime:wcschr.obj
 0002:00285f6c       $unwind$_CxxThrowException 00000001802e5f6c     libvcruntime:throw.obj
 0002:00285f80       $xdatasym                  00000001802e5f80     libvcruntime:memset.obj
 0002:00285f88       $xdatasym                  00000001802e5f88     libvcruntime:_jmpuwind_.obj
 0002:00285f9c       $unwind$__stdio_common_vswprintf 00000001802e5f9c     libucrt:output.obj
 0002:00285f9c       $unwind$__stdio_common_vsprintf 00000001802e5f9c     libucrt:output.obj
 0002:00285fc0       $unwind$__stdio_common_vfwprintf 00000001802e5fc0     libucrt:output.obj
 0002:00285fc0       $unwind$__stdio_common_vfprintf 00000001802e5fc0     libucrt:output.obj
 0002:00285fc8       $unwind$?write_string@?$stream_output_adapter@_W@__crt_stdio_output@@QEBAXQEB_WHQEAH1@Z 00000001802e5fc8     libucrt:output.obj
 0002:00285fe0       $unwind$?process@?$output_processor@_WV?$stream_output_adapter@_W@__crt_stdio_output@@V?$standard_base@_WV?$stream_output_adapter@_W@__crt_stdio_output@@@2@@__crt_stdio_output@@QEAAHXZ 00000001802e5fe0     libucrt:output.obj
 0002:00285ff8       $unwind$?state_case_type@?$output_processor@_WV?$stream_output_adapter@_W@__crt_stdio_output@@V?$standard_base@_WV?$stream_output_adapter@_W@__crt_stdio_output@@@2@@__crt_stdio_output@@AEAA_NXZ 00000001802e5ff8     libucrt:output.obj
 0002:00285ff8       $unwind$?state_case_type@?$output_processor@_WV?$string_output_adapter@_W@__crt_stdio_output@@V?$standard_base@_WV?$string_output_adapter@_W@__crt_stdio_output@@@2@@__crt_stdio_output@@AEAA_NXZ 00000001802e5ff8     libucrt:output.obj
 0002:0028601c       $unwind$?type_case_a@?$output_processor@_WV?$string_output_adapter@_W@__crt_stdio_output@@V?$standard_base@_WV?$string_output_adapter@_W@__crt_stdio_output@@@2@@__crt_stdio_output@@AEAA_NXZ 00000001802e601c     libucrt:output.obj
 0002:0028601c       $unwind$?type_case_a@?$output_processor@_WV?$stream_output_adapter@_W@__crt_stdio_output@@V?$standard_base@_WV?$stream_output_adapter@_W@__crt_stdio_output@@@2@@__crt_stdio_output@@AEAA_NXZ 00000001802e601c     libucrt:output.obj
 0002:0028602c       $unwind$?write_stored_string_tchar@?$output_processor@_WV?$stream_output_adapter@_W@__crt_stdio_output@@V?$standard_base@_WV?$stream_output_adapter@_W@__crt_stdio_output@@@2@@__crt_stdio_output@@AEAA_N_W@Z 00000001802e602c     libucrt:output.obj
 0002:00286040       $unwind$??R<lambda_0a64b6a4deda75c01876f29c44fc5eb3>@@QEBAHXZ 00000001802e6040     libucrt:output.obj
 0002:00286040       $unwind$??R<lambda_dd75445284c072d0bd3768540cc698fa>@@QEBAHXZ 00000001802e6040     libucrt:output.obj
 0002:0028605c       $unwind$?write_string@?$string_output_adapter@D@__crt_stdio_output@@QEBAXQEBDHQEAH1@Z 00000001802e605c     libucrt:output.obj
 0002:0028605c       $unwind$??$parse_command_line@D@@YAXPEADPEAPEAD0PEA_K2@Z 00000001802e605c     libucrt:argv_parsing.obj
 0002:0028605c       $unwind$??$create_environment_string@D@@YAPEADQEBD0@Z 00000001802e605c     libucrt:putenv.obj
 0002:0028605c       $unwind$??R<lambda_4e60a939b0d047cfe11ddc22648dfba9>@@QEBAHXZ 00000001802e605c     libucrt:onexit.obj
 0002:00286078       $unwind$?process@?$output_processor@DV?$stream_output_adapter@D@__crt_stdio_output@@V?$standard_base@DV?$stream_output_adapter@D@__crt_stdio_output@@@2@@__crt_stdio_output@@QEAAHXZ 00000001802e6078     libucrt:output.obj
 0002:00286078       $unwind$?process@?$output_processor@DV?$string_output_adapter@D@__crt_stdio_output@@V?$standard_base@DV?$string_output_adapter@D@__crt_stdio_output@@@2@@__crt_stdio_output@@QEAAHXZ 00000001802e6078     libucrt:output.obj
 0002:00286088       $unwind$?parse_int_from_format_string@?$output_processor@DV?$string_output_adapter@D@__crt_stdio_output@@V?$standard_base@DV?$string_output_adapter@D@__crt_stdio_output@@@2@@__crt_stdio_output@@AEAA_NQEAH@Z 00000001802e6088     libucrt:output.obj
 0002:00286088       $unwind$?parse_int_from_format_string@?$output_processor@DV?$stream_output_adapter@D@__crt_stdio_output@@V?$standard_base@DV?$stream_output_adapter@D@__crt_stdio_output@@@2@@__crt_stdio_output@@AEAA_NQEAH@Z 00000001802e6088     libucrt:output.obj
 0002:0028609c       $unwind$?configure_text_mode@@YAHHUfile_options@?A0x656cf9f4@@HAEAW4__crt_lowio_text_mode@@@Z 00000001802e609c     libucrt:open.obj
 0002:0028609c       $unwind$?state_case_type@?$output_processor@DV?$string_output_adapter@D@__crt_stdio_output@@V?$standard_base@DV?$string_output_adapter@D@__crt_stdio_output@@@2@@__crt_stdio_output@@AEAA_NXZ 00000001802e609c     libucrt:output.obj
 0002:0028609c       $unwind$?state_case_type@?$output_processor@DV?$stream_output_adapter@D@__crt_stdio_output@@V?$standard_base@DV?$stream_output_adapter@D@__crt_stdio_output@@@2@@__crt_stdio_output@@AEAA_NXZ 00000001802e609c     libucrt:output.obj
 0002:002860b4       $unwind$?type_case_a@?$output_processor@DV?$stream_output_adapter@D@__crt_stdio_output@@V?$standard_base@DV?$stream_output_adapter@D@__crt_stdio_output@@@2@@__crt_stdio_output@@AEAA_NXZ 00000001802e60b4     libucrt:output.obj
 0002:002860b4       $unwind$?type_case_a@?$output_processor@DV?$string_output_adapter@D@__crt_stdio_output@@V?$standard_base@DV?$string_output_adapter@D@__crt_stdio_output@@@2@@__crt_stdio_output@@AEAA_NXZ 00000001802e60b4     libucrt:output.obj
 0002:002860c0       $unwind$?write_stored_string_tchar@?$output_processor@DV?$stream_output_adapter@D@__crt_stdio_output@@V?$standard_base@DV?$stream_output_adapter@D@__crt_stdio_output@@@2@@__crt_stdio_output@@AEAA_ND@Z 00000001802e60c0     libucrt:output.obj
 0002:002860c0       $unwind$?write_stored_string_tchar@?$output_processor@DV?$string_output_adapter@D@__crt_stdio_output@@V?$standard_base@DV?$string_output_adapter@D@__crt_stdio_output@@@2@@__crt_stdio_output@@AEAA_ND@Z 00000001802e60c0     libucrt:output.obj
 0002:002860d8       $unwind$?write_stored_string_tchar@?$output_processor@_WV?$string_output_adapter@_W@__crt_stdio_output@@V?$standard_base@_WV?$string_output_adapter@_W@__crt_stdio_output@@@2@@__crt_stdio_output@@AEAA_N_W@Z 00000001802e60d8     libucrt:output.obj
 0002:002860d8       $unwind$?cvtdate@@YAXW4transition_type@?A0x1b14ceb2@@W4date_type@2@HHHHHHHHH@Z 00000001802e60d8     libucrt:tzset.obj
 0002:002860ec       $unwind$??$write_multiple_characters@V?$stream_output_adapter@D@__crt_stdio_output@@D@__crt_stdio_output@@YAXAEBV?$stream_output_adapter@D@0@DHQEAH@Z 00000001802e60ec     libucrt:output.obj
 0002:00286104       $unwind$??$write_multiple_characters@V?$stream_output_adapter@_W@__crt_stdio_output@@D@__crt_stdio_output@@YAXAEBV?$stream_output_adapter@_W@0@DHQEAH@Z 00000001802e6104     libucrt:output.obj
 0002:0028611c       $unwind$??$write_multiple_characters@V?$string_output_adapter@_W@__crt_stdio_output@@D@__crt_stdio_output@@YAXAEBV?$string_output_adapter@_W@0@DHQEAH@Z 00000001802e611c     libucrt:output.obj
 0002:00286128       $unwind$??$?RV<lambda_aa279a7bcb127014629d5b1d62c7325d>@@AEAV<lambda_0a64b6a4deda75c01876f29c44fc5eb3>@@V<lambda_3323e69fbefe9d1a11713e670d47cdfa>@@@?$__crt_seh_guarded_call@H@@QEAAH$$QEAV<lambda_aa279a7bcb127014629d5b1d62c7325d>@@AEAV<lambda_0a64b6a4deda75c01876f29c44fc5eb3>@@$$QEAV<lambda_3323e69fbefe9d1a11713e670d47cdfa>@@@Z 00000001802e6128     libucrt:output.obj
 0002:0028614c       $unwind$??$?RV<lambda_7b91131dde12e1c3dfc74ff76b3f2eac>@@AEAV<lambda_dd75445284c072d0bd3768540cc698fa>@@V<lambda_16bc4ecb55b4718497c16bceaea2ceaf>@@@?$__crt_seh_guarded_call@H@@QEAAH$$QEAV<lambda_7b91131dde12e1c3dfc74ff76b3f2eac>@@AEAV<lambda_dd75445284c072d0bd3768540cc698fa>@@$$QEAV<lambda_16bc4ecb55b4718497c16bceaea2ceaf>@@@Z 00000001802e614c     libucrt:output.obj
 0002:00286170       $unwind$_stricmp_l         00000001802e6170     libucrt:stricmp.obj
 0002:00286170       $unwind$?x_ismbbtype_l@@YAHPEAU__crt_locale_pointers@@IHH@Z 00000001802e6170     libucrt:ismbbyte.obj
 0002:00286180       $unwind$??$common_assert_to_stderr@_W@@YAXQEB_W0I@Z 00000001802e6180     libucrt:assert.obj
 0002:0028619c       $unwind$??$common_assert_to_message_box@_W@@YAXQEB_W0IQEAX@Z 00000001802e619c     libucrt:assert.obj
 0002:002861b8       $unwind$??$common_assert_to_message_box_build_string@_W@@YAXQEA_W_KQEB_W2IQEAX@Z 00000001802e61b8     libucrt:assert.obj
 0002:002861d8       $unwind$?common_exit@@YAXHW4_crt_exit_cleanup_mode@@W4_crt_exit_return_mode@@@Z 00000001802e61d8     libucrt:exit.obj
 0002:00286218       $unwind$??$parse_integer@KV?$c_string_character_source@D@__crt_strtox@@@__crt_strtox@@YAKQEAU__crt_locale_pointers@@V?$c_string_character_source@D@0@H_N@Z 00000001802e6218     libucrt:strtox.obj
 0002:00286234       $unwind$??$parse_integer@KV?$c_string_character_source@_W@__crt_strtox@@@__crt_strtox@@YAKQEAU__crt_locale_pointers@@V?$c_string_character_source@_W@0@H_N@Z 00000001802e6234     libucrt:strtox.obj
 0002:00286250       $xdatasym                  00000001802e6250     libucrt:strncmp.obj
 0002:00286254       $unwind$??$common_getenv@D@@YAPEADQEBD@Z 00000001802e6254     libucrt:getenv.obj
 0002:00286274       $unwind$??$common_getenv_s@D@@YAHQEA_KQEAD_KQEBD@Z 00000001802e6274     libucrt:getenv.obj
 0002:002862b4       $unwind$signal             00000001802e62b4     libucrt:signal.obj
 0002:002862e0       $unwind$raise              00000001802e62e0     libucrt:signal.obj
 0002:0028630c       $unwind$?ctrlevent_capture@@YAHK@Z 00000001802e630c     libucrt:signal.obj
 0002:00286330       $unwind$??$?RV<lambda_c36588078e9f5dfd39652860aa6b3aaf>@@AEAV<lambda_ec61778202f4f5fc7e7711acc23c3bca>@@V<lambda_dc9d2797ccde5d239b4a0efae8ebd7db>@@@?$__crt_seh_guarded_call@P6AXH@Z@@QEAAP6AXH@Z$$QEAV<lambda_c36588078e9f5dfd39652860aa6b3aaf>@@AEAV<lambda_ec61778202f4f5fc7e7711acc23c3bca>@@$$QEAV<lambda_dc9d2797ccde5d239b4a0efae8ebd7db>@@@Z 00000001802e6330     libucrt:signal.obj
 0002:00286354       $unwind$fputc              00000001802e6354     libucrt:fputc.obj
 0002:00286388       $unwind$??$?RV<lambda_25e01c9ba3607ae47bf7ea803dd53646>@@AEAV<lambda_55f9cbce55698c0319f95c01c080475b>@@V<lambda_1e572b46264c157efb34a6cfecbbfc9c>@@@?$__crt_seh_guarded_call@H@@QEAAH$$QEAV<lambda_25e01c9ba3607ae47bf7ea803dd53646>@@AEAV<lambda_55f9cbce55698c0319f95c01c080475b>@@$$QEAV<lambda_1e572b46264c157efb34a6cfecbbfc9c>@@@Z 00000001802e6388     libucrt:puts.obj
 0002:002863ac       $unwind$??$common_fgets@D@@YAPEADQEADHV__crt_stdio_stream@@@Z 00000001802e63ac     libucrt:fgets.obj
 0002:002863d8       $unwind$fputs              00000001802e63d8     libucrt:fputs.obj
 0002:002863e0       $unwind$??$?RV<lambda_a81aa23bb2c9577c1e55b9d0b57d9de4>@@AEAV<lambda_9a20e10065b92b5193c3597a66cba9d4>@@V<lambda_cb3a421ff86d8a5f008440ee6b28fa9c>@@@?$__crt_seh_guarded_call@H@@QEAAH$$QEAV<lambda_a81aa23bb2c9577c1e55b9d0b57d9de4>@@AEAV<lambda_9a20e10065b92b5193c3597a66cba9d4>@@$$QEAV<lambda_cb3a421ff86d8a5f008440ee6b28fa9c>@@@Z 00000001802e63e0     libucrt:fputs.obj
 0002:00286404       $unwind$_tzset             00000001802e6404     libucrt:tzset.obj
 0002:00286424       $unwind$_isindst           00000001802e6424     libucrt:tzset.obj
 0002:00286444       $unwind$__tzset            00000001802e6444     libucrt:tzset.obj
 0002:00286464       $unwind$?tzset_from_system_nolock@@YAXXZ 00000001802e6464     libucrt:tzset.obj
 0002:00286474       $unwind$?tzset_from_environment_nolock@@YAXPEAD@Z 00000001802e6474     libucrt:tzset.obj
 0002:00286488       $unwind$?tzset_nolock@@YAXXZ 00000001802e6488     libucrt:tzset.obj
 0002:002864a4       $unwind$?_isindst_nolock@@YAHQEAUtm@@@Z 00000001802e64a4     libucrt:tzset.obj
 0002:002864c0       $unwind$__acrt_call_reportfault 00000001802e64c0     libucrt:invalid_parameter.obj
 0002:002864e0       $unwind$_findfirst64i32    00000001802e64e0     libucrt:findfile.obj
 0002:002864fc       $unwind$_findnext64i32     00000001802e64fc     libucrt:findfile.obj
 0002:00286518       $unwind$??$common_find_first_wide@U_wfinddata64i32_t@@@@YA_JQEB_WQEAU_wfinddata64i32_t@@@Z 00000001802e6518     libucrt:findfile.obj
 0002:00286534       $unwind$??$common_find_next_wide@U_wfinddata64i32_t@@@@YAH_JQEAU_wfinddata64i32_t@@@Z 00000001802e6534     libucrt:findfile.obj
 0002:0028654c       $unwind$??$?RV<lambda_bfedae4ebbf01fab1bb6dcc6a9e276e0>@@AEAV<lambda_2fe9b910cf3cbf4a0ab98a02ba45b3ec>@@V<lambda_237c231691f317818eb88cc1d5d642d6>@@@?$__crt_seh_guarded_call@H@@QEAAH$$QEAV<lambda_bfedae4ebbf01fab1bb6dcc6a9e276e0>@@AEAV<lambda_2fe9b910cf3cbf4a0ab98a02ba45b3ec>@@$$QEAV<lambda_237c231691f317818eb88cc1d5d642d6>@@@Z 00000001802e654c     libucrt:close.obj
 0002:00286570       $unwind$_alloc_osfhnd      00000001802e6570     libucrt:osfinfo.obj
 0002:002865a0       $unwind$__acrt_lowio_destroy_handle_array 00000001802e65a0     libucrt:osfinfo.obj
 0002:002865b0       $unwind$__acrt_lowio_ensure_fh_exists 00000001802e65b0     libucrt:osfinfo.obj
 0002:002865dc       $unwind$fflush             00000001802e65dc     libucrt:fflush.obj
 0002:00286600       $unwind$common_flush_all   00000001802e6600     libucrt:fflush.obj
 0002:0028663c       $unwind$??$common_fsopen@D@@YAPEAU_iobuf@@QEBD0H@Z 00000001802e663c     libucrt:fopen.obj
 0002:00286664       $unwind$fclose             00000001802e6664     libucrt:fclose.obj
 0002:00286688       $unwind$?is_usable_drive_or_unc_root@@YA_NQEB_W@Z 00000001802e6688     libucrt:stat.obj
 0002:002866a8       $unwind$??$common_stat@U_stat64@@@@YAHQEB_WQEAU_stat64@@@Z 00000001802e66a8     libucrt:stat.obj
 0002:002866c0       $unwind$??$common_stat_handle_file_opened@U_stat64@@@@YA_NQEB_WHQEAXAEAU_stat64@@@Z 00000001802e66c0     libucrt:stat.obj
 0002:002866dc       $unwind$??$convert_large_integer_time_to_time_t@_J@@YA_JT_LARGE_INTEGER@@_J@Z 00000001802e66dc     libucrt:stat.obj
 0002:002866ec       $unwind$_tolower_l         00000001802e66ec     libucrt:tolower_toupper.obj
 0002:002866ec       $unwind$_toupper_l         00000001802e66ec     libucrt:tolower_toupper.obj
 0002:002866fc       $unwind$strnlen            00000001802e66fc     libucrt:strnlen.obj
 0002:002866fc       $unwind$wcsnlen            00000001802e66fc     libucrt:strnlen.obj
 0002:00286704       $unwind$qsort              00000001802e6704     libucrt:qsort.obj
 0002:0028671c       $chain$4$qsort             00000001802e671c     libucrt:qsort.obj
 0002:00286740       $chain$5$qsort             00000001802e6740     libucrt:qsort.obj
 0002:00286750       $unwind$?shortsort@@YAXPEAD0_KP6AHPEBX2@Z@Z 00000001802e6750     libucrt:qsort.obj
 0002:00286760       $chain$2$?shortsort@@YAXPEAD0_KP6AHPEBX2@Z@Z 00000001802e6760     libucrt:qsort.obj
 0002:0028677c       $chain$3$?shortsort@@YAXPEAD0_KP6AHPEBX2@Z@Z 00000001802e677c     libucrt:qsort.obj
 0002:0028678c       $unwind$_query_new_handler 00000001802e678c     libucrt:new_handler.obj
 0002:002867ac       $unwind$_configure_narrow_argv 00000001802e67ac     libucrt:argv_parsing.obj
 0002:002867c0       $unwind$??$initialize_environment_by_cloning_nolock@D@@YAHXZ 00000001802e67c0     libucrt:environment_initialization.obj
 0002:002867d0       $unwind$??$initialize_environment_by_cloning_nolock@_W@@YAHXZ 00000001802e67d0     libucrt:environment_initialization.obj
 0002:002867e0       $unwind$_register_onexit_function 00000001802e67e0     libucrt:onexit.obj
 0002:002867e8       $unwind$_execute_onexit_table 00000001802e67e8     libucrt:onexit.obj
 0002:002867f0       $unwind$??$?RV<lambda_b8c45f8f788dd370798f47cfe8ac3a86>@@AEAV<lambda_4e60a939b0d047cfe11ddc22648dfba9>@@V<lambda_332c3edc96d0294ec56c57d38c1cdfd5>@@@?$__crt_seh_guarded_call@H@@QEAAH$$QEAV<lambda_b8c45f8f788dd370798f47cfe8ac3a86>@@AEAV<lambda_4e60a939b0d047cfe11ddc22648dfba9>@@$$QEAV<lambda_332c3edc96d0294ec56c57d38c1cdfd5>@@@Z 00000001802e67f0     libucrt:onexit.obj
 0002:00286814       $unwind$??$?RV<lambda_e24bbb7b643b32fcea6fa61b31d4c984>@@AEAV<lambda_275893d493268fdec8709772e3fcec0e>@@V<lambda_9d71df4d7cf3f480f8d633942495c3b0>@@@?$__crt_seh_guarded_call@H@@QEAAH$$QEAV<lambda_e24bbb7b643b32fcea6fa61b31d4c984>@@AEAV<lambda_275893d493268fdec8709772e3fcec0e>@@$$QEAV<lambda_9d71df4d7cf3f480f8d633942495c3b0>@@@Z 00000001802e6814     libucrt:onexit.obj
 0002:00286844       $unwind$terminate          00000001802e6844     libucrt:terminate.obj
 0002:00286864       $unwind$_strdup            00000001802e6864     libucrt:strdup.obj
 0002:00286874       $unwind$??$common_putenv@D@@YAHQEBD0@Z 00000001802e6874     libucrt:putenv.obj
 0002:00286898       $unwind$_invalid_parameter 00000001802e6898     libucrt:invalid_parameter.obj
 0002:00286898       $unwind$??$set_variable_in_other_environment@D@@YA_NQEBD0@Z 00000001802e6898     libucrt:putenv.obj
 0002:00286898       $unwind$??$copy_environment@_W@@YAPEAPEA_WQEAPEA_W@Z 00000001802e6898     libucrt:setenv.obj
 0002:002868b0       $unwind$?is_valid_drive@@YAHI@Z 00000001802e68b0     libucrt:getcwd.obj
 0002:002868c0       $unwind$??$common_getdcwd@D@@YAPEADHQEADHHQEBDH@Z 00000001802e68c0     libucrt:getcwd.obj
 0002:002868d4       $unwind$??$common_getdcwd@_W@@YAPEA_WHQEA_WHHQEBDH@Z 00000001802e68d4     libucrt:getcwd.obj
 0002:002868ec       $unwind$_wctomb_s_l        00000001802e68ec     libucrt:wctomb.obj
 0002:002868fc       $unwind$?construct_ptd_array@@YAXQEAU__acrt_ptd@@@Z 00000001802e68fc     libucrt:per_thread_data.obj
 0002:00286904       $unwind$?destroy_ptd_array@@YAXQEAU__acrt_ptd@@@Z 00000001802e6904     libucrt:per_thread_data.obj
 0002:0028690c       $unwind$??$?RV<lambda_72d1df2b273a38828b1ce30cbf4cdab5>@@AEAV<lambda_876a65b173b8412d3a47c70a915b0cf4>@@V<lambda_41932305e351933ebe8f8be3ed8bb5dc>@@@?$__crt_seh_guarded_call@X@@QEAAX$$QEAV<lambda_72d1df2b273a38828b1ce30cbf4cdab5>@@AEAV<lambda_876a65b173b8412d3a47c70a915b0cf4>@@$$QEAV<lambda_41932305e351933ebe8f8be3ed8bb5dc>@@@Z 00000001802e690c     libucrt:per_thread_data.obj
 0002:00286930       $unwind$??$?RV<lambda_5e887d1dcbef67a5eb4283622ba103bf>@@AEAV<lambda_4466841279450cc726390878d4a41900>@@V<lambda_341c25c0346d94847f1f3c463c57e077>@@@?$__crt_seh_guarded_call@X@@QEAAX$$QEAV<lambda_5e887d1dcbef67a5eb4283622ba103bf>@@AEAV<lambda_4466841279450cc726390878d4a41900>@@$$QEAV<lambda_341c25c0346d94847f1f3c463c57e077>@@@Z 00000001802e6930     libucrt:per_thread_data.obj
 0002:00286954       $unwind$??$?RV<lambda_46352004c1216016012b18bd6f87e700>@@AEAV<lambda_3bd07e1a1191394380780325891bf33f>@@V<lambda_334532d3f185bcaa59b5be82d7d22bff>@@@?$__crt_seh_guarded_call@X@@QEAAX$$QEAV<lambda_46352004c1216016012b18bd6f87e700>@@AEAV<lambda_3bd07e1a1191394380780325891bf33f>@@$$QEAV<lambda_334532d3f185bcaa59b5be82d7d22bff>@@@Z 00000001802e6954     libucrt:per_thread_data.obj
 0002:00286978       $unwind$??$?RV<lambda_fb3a7dec4e47f37f22dae91bb15c9095>@@AEAV<lambda_698284760c8add0bfb0756c19673e34b>@@V<lambda_dfb8eca1e75fef3034a8fb18dd509707>@@@?$__crt_seh_guarded_call@X@@QEAAX$$QEAV<lambda_fb3a7dec4e47f37f22dae91bb15c9095>@@AEAV<lambda_698284760c8add0bfb0756c19673e34b>@@$$QEAV<lambda_dfb8eca1e75fef3034a8fb18dd509707>@@@Z 00000001802e6978     libucrt:per_thread_data.obj
 0002:0028699c       $unwind$__acrt_fp_format   00000001802e699c     libucrt:cvt.obj
 0002:002869b8       $unwind$?fp_format_nan_or_infinity@@YAHW4__acrt_fp_class@@_NPEAD_K1@Z 00000001802e69b8     libucrt:cvt.obj
 0002:002869cc       $unwind$?fp_format_e_internal@@YAHQEAD_KH_NIQEAU_strflt@@2QEAU__crt_locale_pointers@@@Z 00000001802e69cc     libucrt:cvt.obj
 0002:002869e4       $unwind$?fp_format_a@@YAHQEBNPEAD_KQEAD2H_NIQEAU__crt_locale_pointers@@@Z 00000001802e69e4     libucrt:cvt.obj
 0002:00286a00       $unwind$__dcrt_get_narrow_environment_from_os 00000001802e6a00     libucrt:get_environment_from_os.obj
 0002:00286a00       $unwind$?fp_format_f_internal@@YAHQEAD_KHQEAU_strflt@@_NQEAU__crt_locale_pointers@@@Z 00000001802e6a00     libucrt:cvt.obj
 0002:00286a18       $unwind$?fp_format_g@@YAHQEBNQEAD_K12H_NIQEAU__crt_locale_pointers@@@Z 00000001802e6a18     libucrt:cvt.obj
 0002:00286a2c       $unwind$_fputwc_nolock     00000001802e6a2c     libucrt:fputwc.obj
 0002:00286a48       $unwind$__acrt_stdio_end_temporary_buffering_nolock 00000001802e6a48     libucrt:_sftbuf.obj
 0002:00286a48       $unwind$__vcrt_uninitialize_winapi_thunks 00000001802e6a48     libvcruntime:winapi_downlevel.obj
 0002:00286a50       $unwind$__acrt_uninitialize_locale 00000001802e6a50     libucrt:wsetlocale.obj
 0002:00286a70       $unwind$?fin$0@?0???$common_lseek@_J@@YA_JH_JH@Z@4HA 00000001802e6a70     libucrt:lseek.obj
 0002:00286a70       $unwind$fputc$fin$0        00000001802e6a70     libucrt:fputc.obj
 0002:00286a70       $unwind$_query_new_handler$fin$0 00000001802e6a70     libucrt:new_handler.obj
 0002:00286a70       $unwind$?fin$0@?0???$?RV<lambda_72d1df2b273a38828b1ce30cbf4cdab5>@@AEAV<lambda_876a65b173b8412d3a47c70a915b0cf4>@@V<lambda_41932305e351933ebe8f8be3ed8bb5dc>@@@?$__crt_seh_guarded_call@X@@QEAAX$$QEAV<lambda_72d1df2b273a38828b1ce30cbf4cdab5>@@AEAV<lambda_876a65b173b8412d3a47c70a915b0cf4>@@$$QEAV<lambda_41932305e351933ebe8f8be3ed8bb5dc>@@@Z@4HA 00000001802e6a70     libucrt:per_thread_data.obj
 0002:00286a70       $unwind$_alloc_osfhnd$fin$0 00000001802e6a70     libucrt:osfinfo.obj
 0002:00286a70       $unwind$__tzset$fin$0      00000001802e6a70     libucrt:tzset.obj
 0002:00286a70       $unwind$?fin$0@?0???$?RV<lambda_25e01c9ba3607ae47bf7ea803dd53646>@@AEAV<lambda_55f9cbce55698c0319f95c01c080475b>@@V<lambda_1e572b46264c157efb34a6cfecbbfc9c>@@@?$__crt_seh_guarded_call@H@@QEAAH$$QEAV<lambda_25e01c9ba3607ae47bf7ea803dd53646>@@AEAV<lambda_55f9cbce55698c0319f95c01c080475b>@@$$QEAV<lambda_1e572b46264c157efb34a6cfecbbfc9c>@@@Z@4HA 00000001802e6a70     libucrt:puts.obj
 0002:00286a70       $unwind$_isindst$fin$0     00000001802e6a70     libucrt:tzset.obj
 0002:00286a70       $unwind$common_flush_all$fin$1 00000001802e6a70     libucrt:fflush.obj
 0002:00286a70       $unwind$_tzset$fin$0       00000001802e6a70     libucrt:tzset.obj
 0002:00286a70       $unwind$__acrt_initialize_lowio$fin$0 00000001802e6a70     libucrt:ioinit.obj
 0002:00286a70       $unwind$?fin$0@?0??__acrt_stdio_allocate_stream@@YA?AV__crt_stdio_stream@@XZ@4HA 00000001802e6a70     libucrt:stream.obj
 0002:00286a70       $unwind$?fin$0@?0???$?RV<lambda_7a5ef57ff966f610505f1d28a3d40618>@@AEAV<lambda_b721fa326cdb32351d23dfa67958c160>@@V<lambda_5e0fb27672408a07956fe59e48ccb2aa>@@@?$__crt_seh_guarded_call@H@@QEAAH$$QEAV<lambda_7a5ef57ff966f610505f1d28a3d40618>@@AEAV<lambda_b721fa326cdb32351d23dfa67958c160>@@$$QEAV<lambda_5e0fb27672408a07956fe59e48ccb2aa>@@@Z@4HA 00000001802e6a70     libucrt:setvbuf.obj
 0002:00286a70       $unwind$?fin$0@?0???$?RV<lambda_b521505b218e5242e90febf6bfebc422>@@AEAV<lambda_6978c1fb23f02e42e1d9e99668cc68aa>@@V<lambda_314360699dd331753a4119843814e9a7>@@@?$__crt_seh_guarded_call@H@@QEAAH$$QEAV<lambda_b521505b218e5242e90febf6bfebc422>@@AEAV<lambda_6978c1fb23f02e42e1d9e99668cc68aa>@@$$QEAV<lambda_314360699dd331753a4119843814e9a7>@@@Z@4HA 00000001802e6a70     libucrt:commit.obj
 0002:00286a70       $unwind$?fin$0@?0???$?RV<lambda_7b91131dde12e1c3dfc74ff76b3f2eac>@@AEAV<lambda_dd75445284c072d0bd3768540cc698fa>@@V<lambda_16bc4ecb55b4718497c16bceaea2ceaf>@@@?$__crt_seh_guarded_call@H@@QEAAH$$QEAV<lambda_7b91131dde12e1c3dfc74ff76b3f2eac>@@AEAV<lambda_dd75445284c072d0bd3768540cc698fa>@@$$QEAV<lambda_16bc4ecb55b4718497c16bceaea2ceaf>@@@Z@4HA 00000001802e6a70     libucrt:output.obj
 0002:00286a70       $unwind$__acrt_update_thread_multibyte_data$fin$0 00000001802e6a70     libucrt:mbctype.obj
 0002:00286a70       $unwind$?fin$0@?0???$?RV<lambda_fb3a7dec4e47f37f22dae91bb15c9095>@@AEAV<lambda_698284760c8add0bfb0756c19673e34b>@@V<lambda_dfb8eca1e75fef3034a8fb18dd509707>@@@?$__crt_seh_guarded_call@X@@QEAAX$$QEAV<lambda_fb3a7dec4e47f37f22dae91bb15c9095>@@AEAV<lambda_698284760c8add0bfb0756c19673e34b>@@$$QEAV<lambda_dfb8eca1e75fef3034a8fb18dd509707>@@@Z@4HA 00000001802e6a70     libucrt:per_thread_data.obj
 0002:00286a70       $unwind$_ctrlfp$filt$0     00000001802e6a70     libucrt:fpctrl.obj
 0002:00286a70       $unwind$?fin$0@?0???$?RV<lambda_a81aa23bb2c9577c1e55b9d0b57d9de4>@@AEAV<lambda_9a20e10065b92b5193c3597a66cba9d4>@@V<lambda_cb3a421ff86d8a5f008440ee6b28fa9c>@@@?$__crt_seh_guarded_call@H@@QEAAH$$QEAV<lambda_a81aa23bb2c9577c1e55b9d0b57d9de4>@@AEAV<lambda_9a20e10065b92b5193c3597a66cba9d4>@@$$QEAV<lambda_cb3a421ff86d8a5f008440ee6b28fa9c>@@@Z@4HA 00000001802e6a70     libucrt:fputs.obj
 0002:00286a70       $unwind$?fin$0@?0???$common_putenv@D@@YAHQEBD0@Z@4HA 00000001802e6a70     libucrt:putenv.obj
 0002:00286a70       $unwind$_read$fin$0        00000001802e6a70     libucrt:read.obj
 0002:00286a70       $unwind$?fin$0@?0???$?RV<lambda_bfedae4ebbf01fab1bb6dcc6a9e276e0>@@AEAV<lambda_2fe9b910cf3cbf4a0ab98a02ba45b3ec>@@V<lambda_237c231691f317818eb88cc1d5d642d6>@@@?$__crt_seh_guarded_call@H@@QEAAH$$QEAV<lambda_bfedae4ebbf01fab1bb6dcc6a9e276e0>@@AEAV<lambda_2fe9b910cf3cbf4a0ab98a02ba45b3ec>@@$$QEAV<lambda_237c231691f317818eb88cc1d5d642d6>@@@Z@4HA 00000001802e6a70     libucrt:close.obj
 0002:00286a70       $unwind$?filt$0@?0??common_exit@@YAXHW4_crt_exit_cleanup_mode@@W4_crt_exit_return_mode@@@Z@4HA 00000001802e6a70     libucrt:exit.obj
 0002:00286a70       $unwind$?fin$0@?0??ctrlevent_capture@@YAHK@Z@4HA 00000001802e6a70     libucrt:signal.obj
 0002:00286a70       $unwind$?fin$0@?0???$?RV<lambda_e24bbb7b643b32fcea6fa61b31d4c984>@@AEAV<lambda_275893d493268fdec8709772e3fcec0e>@@V<lambda_9d71df4d7cf3f480f8d633942495c3b0>@@@?$__crt_seh_guarded_call@H@@QEAAH$$QEAV<lambda_e24bbb7b643b32fcea6fa61b31d4c984>@@AEAV<lambda_275893d493268fdec8709772e3fcec0e>@@$$QEAV<lambda_9d71df4d7cf3f480f8d633942495c3b0>@@@Z@4HA 00000001802e6a70     libucrt:onexit.obj
 0002:00286a70       $unwind$_fcloseall$fin$0   00000001802e6a70     libucrt:closeall.obj
 0002:00286a70       $unwind$common_control87$filt$0 00000001802e6a70     libucrt:ieee.obj
 0002:00286a70       $unwind$signal$fin$0       00000001802e6a70     libucrt:signal.obj
 0002:00286a70       $unwind$__acrt_uninitialize_locale$fin$0 00000001802e6a70     libucrt:wsetlocale.obj
 0002:00286a70       $unwind$?fin$0@?0???$?RV<lambda_b8c45f8f788dd370798f47cfe8ac3a86>@@AEAV<lambda_4e60a939b0d047cfe11ddc22648dfba9>@@V<lambda_332c3edc96d0294ec56c57d38c1cdfd5>@@@?$__crt_seh_guarded_call@H@@QEAAH$$QEAV<lambda_b8c45f8f788dd370798f47cfe8ac3a86>@@AEAV<lambda_4e60a939b0d047cfe11ddc22648dfba9>@@$$QEAV<lambda_332c3edc96d0294ec56c57d38c1cdfd5>@@@Z@4HA 00000001802e6a70     libucrt:onexit.obj
 0002:00286a70       $unwind$?fin$1@?0??common_exit@@YAXHW4_crt_exit_cleanup_mode@@W4_crt_exit_return_mode@@@Z@4HA 00000001802e6a70     libucrt:exit.obj
 0002:00286a70       $unwind$?fin$0@?0???$?RV<lambda_46352004c1216016012b18bd6f87e700>@@AEAV<lambda_3bd07e1a1191394380780325891bf33f>@@V<lambda_334532d3f185bcaa59b5be82d7d22bff>@@@?$__crt_seh_guarded_call@X@@QEAAX$$QEAV<lambda_46352004c1216016012b18bd6f87e700>@@AEAV<lambda_3bd07e1a1191394380780325891bf33f>@@$$QEAV<lambda_334532d3f185bcaa59b5be82d7d22bff>@@@Z@4HA 00000001802e6a70     libucrt:per_thread_data.obj
 0002:00286a70       $unwind$common_flush_all$fin$0 00000001802e6a70     libucrt:fflush.obj
 0002:00286a70       $unwind$__acrt_lowio_ensure_fh_exists$fin$0 00000001802e6a70     libucrt:osfinfo.obj
 0002:00286a70       $unwind$?fin$0@?0??dllmain_crt_process_detach@@YAH_N@Z@4HA 00000001802e6a70     LIBCMT:dll_dllmain.obj
 0002:00286a70       $unwind$?fin$0@?0???$?RV<lambda_5e887d1dcbef67a5eb4283622ba103bf>@@AEAV<lambda_4466841279450cc726390878d4a41900>@@V<lambda_341c25c0346d94847f1f3c463c57e077>@@@?$__crt_seh_guarded_call@X@@QEAAX$$QEAV<lambda_5e887d1dcbef67a5eb4283622ba103bf>@@AEAV<lambda_4466841279450cc726390878d4a41900>@@$$QEAV<lambda_341c25c0346d94847f1f3c463c57e077>@@@Z@4HA 00000001802e6a70     libucrt:per_thread_data.obj
 0002:00286a70       $unwind$raise$fin$0        00000001802e6a70     libucrt:signal.obj
 0002:00286a70       $unwind$fflush$fin$0       00000001802e6a70     libucrt:fflush.obj
 0002:00286a70       $unwind$?fin$0@?0??dllmain_crt_process_attach@@YAHQEAUHINSTANCE__@@QEAX@Z@4HA 00000001802e6a70     LIBCMT:dll_dllmain.obj
 0002:00286a70       $unwind$?fin$0@?0???$?RV<lambda_aa279a7bcb127014629d5b1d62c7325d>@@AEAV<lambda_0a64b6a4deda75c01876f29c44fc5eb3>@@V<lambda_3323e69fbefe9d1a11713e670d47cdfa>@@@?$__crt_seh_guarded_call@H@@QEAAH$$QEAV<lambda_aa279a7bcb127014629d5b1d62c7325d>@@AEAV<lambda_0a64b6a4deda75c01876f29c44fc5eb3>@@$$QEAV<lambda_3323e69fbefe9d1a11713e670d47cdfa>@@@Z@4HA 00000001802e6a70     libucrt:output.obj
 0002:00286a70       $unwind$?fin$0@?0???$common_getenv@D@@YAPEADQEBD@Z@4HA 00000001802e6a70     libucrt:getenv.obj
 0002:00286a70       $unwind$?fin$0@?0???$common_fsopen@D@@YAPEAU_iobuf@@QEBD0H@Z@4HA 00000001802e6a70     libucrt:fopen.obj
 0002:00286a70       $unwind$?fin$0@?0???$?RV<lambda_c36588078e9f5dfd39652860aa6b3aaf>@@AEAV<lambda_ec61778202f4f5fc7e7711acc23c3bca>@@V<lambda_dc9d2797ccde5d239b4a0efae8ebd7db>@@@?$__crt_seh_guarded_call@P6AXH@Z@@QEAAP6AXH@Z$$QEAV<lambda_c36588078e9f5dfd39652860aa6b3aaf>@@AEAV<lambda_ec61778202f4f5fc7e7711acc23c3bca>@@$$QEAV<lambda_dc9d2797ccde5d239b4a0efae8ebd7db>@@@Z@4HA 00000001802e6a70     libucrt:signal.obj
 0002:00286a70       $unwind$?fin$0@?0???$common_fgets@D@@YAPEADQEADHV__crt_stdio_stream@@@Z@4HA 00000001802e6a70     libucrt:fgets.obj
 0002:00286a70       $unwind$fclose$fin$0       00000001802e6a70     libucrt:fclose.obj
 0002:00286a70       $unwind$?fin$0@?0???$?RV<lambda_99476a1ad63dd22509b5d3e65b0ffc95>@@AEAV<lambda_ad1ced32f4ac17aa236e5ef05d6b3b7c>@@V<lambda_f7424dd8d45958661754dc4f2697e9c3>@@@?$__crt_seh_guarded_call@X@@QEAAX$$QEAV<lambda_99476a1ad63dd22509b5d3e65b0ffc95>@@AEAV<lambda_ad1ced32f4ac17aa236e5ef05d6b3b7c>@@$$QEAV<lambda_f7424dd8d45958661754dc4f2697e9c3>@@@Z@4HA 00000001802e6a70     libucrt:mbctype.obj
 0002:00286a70       $unwind$_write$fin$0       00000001802e6a70     libucrt:write.obj
 0002:00286a70       $unwind$_IsNonwritableInCurrentImage$filt$0 00000001802e6a70     LIBCMT:pesect.obj
 0002:00286a70       $unwind$__acrt_update_thread_locale_data$fin$0 00000001802e6a70     libucrt:locale_refcounting.obj
 0002:00286a78       $unwind$__acrt_initialize_lowio 00000001802e6a78     libucrt:ioinit.obj
 0002:00286a98       $unwind$?initialize_inherited_file_handles_nolock@@YAXXZ 00000001802e6a98     libucrt:ioinit.obj
 0002:00286ab4       $unwind$setvbuf            00000001802e6ab4     libucrt:setvbuf.obj
 0002:00286abc       $unwind$??$?RV<lambda_7a5ef57ff966f610505f1d28a3d40618>@@AEAV<lambda_b721fa326cdb32351d23dfa67958c160>@@V<lambda_5e0fb27672408a07956fe59e48ccb2aa>@@@?$__crt_seh_guarded_call@H@@QEAAH$$QEAV<lambda_7a5ef57ff966f610505f1d28a3d40618>@@AEAV<lambda_b721fa326cdb32351d23dfa67958c160>@@$$QEAV<lambda_5e0fb27672408a07956fe59e48ccb2aa>@@@Z 00000001802e6abc     libucrt:setvbuf.obj
 0002:00286ae0       $unwind$__acrt_initialize_winapi_thunks 00000001802e6ae0     libucrt:winapi_thunks.obj
 0002:00286ae8       $unwind$__acrt_GetFileInformationByHandleEx 00000001802e6ae8     libucrt:winapi_thunks.obj
 0002:00286ae8       $unwind$_initterm          00000001802e6ae8     libucrt:initterm.obj
 0002:00286ae8       $unwind$__acrt_MessageBoxW 00000001802e6ae8     libucrt:winapi_thunks.obj
 0002:00286ae8       $unwind$__acrt_lowio_set_os_handle 00000001802e6ae8     libucrt:osfinfo.obj
 0002:00286ae8       $unwind$?process@?$output_processor@_WV?$string_output_adapter@_W@__crt_stdio_output@@V?$standard_base@_WV?$string_output_adapter@_W@__crt_stdio_output@@@2@@__crt_stdio_output@@QEAAHXZ 00000001802e6ae8     libucrt:output.obj
 0002:00286ae8       $unwind$__acrt_initialize_stdio 00000001802e6ae8     libucrt:_file.obj
 0002:00286b00       $unwind$__acrt_is_interactive 00000001802e6b00     libucrt:winapi_thunks.obj
 0002:00286b14       $unwind$_fcloseall         00000001802e6b14     libucrt:closeall.obj
 0002:00286b38       $unwind$_isctype_l         00000001802e6b38     libucrt:isctype.obj
 0002:00286b54       $unwind$??$write_buffer_nolock@D@@YA_NDV__crt_stdio_stream@@@Z 00000001802e6b54     libucrt:_flsbuf.obj
 0002:00286b64       $unwind$??$write_buffer_nolock@_W@@YA_N_WV__crt_stdio_stream@@@Z 00000001802e6b64     libucrt:_flsbuf.obj
 0002:00286b74       $unwind$__acrt_copy_to_char 00000001802e6b74     libucrt:string_utilities.obj
 0002:00286b8c       $unwind$??$common_loctotime_t@_J@@YA_JHHHHHHH@Z 00000001802e6b8c     libucrt:loctotime.obj
 0002:00286bac       $unwind$_openfile          00000001802e6bac     libucrt:openfile.obj
 0002:00286bc0       $unwind$_close             00000001802e6bc0     libucrt:close.obj
 0002:00286bc0       $unwind$_commit            00000001802e6bc0     libucrt:commit.obj
 0002:00286bc8       $unwind$??$?RV<lambda_b521505b218e5242e90febf6bfebc422>@@AEAV<lambda_6978c1fb23f02e42e1d9e99668cc68aa>@@V<lambda_314360699dd331753a4119843814e9a7>@@@?$__crt_seh_guarded_call@H@@QEAAH$$QEAV<lambda_b521505b218e5242e90febf6bfebc422>@@AEAV<lambda_6978c1fb23f02e42e1d9e99668cc68aa>@@$$QEAV<lambda_314360699dd331753a4119843814e9a7>@@@Z 00000001802e6bc8     libucrt:commit.obj
 0002:00286bec       $unwind$_write             00000001802e6bec     libucrt:write.obj
 0002:00286c1c       $unwind$_write_nolock      00000001802e6c1c     libucrt:write.obj
 0002:00286c34       $unwind$?write_double_translated_ansi_nolock@@YA?AUwrite_result@?A0x9c548279@@HQEBDI@Z 00000001802e6c34     libucrt:write.obj
 0002:00286c54       $unwind$?write_text_utf16le_nolock@@YA?AUwrite_result@?A0x9c548279@@HQEBDI@Z 00000001802e6c54     libucrt:write.obj
 0002:00286c54       $unwind$?write_text_ansi_nolock@@YA?AUwrite_result@?A0x9c548279@@HQEBDI@Z 00000001802e6c54     libucrt:write.obj
 0002:00286c74       $unwind$?write_text_utf8_nolock@@YA?AUwrite_result@?A0x9c548279@@HQEBDI@Z 00000001802e6c74     libucrt:write.obj
 0002:00286c98       $unwind$?__acrt_stdio_allocate_stream@@YA?AV__crt_stdio_stream@@XZ 00000001802e6c98     libucrt:stream.obj
 0002:00286cb8       $unwind$_getdrive          00000001802e6cb8     libucrt:drive.obj
 0002:00286cd4       $unwind$__acrt_LCMapStringA 00000001802e6cd4     libucrt:lcmapstringa.obj
 0002:00286ce4       $unwind$?__acrt_LCMapStringA_stat@@YAHPEAU__crt_locale_pointers@@PEB_WKPEBDHPEADHHH@Z 00000001802e6ce4     libucrt:lcmapstringa.obj
 0002:00286d0c       $unwind$??$common_lseek@_J@@YA_JH_JH@Z 00000001802e6d0c     libucrt:lseek.obj
 0002:00286d3c       $unwind$_read              00000001802e6d3c     libucrt:read.obj
 0002:00286d68       $unwind$_read_nolock       00000001802e6d68     libucrt:read.obj
 0002:00286d80       $unwind$?translate_ansi_or_utf8_nolock@@YAHHQEAD_KQEA_W1@Z 00000001802e6d80     libucrt:read.obj
 0002:00286d98       $unwind$??$translate_text_mode_nolock@_W@@YAHHQEA_W_K@Z 00000001802e6d98     libucrt:read.obj
 0002:00286db0       $unwind$??$common_expand_argv_wildcards@D@@YAHQEAPEADQEAPEAPEAD@Z 00000001802e6db0     libucrt:argv_wildcards.obj
 0002:00286dc8       $unwind$??$copy_and_add_argument_to_buffer@D@@YAHQEBD0_KAEAV?$argument_list@D@?A0xca0879c4@@@Z 00000001802e6dc8     libucrt:argv_wildcards.obj
 0002:00286de4       $unwind$??$expand_argument_wildcards@D@@YAHQEAD0AEAV?$argument_list@D@?A0xca0879c4@@@Z 00000001802e6de4     libucrt:argv_wildcards.obj
 0002:00286e04       $unwind$__acrt_update_thread_multibyte_data 00000001802e6e04     libucrt:mbctype.obj
 0002:00286e28       $unwind$_setmbcp_nolock    00000001802e6e28     libucrt:mbctype.obj
 0002:00286e48       $unwind$?setSBUpLow@@YAXPEAU__crt_multibyte_data@@@Z 00000001802e6e48     libucrt:mbctype.obj
 0002:00286e64       $unwind$?setmbcp_internal@@YAHH_N@Z 00000001802e6e64     libucrt:mbctype.obj
 0002:00286e74       $unwind$??$?RV<lambda_99476a1ad63dd22509b5d3e65b0ffc95>@@AEAV<lambda_ad1ced32f4ac17aa236e5ef05d6b3b7c>@@V<lambda_f7424dd8d45958661754dc4f2697e9c3>@@@?$__crt_seh_guarded_call@X@@QEAAX$$QEAV<lambda_99476a1ad63dd22509b5d3e65b0ffc95>@@AEAV<lambda_ad1ced32f4ac17aa236e5ef05d6b3b7c>@@$$QEAV<lambda_f7424dd8d45958661754dc4f2697e9c3>@@@Z 00000001802e6e74     libucrt:mbctype.obj
 0002:00286e98       $unwind$??$common_set_variable_in_environment_nolock@D@@YAHQEADH@Z 00000001802e6e98     libucrt:setenv.obj
 0002:00286eb0       $unwind$??$copy_environment@D@@YAPEAPEADQEAPEAD@Z 00000001802e6eb0     libucrt:setenv.obj
 0002:00286ec4       $unwind$__acrt_update_thread_locale_data 00000001802e6ec4     libucrt:locale_refcounting.obj
 0002:00286ee8       $unwind$__acrt_fltout      00000001802e6ee8     libucrt:cfout.obj
 0002:00286f08       $unwind$?divide@__crt_strtox@@YA_KAEAUbig_integer@1@AEBU21@@Z 00000001802e6f08     libucrt:cfout.obj
 0002:00286f28       $chain$5$?divide@__crt_strtox@@YA_KAEAUbig_integer@1@AEBU21@@Z 00000001802e6f28     libucrt:cfout.obj
 0002:00286f3c       $chain$6$?divide@__crt_strtox@@YA_KAEAUbig_integer@1@AEBU21@@Z 00000001802e6f3c     libucrt:cfout.obj
 0002:00286f4c       $unwind$__acrt_locale_free_time 00000001802e6f4c     libucrt:inittime.obj
 0002:00286f5c       $unwind$__acrt_GetStringTypeA 00000001802e6f5c     libucrt:getstringtypea.obj
 0002:00286f84       $unwind$?GetTableIndexFromLocaleName@@YAHPEB_W@Z 00000001802e6f84     libucrt:lcidtoname_downlevel.obj
 0002:00286f9c       $unwind$_mbtowc_l          00000001802e6f9c     libucrt:mbtowc.obj
 0002:00286f9c       $unwind$__acrt_LCMapStringEx 00000001802e6f9c     libucrt:winapi_thunks.obj
 0002:00286f9c       $unwind$__acrt_CompareStringEx 00000001802e6f9c     libucrt:winapi_thunks.obj
 0002:00286f9c       $unwind$__acrt_show_wide_message_box 00000001802e6f9c     libucrt:crtmbox.obj
 0002:00286f9c       $unwind$__acrt_CompareStringW 00000001802e6f9c     libucrt:comparestringw.obj
 0002:00286f9c       $unwind$_wcsnicoll_l       00000001802e6f9c     libucrt:wcsnicol.obj
 0002:00286fb4       $unwind$__acrt_CompareStringA 00000001802e6fb4     libucrt:comparestringa.obj
 0002:00286fc4       $unwind$?InternalCompareStringA@@YAHPEAU__crt_locale_pointers@@PEB_WKPEBDH2HH@Z 00000001802e6fc4     libucrt:comparestringa.obj
 0002:00286fe8       $unwind$_sopen_nolock      00000001802e6fe8     libucrt:open.obj
 0002:00286fe8       $unwind$__acrt_LCMapStringW 00000001802e6fe8     libucrt:lcmapstringw.obj
 0002:00286fe8       $unwind$?fp_format_e@@YAHQEBNQEAD_K12H_NIQEAU__crt_locale_pointers@@@Z 00000001802e6fe8     libucrt:cvt.obj
 0002:00286ffc       $unwind$_wsopen_nolock     00000001802e6ffc     libucrt:open.obj
 0002:00287018       $unwind$??$common_sopen_dispatch@D@@YAHQEBDHHHQEAHH@Z 00000001802e7018     libucrt:open.obj
 0002:0028703c       $unwind$?fin$0@?0???$common_sopen_dispatch@D@@YAHQEBDHHHQEAHH@Z@4HA 00000001802e703c     libucrt:open.obj
 0002:00287044       $unwind$?decode_options@@YA?AUfile_options@?A0x656cf9f4@@HHH@Z 00000001802e7044     libucrt:open.obj
 0002:00287058       $unwind$_towlower_l        00000001802e7058     libucrt:towlower.obj
 0002:00287058       $unwind$puts               00000001802e7058     libucrt:puts.obj
 0002:00287060       $unwind$common_control87   00000001802e7060     libucrt:ieee.obj
 0002:00287090       $xdatasym                  00000001802e7090     libucrt:fpsr.obj
 0002:00287098       $unwind$strpbrk            00000001802e7098     libucrt:strpbrk.obj
 0002:002870a8       $xdatasym                  00000001802e70a8     libucrt:log10.obj
 0002:002870b4       $unwind$_setmode_nolock    00000001802e70b4     libucrt:setmode.obj
 0002:002870c4       $unwind$_call_matherr      00000001802e70c4     libucrt:libm_error.obj
 0002:002870cc       $unwind$_handle_error      00000001802e70cc     libucrt:libm_error.obj
 0002:002870ec       $unwind$__acrt_initialize_fma3 00000001802e70ec     libucrt:fma3_available.obj
 0002:002870f4       $unwind$_log_special_common 00000001802e70f4     libucrt:log_special.obj
 0002:00287100       $unwind$_raise_exc_ex      00000001802e7100     libucrt:fpexcept.obj
 0002:00287100       $unwind$??$common_refill_and_read_nolock@D@@YAHV__crt_stdio_stream@@@Z 00000001802e7100     libucrt:_filbuf.obj
 0002:00287114       $unwind$_ctrlfp            00000001802e7114     libucrt:fpctrl.obj
 0002:0028713c       $unwind$?DloadMakePermanentImageCommit@@YAXPEAX_K@Z 00000001802e713c     DelayImp:delayhlp.obj
 0002:00287148       $unwind$?DloadProtectSection@@YAXKPEAK@Z 00000001802e7148     DelayImp:delayhlp.obj
 0002:00287158       $unwind$__delayLoadHelper2 00000001802e7158     DelayImp:delayhlp.obj
 0002:00287170       $unwind$_IsNonwritableInCurrentImage 00000001802e7170     LIBCMT:pesect.obj
 0002:00287198       $xdatasym                  00000001802e7198     LIBCMT:_chkstk_.obj
 0002:002871a0       $xdatasym                  00000001802e71a0     libvcruntime:memcmp.obj
 0002:002871a8       $xdatasym                  00000001802e71a8     libucrt:strncpy.obj
 0002:002871b0       $xdatasym                  00000001802e71b0     libucrt:log.obj
 0002:002871c0       $xdatasym                  00000001802e71c0     libucrt:pow.obj
 0002:002871d0       $xdatasym                  00000001802e71d0     libucrt:strcmp.obj
 0002:002871d4       $unwind$_pow_special       00000001802e71d4     libucrt:pow_special.obj
 0002:00288690       .edata                     00000001802e8690     sqlclient.exp
 0002:002886b8       rgpv                       00000001802e86b8     sqlclient.exp
 0002:002886bc       rgszName                   00000001802e86bc     sqlclient.exp
 0002:002886c0       rgwOrd                     00000001802e86c0     sqlclient.exp
 0002:002886c2       szName                     00000001802e86c2     sqlclient.exp
 0002:002886d1       $N00001                    00000001802e86d1     sqlclient.exp
 0002:00288c14       .idata$6                   00000001802e8c14     kernel32:KERNEL32.dll
 0002:00288c22       .idata$6                   00000001802e8c22     ws2_32:WS2_32.dll
 0002:00289544       .idata$6                   00000001802e9544     advapi32:ADVAPI32.dll
 0003:00000030       ?__vcrt_flsindex@@3KA      00000001802ea030     libvcruntime:per_thread_data.obj
 0003:00000040       errno_no_memory            00000001802ea040     libucrt:errno.obj
 0003:00000044       doserrno_no_memory         00000001802ea044     libucrt:errno.obj
 0003:00000160       dststart                   00000001802ea160     libucrt:tzset.obj
 0003:00000170       dstend                     00000001802ea170     libucrt:tzset.obj
 0003:00000180       __acrt_flsindex            00000001802ea180     libucrt:per_thread_data.obj
 0003:00000350       tzstd_program              00000001802ea350     libucrt:timeset.obj
 0003:00000390       tzdst_program              00000001802ea390     libucrt:timeset.obj
 0003:000003d0       tzname_states              00000001802ea3d0     libucrt:timeset.obj
 0003:00000710       __rgctypeflag              00000001802ea710     libucrt:mbctype.obj
 0003:00000720       __rgcode_page_info         00000001802ea720     libucrt:mbctype.obj
 0003:00000ad0       ?dazSupported@?1??common_control87@@9@9 00000001802eaad0     libucrt:ieee.obj
 0003:00000af0       ?dazSupported@?1??_ctrlfp@@9@9 00000001802eaaf0     libucrt:fpctrl.obj
 0003:00000b10       _module                    00000001802eab10     binding.obj
 0003:00000b50       option_types               00000001802eab50     clientlib:client.obj
 0003:00000bd0       default_options            00000001802eabd0     clientlib:client.obj
 0003:00000d00       old_password_client_plugin 00000001802ead00     clientlib:client.obj
 0003:00000d60       client_methods             00000001802ead60     clientlib:client.obj
 0003:00000de0       native_password_client_plugin 00000001802eade0     clientlib:client.obj
 0003:00000e40       int_is_null_true           00000001802eae40     clientlib:libmysql.obj
 0003:00000e4c       ?first_time@?1??cancel_io@@9@9 00000001802eae4c     vio:viosocket.obj
 0003:00000e50       mysql_internal_parameters  00000001802eae50     clientlib:libmysql.obj
 0003:00000e68       ?range_list@?1??is_binary_compatible@@9@9 00000001802eae68     clientlib:libmysql.obj
 0003:00000e88       my_errmsgs_globerrs        00000001802eae88     mysys:my_error.obj
 0003:00001098       my_errmsgs_list            00000001802eb098     mysys:my_error.obj
 0003:000010a0       on_off_default_names       00000001802eb0a0     mysys:typelib.obj
 0003:000010c0       on_off_default_typelib     00000001802eb0c0     mysys:typelib.obj
 0003:000010e0       f_extensions               00000001802eb0e0     mysys:my_default.obj
 0003:00001230       reserved_names             00000001802eb230     mysys:my_access.obj
 0003:000012f0       errtable                   00000001802eb2f0     mysys:my_winerr.obj
 0003:00001720       powers5                    00000001802eb720     strings:dtoa.obj
 0003:000017d0       p5_a                       00000001802eb7d0     strings:dtoa.obj
 0003:00007240       uca520_weight              00000001802f1240     strings:ctype-uca.obj
 0003:0000fa40       my_any_uca_scanner_handler 00000001802f9a40     strings:ctype-uca.obj
 0003:0000fa50       ctype_utf8                 00000001802f9a50     strings:ctype-uca.obj
 0003:0000ffe0       uctype_page24              00000001802f9fe0     strings:ctype-utf8.obj
 0003:000100e0       plane00                    00000001802fa0e0     strings:ctype-utf8.obj
 0003:00010ce0       ctype_utf8mb4              00000001802face0     strings:ctype-utf8.obj
 0003:00010df0       u520p2D                    00000001802fadf0     strings:ctype-utf8.obj
 0003:000119f0       uctype_page11              00000001802fb9f0     strings:ctype-utf8.obj
 0003:00011af0       uctype_page1E              00000001802fbaf0     strings:ctype-utf8.obj
 0003:00011bf0       uctype_page0D              00000001802fbbf0     strings:ctype-utf8.obj
 0003:00011cf0       planeFF                    00000001802fbcf0     strings:ctype-utf8.obj
 0003:000128f0       my_unicase_pages_turkish   00000001802fc8f0     strings:ctype-utf8.obj
 0003:000130f0       to_lower_utf8mb4           00000001802fd0f0     strings:ctype-utf8.obj
 0003:000131f0       plane00_mysql500           00000001802fd1f0     strings:ctype-utf8.obj
 0003:00013df0       u520p03                    00000001802fddf0     strings:ctype-utf8.obj
 0003:000149f0       uctype_pageFB              00000001802fe9f0     strings:ctype-utf8.obj
 0003:00014af0       uctype_page16              00000001802feaf0     strings:ctype-utf8.obj
 0003:00014bf0       my_unicase_pages_default   00000001802febf0     strings:ctype-utf8.obj
 0003:000153f0       uctype_pageFF              00000001802ff3f0     strings:ctype-utf8.obj
 0003:0001dcf0       uctype_page0A              0000000180307cf0     strings:ctype-utf8.obj
 0003:0001ddf0       uctype_page1A              0000000180307df0     strings:ctype-utf8.obj
 0003:0001def0       u520p1F                    0000000180307ef0     strings:ctype-utf8.obj
 0003:0001eaf0       uctype_page2B              0000000180308af0     strings:ctype-utf8.obj
 0003:0001ebf0       uctype_page18              0000000180308bf0     strings:ctype-utf8.obj
 0003:0001ecf0       uctype_page1F              0000000180308cf0     strings:ctype-utf8.obj
 0003:0001edf0       u520p04                    0000000180308df0     strings:ctype-utf8.obj
 0003:0001f9f0       u520pA6                    00000001803099f0     strings:ctype-utf8.obj
 0003:000205f0       uctype_page9F              000000018030a5f0     strings:ctype-utf8.obj
 0003:000206f0       uctype_page2F              000000018030a6f0     strings:ctype-utf8.obj
 0003:000207f0       uctype_page32              000000018030a7f0     strings:ctype-utf8.obj
 0003:000208f0       uctype_page30              000000018030a8f0     strings:ctype-utf8.obj
 0003:000209f0       uctype_pageFD              000000018030a9f0     strings:ctype-utf8.obj
 0003:00020af0       uctype_page03              000000018030aaf0     strings:ctype-utf8.obj
 0003:00020bf0       uctype_pageA7              000000018030abf0     strings:ctype-utf8.obj
 0003:00020cf0       uctype_page27              000000018030acf0     strings:ctype-utf8.obj
 0003:00020df0       uctype_page23              000000018030adf0     strings:ctype-utf8.obj
 0003:00020ef0       uctype_page10              000000018030aef0     strings:ctype-utf8.obj
 0003:00020ff0       u520p00                    000000018030aff0     strings:ctype-utf8.obj
 0003:00021bf0       uctype_pageDC              000000018030bbf0     strings:ctype-utf8.obj
 0003:00021cf0       uctype_page09              000000018030bcf0     strings:ctype-utf8.obj
 0003:00021df0       uctype_page05              000000018030bdf0     strings:ctype-utf8.obj
 0003:000226f0       u520p01                    000000018030c6f0     strings:ctype-utf8.obj
 0003:000232f0       uctype_pageD7              000000018030d2f0     strings:ctype-utf8.obj
 0003:000233f0       uctype_page01              000000018030d3f0     strings:ctype-utf8.obj
 0003:000234f0       uctype_page0F              000000018030d4f0     strings:ctype-utf8.obj
 0003:000235f0       u520p10                    000000018030d5f0     strings:ctype-utf8.obj
 0003:000241f0       uctype_page17              000000018030e1f0     strings:ctype-utf8.obj
 0003:000242f0       uctype_page06              000000018030e2f0     strings:ctype-utf8.obj
 0003:000243f0       uctype_page26              000000018030e3f0     strings:ctype-utf8.obj
 0003:000244f0       uctype_pageFA              000000018030e4f0     strings:ctype-utf8.obj
 0003:000245f0       uctype_pageE0              000000018030e5f0     strings:ctype-utf8.obj
 0003:000246f0       plane02                    000000018030e6f0     strings:ctype-utf8.obj
 0003:000252f0       u520p02                    000000018030f2f0     strings:ctype-utf8.obj
 0003:00025ef0       plane05                    000000018030fef0     strings:ctype-utf8.obj
 0003:00026af0       plane21                    0000000180310af0     strings:ctype-utf8.obj
 0003:000276f0       uctype_page31              00000001803116f0     strings:ctype-utf8.obj
 0003:000277f0       uctype_page19              00000001803117f0     strings:ctype-utf8.obj
 0003:000278f0       uctype_page20              00000001803118f0     strings:ctype-utf8.obj
 0003:000279f0       plane1F                    00000001803119f0     strings:ctype-utf8.obj
 0003:000285f0       uctype_page4D              00000001803125f0     strings:ctype-utf8.obj
 0003:000286f0       uctype_page04              00000001803126f0     strings:ctype-utf8.obj
 0003:000287f0       u520p104                   00000001803127f0     strings:ctype-utf8.obj
 0003:000293f0       uctype_page2E              00000001803133f0     strings:ctype-utf8.obj
 0003:000294f0       uctype_page0C              00000001803134f0     strings:ctype-utf8.obj
 0003:000295f0       uctype_page12              00000001803135f0     strings:ctype-utf8.obj
 0003:000296f0       uctype_page21              00000001803136f0     strings:ctype-utf8.obj
 0003:000297f0       u520p05                    00000001803137f0     strings:ctype-utf8.obj
 0003:0002a3f0       uctype_pageD8              00000001803143f0     strings:ctype-utf8.obj
 0003:0002a4f0       uctype_pageDB              00000001803144f0     strings:ctype-utf8.obj
 0003:0002a5f0       u520pA7                    00000001803145f0     strings:ctype-utf8.obj
 0003:0002b1f0       u520p21                    00000001803151f0     strings:ctype-utf8.obj
 0003:0002bdf0       uctype_page2C              0000000180315df0     strings:ctype-utf8.obj
 0003:0002bef0       u520pFF                    0000000180315ef0     strings:ctype-utf8.obj
 0003:0002caf0       turk00                     0000000180316af0     strings:ctype-utf8.obj
 0003:0002d6f0       plane01                    00000001803176f0     strings:ctype-utf8.obj
 0003:0002e2f0       uctype_page1D              00000001803182f0     strings:ctype-utf8.obj
 0003:0002e3f0       uctype_pageF8              00000001803183f0     strings:ctype-utf8.obj
 0003:0002e4f0       uctype_page07              00000001803184f0     strings:ctype-utf8.obj
 0003:0002e5f0       u520p24                    00000001803185f0     strings:ctype-utf8.obj
 0003:0002f1f0       plane03                    00000001803191f0     strings:ctype-utf8.obj
 0003:0002fdf0       plane04                    0000000180319df0     strings:ctype-utf8.obj
 0003:000309f0       uctype_page1B              000000018031a9f0     strings:ctype-utf8.obj
 0003:00030af0       plane1E                    000000018031aaf0     strings:ctype-utf8.obj
 0003:000316f0       uctype_page0B              000000018031b6f0     strings:ctype-utf8.obj
 0003:000317f0       uctype_page14              000000018031b7f0     strings:ctype-utf8.obj
 0003:000318f0       u520p1E                    000000018031b8f0     strings:ctype-utf8.obj
 0003:000324f0       uctype_page13              000000018031c4f0     strings:ctype-utf8.obj
 0003:000325f0       uctype_pageA4              000000018031c5f0     strings:ctype-utf8.obj
 0003:000326f0       uctype_page00              000000018031c6f0     strings:ctype-utf8.obj
 0003:000327f0       u520p2C                    000000018031c7f0     strings:ctype-utf8.obj
 0003:000333f0       u520p1D                    000000018031d3f0     strings:ctype-utf8.obj
 0003:00033ff0       uctype_pageA8              000000018031dff0     strings:ctype-utf8.obj
 0003:000340f0       plane24                    000000018031e0f0     strings:ctype-utf8.obj
 0003:00034cf0       uctype_page2D              000000018031ecf0     strings:ctype-utf8.obj
 0003:00034df0       uctype_pageFE              000000018031edf0     strings:ctype-utf8.obj
 0003:00034ef0       to_upper_utf8mb4           000000018031eef0     strings:ctype-utf8.obj
 0003:00034ff0       uctype_page02              000000018031eff0     strings:ctype-utf8.obj
 0003:000350f0       uctype_page0E              000000018031f0f0     strings:ctype-utf8.obj
 0003:000351f0       uctype_pageDF              000000018031f1f0     strings:ctype-utf8.obj
 0003:00035450       c87                        000000018031f450     strings:ctype-cp932.obj
 0003:00036050       my_caseinfo_pages_cp932    0000000180320050     strings:ctype-cp932.obj
 0003:00036850       cEE                        0000000180320850     strings:ctype-cp932.obj
 0003:00037450       cFA                        0000000180321450     strings:ctype-cp932.obj
 0003:00038050       c82                        0000000180322050     strings:ctype-cp932.obj
 0003:00038c50       c81                        0000000180322c50     strings:ctype-cp932.obj
 0003:00039850       c83                        0000000180323850     strings:ctype-cp932.obj
 0003:0003a450       c84                        0000000180324450     strings:ctype-cp932.obj
 0003:0003b890       my_caseinfo_pages_euckr    0000000180325890     strings:ctype-euc_kr.obj
 0003:0003c090       cA7                        0000000180326090     strings:ctype-euc_kr.obj
 0003:0003cc90       cA9                        0000000180326c90     strings:ctype-euc_kr.obj
 0003:0003d890       cA3                        0000000180327890     strings:ctype-euc_kr.obj
 0003:0003e490       cA5                        0000000180328490     strings:ctype-euc_kr.obj
 0003:0003f090       cA8                        0000000180329090     strings:ctype-euc_kr.obj
 0003:0003fc90       cAC                        0000000180329c90     strings:ctype-euc_kr.obj
 0003:000409f0       c8FA7                      000000018032a9f0     strings:ctype-eucjpms.obj
 0003:000415f0       my_caseinfo_pages_eucjpms  000000018032b5f0     strings:ctype-eucjpms.obj
 0003:000425f0       c8FAB                      000000018032c5f0     strings:ctype-eucjpms.obj
 0003:000431f0       cAD                        000000018032d1f0     strings:ctype-eucjpms.obj
 0003:00043df0       c8FA6                      000000018032ddf0     strings:ctype-eucjpms.obj
 0003:000449f0       cA7                        000000018032e9f0     strings:ctype-eucjpms.obj
 0003:000455f0       c8FF4                      000000018032f5f0     strings:ctype-eucjpms.obj
 0003:000461f0       cA2                        00000001803301f0     strings:ctype-eucjpms.obj
 0003:00046df0       c8FA9                      0000000180330df0     strings:ctype-eucjpms.obj
 0003:000479f0       cA3                        00000001803319f0     strings:ctype-eucjpms.obj
 0003:000485f0       cA6                        00000001803325f0     strings:ctype-eucjpms.obj
 0003:000491f0       c8FAA                      00000001803331f0     strings:ctype-eucjpms.obj
 0003:00049df0       c8FF3                      0000000180333df0     strings:ctype-eucjpms.obj
 0003:0004ab50       c8FA7                      0000000180334b50     strings:ctype-ujis.obj
 0003:0004b750       c8FAB                      0000000180335750     strings:ctype-ujis.obj
 0003:0004c350       c8FA6                      0000000180336350     strings:ctype-ujis.obj
 0003:0004cf50       my_caseinfo_pages_ujis     0000000180336f50     strings:ctype-ujis.obj
 0003:0004df50       cA7                        0000000180337f50     strings:ctype-ujis.obj
 0003:0004eb50       cA2                        0000000180338b50     strings:ctype-ujis.obj
 0003:0004f750       c8FA9                      0000000180339750     strings:ctype-ujis.obj
 0003:00050350       cA3                        000000018033a350     strings:ctype-ujis.obj
 0003:00050f50       cA6                        000000018033af50     strings:ctype-ujis.obj
 0003:00051b50       c8FAA                      000000018033bb50     strings:ctype-ujis.obj
 0003:000528b0       cA7                        000000018033c8b0     strings:ctype-gb2312.obj
 0003:000534b0       cA2                        000000018033d4b0     strings:ctype-gb2312.obj
 0003:000540b0       cA3                        000000018033e0b0     strings:ctype-gb2312.obj
 0003:00054cb0       cA6                        000000018033ecb0     strings:ctype-gb2312.obj
 0003:000558b0       my_caseinfo_pages_gb2312   000000018033f8b0     strings:ctype-gb2312.obj
 0003:000560b0       cA8                        00000001803400b0     strings:ctype-gb2312.obj
 0003:00056ec0       cC7                        0000000180340ec0     strings:ctype-big5.obj
 0003:00057ac0       my_caseinfo_pages_big5     0000000180341ac0     strings:ctype-big5.obj
 0003:000582c0       cA2                        00000001803422c0     strings:ctype-big5.obj
 0003:00058ec0       cA3                        0000000180342ec0     strings:ctype-big5.obj
 0003:00059c20       to_upper_tis620            0000000180343c20     strings:ctype-tis620.obj
 0003:00059d20       ctype_tis620               0000000180343d20     strings:ctype-tis620.obj
 0003:00059e30       to_lower_tis620            0000000180343e30     strings:ctype-tis620.obj
 0003:0005cb30       my_caseinfo_pages_sjis     0000000180346b30     strings:ctype-sjis.obj
 0003:0005d330       c82                        0000000180347330     strings:ctype-sjis.obj
 0003:0005df30       c81                        0000000180347f30     strings:ctype-sjis.obj
 0003:0005eb30       c83                        0000000180348b30     strings:ctype-sjis.obj
 0003:0005f730       c84                        0000000180349730     strings:ctype-sjis.obj
 0003:00060490       cA7                        000000018034a490     strings:ctype-gbk.obj
 0003:00061090       cA2                        000000018034b090     strings:ctype-gbk.obj
 0003:00061c90       my_caseinfo_pages_gbk      000000018034bc90     strings:ctype-gbk.obj
 0003:00062490       cA3                        000000018034c490     strings:ctype-gbk.obj
 0003:00063090       cA6                        000000018034d090     strings:ctype-gbk.obj
 0003:00063c90       sort_order_gbk             000000018034dc90     strings:ctype-gbk.obj
 0003:00063d90       static_l_desc              000000018034dd90     zlib:trees.obj
 0003:00063db0       static_bl_desc             000000018034ddb0     zlib:trees.obj
 0003:00063dd0       static_d_desc              000000018034ddd0     zlib:trees.obj
 0003:00063df0       ?cipher_names@yaSSL@@3QBQEBDB 000000018034ddf0     yassl:yassl_int.obj
 0003:000641f0       ?cipher_names@yaSSL@@3QBQEBDB 000000018034e1f0     yassl:yassl_imp.obj
 0003:000648b8       ?module_local_atexit_table@@3U_onexit_table_t@@A 000000018034e8b8     LIBCMT:utility.obj
 0003:000648d0       ?module_local_at_quick_exit_table@@3U_onexit_table_t@@A 000000018034e8d0     LIBCMT:utility.obj
 0003:000648e8       ?is_initialized_as_dll@@3_NA 000000018034e8e8     LIBCMT:utility.obj
 0003:000648ec       ?__proc_attached@@3HA      000000018034e8ec     LIBCMT:dll_dllmain.obj
 0003:000648f0       GS_ExceptionRecord         000000018034e8f0     LIBCMT:gs_report.obj
 0003:00064990       GS_ContextRecord           000000018034e990     LIBCMT:gs_report.obj
 0003:00064e90       ?__vcrt_startup_thread_ptd@@3U__vcrt_ptd@@A 000000018034ee90     libvcruntime:per_thread_data.obj
 0003:00064f08       __vcrt_lock_table          000000018034ef08     libvcruntime:locks.obj
 0003:00064f30       __vcrt_locks_initialized   000000018034ef30     libvcruntime:locks.obj
 0003:00064f40       ?module_handles@@3PAPEAUHINSTANCE__@@A 000000018034ef40     libvcruntime:winapi_downlevel.obj
 0003:00064f60       ?encoded_function_pointers@@3PAPEAXA 000000018034ef60     libvcruntime:winapi_downlevel.obj
 0003:00064ff0       ?heap@@3V_HeapManager@@A   000000018034eff0     libvcruntime:undname.obj
 0003:00065018       c_termination_complete     000000018034f018     libucrt:exit.obj
 0003:00065020       thread_local_exit_callback_func 000000018034f020     libucrt:exit.obj
 0003:00065028       ?c_exit_complete@?5??common_exit@@YAXHW4_crt_exit_cleanup_mode@@W4_crt_exit_return_mode@@@Z@4_NA 000000018034f028     libucrt:exit.obj
 0003:00065044       console_ctrl_handler_installed 000000018034f044     libucrt:signal.obj
 0003:00065048       ctrlc_action               000000018034f048     libucrt:signal.obj
 0003:00065050       ctrlbreak_action           000000018034f050     libucrt:signal.obj
 0003:00065058       abort_action               000000018034f058     libucrt:signal.obj
 0003:00065060       term_action                000000018034f060     libucrt:signal.obj
 0003:00065068       last_tz                    000000018034f068     libucrt:tzset.obj
 0003:00065070       tz_api_used                000000018034f070     libucrt:tzset.obj
 0003:00065080       tz_info                    000000018034f080     libucrt:tzset.obj
 0003:0006512c       ?first_time@?1??__tzset@@9@4JA 000000018034f12c     libucrt:tzset.obj
 0003:00065130       __acrt_invalid_parameter_handler 000000018034f130     libucrt:invalid_parameter.obj
 0003:00065140       __acrt_new_handler         000000018034f140     libucrt:new_handler.obj
 0003:00065150       ?program_name@?5???$common_configure_argv@D@@YAHW4_crt_argv_mode@@@Z@4PADA 000000018034f150     libucrt:argv_parsing.obj
 0003:000652a8       enable_percent_n           000000018034f2a8     libucrt:printf_count_output.obj
 0003:000656d4       __acrt_app_type            000000018034f6d4     libucrt:report_runtime_error.obj
 0003:000656d8       __acrt_error_mode          000000018034f6d8     libucrt:set_error_mode.obj
 0003:000656e0       __acrt_lock_table          000000018034f6e0     libucrt:locks.obj
 0003:000658e8       __acrt_locks_initialized   000000018034f8e8     libucrt:locks.obj
 0003:000658f0       module_handles             000000018034f8f0     libucrt:winapi_thunks.obj
 0003:00065990       encoded_function_pointers  000000018034f990     libucrt:winapi_thunks.obj
 0003:00065a90       ?state_cache@?1??__acrt_is_packaged_app@@9@4JA 000000018034fa90     libucrt:winapi_thunks.obj
 0003:00065aa8       _tzname                    000000018034faa8     libucrt:timeset.obj
 0003:00065ac4       fSystemSet                 000000018034fac4     libucrt:mbctype.obj
 0003:00065ad0       ?initialized@?1??__acrt_initialize_multibyte@@9@4_NA 000000018034fad0     libucrt:mbctype.obj
 0003:00065b08       user_matherr               000000018034fb08     libucrt:matherr.obj
 0003:00065b14       __acrt_global_new_mode     000000018034fb14     libucrt:new_mode.obj
 0003:00065b61       int_is_null_false          000000018034fb61     clientlib:libmysql.obj
 0003:00065b62       mysql_client_init          000000018034fb62     clientlib:libmysql.obj
 0003:00065b63       initialized                000000018034fb63     clientlib:client_plugin.obj
 0003:00065b7d       defaults_already_read      000000018034fb7d     mysys:my_default.obj
 0003:00065b80       ?DisconnectEx@?1??inline_mysql_socket_shutdown@@9@9 000000018034fb80     clientlib:mysql_async.obj
 0003:00065b90       ?DisconnectEx@?1??inline_mysql_socket_shutdown@@9@9 000000018034fb90     clientlib:client.obj
 0003:00065b98       ?DisconnectEx@?1??inline_mysql_socket_shutdown@@9@9 000000018034fb98     clientlib:libmysql.obj
 0003:00065ba0       my_time_zone               000000018034fba0     clientlib:my_time.obj
 0003:00065ba4       charsets_initialized       000000018034fba4     mysys:charset.obj
 0003:00069bb0       fs_cset_cache              0000000180353bb0     mysys:charset.obj
 0003:00069bb8       malloc_size_cb_func        0000000180353bb8     mysys:my_malloc.obj
 0003:00069bc8       default_directories        0000000180353bc8     mysys:my_default.obj
 0003:00069be1       my_thread_global_init_done 0000000180353be1     mysys:my_thr_init.obj
 0003:00069bec       thread_id                  0000000180353bec     mysys:my_thr_init.obj
 0003:00069e18       ?once_control@?1??pthread_cond_init@@9@9 0000000180353e18     mysys:my_wincond.obj
 0003:0006a020       have_native_conditions     0000000180354020     mysys:my_wincond.obj
 0003:0006a030       ?DisconnectEx@?1??inline_mysql_socket_shutdown@@9@9 0000000180354030     vio:vio.obj
 0003:0006a038       after_io_wait              0000000180354038     vio:viosocket.obj
 0003:0006a040       ?DisconnectEx@?1??inline_mysql_socket_shutdown@@9@9 0000000180354040     vio:viosocket.obj
 0003:0006a048       before_io_wait             0000000180354048     vio:viosocket.obj
 0003:0006a050       ?DisconnectEx@?1??inline_mysql_socket_shutdown@@9@9 0000000180354050     vio:vioshm.obj
 0003:0006a058       ?DisconnectEx@?1??inline_mysql_socket_shutdown@@9@9 0000000180354058     vio:viopipe.obj
 0003:0006a060       ?sslFactoryInstance@yaSSL@@3PEAVsslFactory@1@EA 0000000180354060     yassl:yassl_int.obj
 0003:0006a068       ?sessionsInstance@yaSSL@@3PEAVSessions@1@EA 0000000180354068     yassl:yassl_int.obj
 0003:0006a070       ?zero@TaoCrypt@@3PEAVInteger@1@EA 0000000180354070     taocrypt:integer.obj
 0003:0006a078       ?one@TaoCrypt@@3PEAVInteger@1@EA 0000000180354078     taocrypt:integer.obj
 0003:0006a288       LOCK_load_client_plugin    0000000180354288     clientlib:client_plugin.obj
 0003:0006a2b8       mem_root                   00000001803542b8     clientlib:client_plugin.obj
 0003:0006a2f0       ?win_errormsg@?1??dlerror@@9@9 00000001803542f0     clientlib:client_plugin.obj
 0003:0006aaf0       my_collation_statistics    0000000180354af0     mysys:charset.obj
 0003:0006eaf0       my_defaults_file_buffer    0000000180358af0     mysys:my_default.obj
 0003:0006ecf0       my_defaults_extra_file_buffer 0000000180358cf0     mysys:my_default.obj
 0003:0006eef0       instrumented_stdin         0000000180358ef0     mysys:my_init.obj
 0003:0006ef00       query_performance_frequency 0000000180358f00     mysys:my_getsystime.obj
 0003:0006ef08       my_InitializeConditionVariable 0000000180358f08     mysys:my_wincond.obj
 0003:0006ef10       ?fp_CancelIoEx@?1??cancel_io@@9@9 0000000180358f10     vio:viosocket.obj
 0003:0006ef20       ?cipher_names@yaSSL@@3QBQEBDB 0000000180358f20     yassl:crypto_wrapper.obj
 0003:0006f320       ?cipher_names@yaSSL@@3QBQEBDB 0000000180359320     yassl:buffer.obj
 0003:0006f720       ?cipher_names@yaSSL@@3QBQEBDB 0000000180359720     yassl:handshake.obj
 0003:0006fb20       ?cipher_names@yaSSL@@3QBQEBDB 0000000180359b20     yassl:cert_wrapper.obj
 0004:00000000       $pdata$snprintf            00000001803c7000     binding.obj
 0004:0000000c       $pdata$?FunctionCallbackWrapper@imp@Nan@@YAXAEBV?$FunctionCallbackInfo@VValue@v8@@@v8@@@Z 00000001803c700c     binding.obj
 0004:00000018       $pdata$?New@?$Factory@VFunctionTemplate@v8@@@imp@Nan@@SA?AV?$Local@VFunctionTemplate@v8@@@v8@@P6AXAEBV?$FunctionCallbackInfo@VValue@v8@@@3@@ZV?$Local@VValue@v8@@@5@V?$Local@VSignature@v8@@@5@@Z 00000001803c7018     binding.obj
 0004:00000024       $pdata$0$?New@?$Factory@VFunctionTemplate@v8@@@imp@Nan@@SA?AV?$Local@VFunctionTemplate@v8@@@v8@@P6AXAEBV?$FunctionCallbackInfo@VValue@v8@@@3@@ZV?$Local@VValue@v8@@@5@V?$Local@VSignature@v8@@@5@@Z 00000001803c7024     binding.obj
 0004:00000030       $pdata$1$?New@?$Factory@VFunctionTemplate@v8@@@imp@Nan@@SA?AV?$Local@VFunctionTemplate@v8@@@v8@@P6AXAEBV?$FunctionCallbackInfo@VValue@v8@@@3@@ZV?$Local@VValue@v8@@@5@V?$Local@VSignature@v8@@@5@@Z 00000001803c7030     binding.obj
 0004:0000003c       $pdata$2$?New@?$Factory@VFunctionTemplate@v8@@@imp@Nan@@SA?AV?$Local@VFunctionTemplate@v8@@@v8@@P6AXAEBV?$FunctionCallbackInfo@VValue@v8@@@3@@ZV?$Local@VValue@v8@@@5@V?$Local@VSignature@v8@@@5@@Z 00000001803c703c     binding.obj
 0004:00000048       $pdata$3$?New@?$Factory@VFunctionTemplate@v8@@@imp@Nan@@SA?AV?$Local@VFunctionTemplate@v8@@@v8@@P6AXAEBV?$FunctionCallbackInfo@VValue@v8@@@3@@ZV?$Local@VValue@v8@@@5@V?$Local@VSignature@v8@@@5@@Z 00000001803c7048     binding.obj
 0004:00000054       $pdata$?ThrowError@Nan@@YAXPEBD@Z 00000001803c7054     binding.obj
 0004:00000060       $pdata$?ThrowTypeError@Nan@@YAXPEBD@Z 00000001803c7060     binding.obj
 0004:0000006c       $pdata$??0Utf8String@Nan@@QEAA@V?$Local@VValue@v8@@@v8@@@Z 00000001803c706c     binding.obj
 0004:00000078       $pdata$0$??0Utf8String@Nan@@QEAA@V?$Local@VValue@v8@@@v8@@@Z 00000001803c7078     binding.obj
 0004:00000084       $pdata$1$??0Utf8String@Nan@@QEAA@V?$Local@VValue@v8@@@v8@@@Z 00000001803c7084     binding.obj
 0004:00000090       $pdata$?Call@Callback@Nan@@QEBA?AV?$Local@VValue@v8@@@v8@@V?$Local@VObject@v8@@@4@HQEAV34@@Z 00000001803c7090     binding.obj
 0004:0000009c       $pdata$?SetPrototypeMethod@Nan@@YAXV?$Local@VFunctionTemplate@v8@@@v8@@PEBDP6AXAEBV?$FunctionCallbackInfo@VValue@v8@@@1@@Z@Z 00000001803c709c     binding.obj
 0004:000000a8       $pdata$??1ObjectWrap@Nan@@UEAA@XZ 00000001803c70a8     binding.obj
 0004:000000b4       $pdata$?Wrap@ObjectWrap@Nan@@IEAAXV?$Local@VObject@v8@@@v8@@@Z 00000001803c70b4     binding.obj
 0004:000000c0       $pdata$?Ref@ObjectWrap@Nan@@MEAAXXZ 00000001803c70c0     binding.obj
 0004:000000cc       $pdata$?Unref@ObjectWrap@Nan@@MEAAXXZ 00000001803c70cc     binding.obj
 0004:000000d8       $pdata$?WeakCallback@ObjectWrap@Nan@@CAXAEBV?$WeakCallbackInfo@VObjectWrap@Nan@@@v8@@@Z 00000001803c70d8     binding.obj
 0004:000000e4       $pdata$??_GObjectWrap@Nan@@UEAAPEAXI@Z 00000001803c70e4     binding.obj
 0004:000000f0       $pdata$??1Client@@UEAA@XZ  00000001803c70f0     binding.obj
 0004:000000fc       $pdata$?init@Client@@QEAA_NXZ 00000001803c70fc     binding.obj
 0004:00000108       $pdata$?clear_state@Client@@QEAAXXZ 00000001803c7108     binding.obj
 0004:00000114       $pdata$?close@Client@@QEAA_N_N@Z 00000001803c7114     binding.obj
 0004:00000120       $pdata$?query@Client@@QEAA_NV?$Local@VValue@v8@@@v8@@_N11@Z 00000001803c7120     binding.obj
 0004:0000012c       $pdata$0$?query@Client@@QEAA_NV?$Local@VValue@v8@@@v8@@_N11@Z 00000001803c712c     binding.obj
 0004:00000138       $pdata$1$?query@Client@@QEAA_NV?$Local@VValue@v8@@@v8@@_N11@Z 00000001803c7138     binding.obj
 0004:00000144       $pdata$?do_work@Client@@QEAAXH@Z 00000001803c7144     binding.obj
 0004:00000150       $pdata$2$?do_work@Client@@QEAAXH@Z 00000001803c7150     binding.obj
 0004:0000015c       $pdata$3$?do_work@Client@@QEAAXH@Z 00000001803c715c     binding.obj
 0004:00000168       $pdata$?cb_close@Client@@SAXPEAUuv_handle_s@@@Z 00000001803c7168     binding.obj
 0004:00000174       $pdata$?cb_poll@Client@@SAXPEAUuv_poll_s@@HH@Z 00000001803c7174     binding.obj
 0004:00000180       $pdata$?on_connect@Client@@QEAAXXZ 00000001803c7180     binding.obj
 0004:0000018c       $pdata$?on_error@Client@@QEAAX_NIPEBD@Z 00000001803c718c     binding.obj
 0004:00000198       $pdata$?on_row@Client@@QEAAXXZ 00000001803c7198     binding.obj
 0004:000001a4       $pdata$3$?on_row@Client@@QEAAXXZ 00000001803c71a4     binding.obj
 0004:000001b0       $pdata$4$?on_row@Client@@QEAAXXZ 00000001803c71b0     binding.obj
 0004:000001bc       $pdata$5$?on_row@Client@@QEAAXXZ 00000001803c71bc     binding.obj
 0004:000001c8       $pdata$6$?on_row@Client@@QEAAXXZ 00000001803c71c8     binding.obj
 0004:000001d4       $pdata$?on_rows@Client@@QEAAXXZ 00000001803c71d4     binding.obj
 0004:000001e0       $pdata$2$?on_rows@Client@@QEAAXXZ 00000001803c71e0     binding.obj
 0004:000001ec       $pdata$4$?on_rows@Client@@QEAAXXZ 00000001803c71ec     binding.obj
 0004:000001f8       $pdata$5$?on_rows@Client@@QEAAXXZ 00000001803c71f8     binding.obj
 0004:00000204       $pdata$6$?on_rows@Client@@QEAAXXZ 00000001803c7204     binding.obj
 0004:00000210       $pdata$?on_resultinfo@Client@@QEAAXPEAUst_mysql_field@@I@Z 00000001803c7210     binding.obj
 0004:0000021c       $pdata$4$?on_resultinfo@Client@@QEAAXPEAUst_mysql_field@@I@Z 00000001803c721c     binding.obj
 0004:00000228       $pdata$5$?on_resultinfo@Client@@QEAAXPEAUst_mysql_field@@I@Z 00000001803c7228     binding.obj
 0004:00000234       $pdata$6$?on_resultinfo@Client@@QEAAXPEAUst_mysql_field@@I@Z 00000001803c7234     binding.obj
 0004:00000240       $pdata$?on_resultend@Client@@QEAAXXZ 00000001803c7240     binding.obj
 0004:0000024c       $pdata$?on_ping@Client@@QEAAXXZ 00000001803c724c     binding.obj
 0004:00000258       $pdata$?on_idle@Client@@QEAAXXZ 00000001803c7258     binding.obj
 0004:00000264       $pdata$?apply_config@Client@@QEAA_NV?$Local@VObject@v8@@@v8@@@Z 00000001803c7264     binding.obj
 0004:00000270       $pdata$2$?apply_config@Client@@QEAA_NV?$Local@VObject@v8@@@v8@@@Z 00000001803c7270     binding.obj
 0004:0000027c       $pdata$3$?apply_config@Client@@QEAA_NV?$Local@VObject@v8@@@v8@@@Z 00000001803c727c     binding.obj
 0004:00000288       $pdata$4$?apply_config@Client@@QEAA_NV?$Local@VObject@v8@@@v8@@@Z 00000001803c7288     binding.obj
 0004:00000294       $pdata$5$?apply_config@Client@@QEAA_NV?$Local@VObject@v8@@@v8@@@Z 00000001803c7294     binding.obj
 0004:000002a0       $pdata$?New@Client@@SAXAEBV?$FunctionCallbackInfo@VValue@v8@@@Nan@@@Z 00000001803c72a0     binding.obj
 0004:000002ac       $pdata$0$?New@Client@@SAXAEBV?$FunctionCallbackInfo@VValue@v8@@@Nan@@@Z 00000001803c72ac     binding.obj
 0004:000002b8       $pdata$2$?New@Client@@SAXAEBV?$FunctionCallbackInfo@VValue@v8@@@Nan@@@Z 00000001803c72b8     binding.obj
 0004:000002c4       $pdata$6$?New@Client@@SAXAEBV?$FunctionCallbackInfo@VValue@v8@@@Nan@@@Z 00000001803c72c4     binding.obj
 0004:000002d0       $pdata$7$?New@Client@@SAXAEBV?$FunctionCallbackInfo@VValue@v8@@@Nan@@@Z 00000001803c72d0     binding.obj
 0004:000002dc       $pdata$8$?New@Client@@SAXAEBV?$FunctionCallbackInfo@VValue@v8@@@Nan@@@Z 00000001803c72dc     binding.obj
 0004:000002e8       $pdata$9$?New@Client@@SAXAEBV?$FunctionCallbackInfo@VValue@v8@@@Nan@@@Z 00000001803c72e8     binding.obj
 0004:000002f4       $pdata$11$?New@Client@@SAXAEBV?$FunctionCallbackInfo@VValue@v8@@@Nan@@@Z 00000001803c72f4     binding.obj
 0004:00000300       $pdata$12$?New@Client@@SAXAEBV?$FunctionCallbackInfo@VValue@v8@@@Nan@@@Z 00000001803c7300     binding.obj
 0004:0000030c       $pdata$?SetConfig@Client@@SAXAEBV?$FunctionCallbackInfo@VValue@v8@@@Nan@@@Z 00000001803c730c     binding.obj
 0004:00000318       $pdata$?Connect@Client@@SAXAEBV?$FunctionCallbackInfo@VValue@v8@@@Nan@@@Z 00000001803c7318     binding.obj
 0004:00000324       $pdata$?Close@Client@@SAXAEBV?$FunctionCallbackInfo@VValue@v8@@@Nan@@@Z 00000001803c7324     binding.obj
 0004:00000330       $pdata$?Pause@Client@@SAXAEBV?$FunctionCallbackInfo@VValue@v8@@@Nan@@@Z 00000001803c7330     binding.obj
 0004:0000033c       $pdata$?Resume@Client@@SAXAEBV?$FunctionCallbackInfo@VValue@v8@@@Nan@@@Z 00000001803c733c     binding.obj
 0004:00000348       $pdata$?Ping@Client@@SAXAEBV?$FunctionCallbackInfo@VValue@v8@@@Nan@@@Z 00000001803c7348     binding.obj
 0004:00000354       $pdata$?LastInsertId@Client@@SAXAEBV?$FunctionCallbackInfo@VValue@v8@@@Nan@@@Z 00000001803c7354     binding.obj
 0004:00000360       $pdata$?Query@Client@@SAXAEBV?$FunctionCallbackInfo@VValue@v8@@@Nan@@@Z 00000001803c7360     binding.obj
 0004:0000036c       $pdata$2$?Query@Client@@SAXAEBV?$FunctionCallbackInfo@VValue@v8@@@Nan@@@Z 00000001803c736c     binding.obj
 0004:00000378       $pdata$3$?Query@Client@@SAXAEBV?$FunctionCallbackInfo@VValue@v8@@@Nan@@@Z 00000001803c7378     binding.obj
 0004:00000384       $pdata$?Escape@Client@@SAXAEBV?$FunctionCallbackInfo@VValue@v8@@@Nan@@@Z 00000001803c7384     binding.obj
 0004:00000390       $pdata$1$?Escape@Client@@SAXAEBV?$FunctionCallbackInfo@VValue@v8@@@Nan@@@Z 00000001803c7390     binding.obj
 0004:0000039c       $pdata$2$?Escape@Client@@SAXAEBV?$FunctionCallbackInfo@VValue@v8@@@Nan@@@Z 00000001803c739c     binding.obj
 0004:000003a8       $pdata$3$?Escape@Client@@SAXAEBV?$FunctionCallbackInfo@VValue@v8@@@Nan@@@Z 00000001803c73a8     binding.obj
 0004:000003b4       $pdata$?IsMariaDB@Client@@SAXAEBV?$FunctionCallbackInfo@VValue@v8@@@Nan@@@Z 00000001803c73b4     binding.obj
 0004:000003c0       $pdata$?ServerVersion@Client@@SAXAEBV?$FunctionCallbackInfo@VValue@v8@@@Nan@@@Z 00000001803c73c0     binding.obj
 0004:000003cc       $pdata$0$?ServerVersion@Client@@SAXAEBV?$FunctionCallbackInfo@VValue@v8@@@Nan@@@Z 00000001803c73cc     binding.obj
 0004:000003d8       $pdata$1$?ServerVersion@Client@@SAXAEBV?$FunctionCallbackInfo@VValue@v8@@@Nan@@@Z 00000001803c73d8     binding.obj
 0004:000003e4       $pdata$?Initialize@Client@@SAXV?$Local@VObject@v8@@@v8@@@Z 00000001803c73e4     binding.obj
 0004:000003f0       $pdata$??_GClient@@UEAAPEAXI@Z 00000001803c73f0     binding.obj
 0004:000003fc       $pdata$??_GUtf8String@Nan@@QEAAPEAXI@Z 00000001803c73fc     binding.obj
 0004:00000408       $pdata$?Escape@@YAXAEBV?$FunctionCallbackInfo@VValue@v8@@@Nan@@@Z 00000001803c7408     binding.obj
 0004:00000414       $pdata$0$?Escape@@YAXAEBV?$FunctionCallbackInfo@VValue@v8@@@Nan@@@Z 00000001803c7414     binding.obj
 0004:00000420       $pdata$1$?Escape@@YAXAEBV?$FunctionCallbackInfo@VValue@v8@@@Nan@@@Z 00000001803c7420     binding.obj
 0004:0000042c       $pdata$2$?Escape@@YAXAEBV?$FunctionCallbackInfo@VValue@v8@@@Nan@@@Z 00000001803c742c     binding.obj
 0004:00000438       $pdata$3$?Escape@@YAXAEBV?$FunctionCallbackInfo@VValue@v8@@@Nan@@@Z 00000001803c7438     binding.obj
 0004:00000444       $pdata$?Version@@YAXAEBV?$FunctionCallbackInfo@VValue@v8@@@Nan@@@Z 00000001803c7444     binding.obj
 0004:00000450       $pdata$init                00000001803c7450     binding.obj
 0004:0000045c       $pdata$??$Reset@VObject@v8@@@?$Persistent@VObject@v8@@V?$NonCopyablePersistentTraits@VObject@v8@@@2@@Nan@@QEAAXAEBV?$Local@VObject@v8@@@v8@@@Z 00000001803c745c     binding.obj
 0004:00000468       $pdata$??$Unwrap@VClient@@@ObjectWrap@Nan@@SAPEAVClient@@V?$Local@VObject@v8@@@v8@@@Z 00000001803c7468     binding.obj
 0004:00000474       $pdata$?load_exe_hook@@YAP6A_JXZIPEAUDelayLoadInfo@@@Z 00000001803c7474     win_delay_load_hook.obj
 0004:00000480       $pdata$my_connect_async    00000001803c7480     clientlib:mysql_async.obj
 0004:0000048c       $pdata$my_recv_async       00000001803c748c     clientlib:mysql_async.obj
 0004:00000498       $pdata$my_send_async       00000001803c7498     clientlib:mysql_async.obj
 0004:000004a4       $pdata$mysql_real_connect_start_internal 00000001803c74a4     clientlib:mysql_async.obj
 0004:000004b0       $pdata$mysql_real_connect_start 00000001803c74b0     clientlib:mysql_async.obj
 0004:000004bc       $pdata$mysql_real_connect_cont 00000001803c74bc     clientlib:mysql_async.obj
 0004:000004bc       $pdata$mysql_store_result_cont 00000001803c74bc     clientlib:mysql_async.obj
 0004:000004c8       $pdata$mysql_real_query_start_internal 00000001803c74c8     clientlib:mysql_async.obj
 0004:000004d4       $pdata$mysql_fetch_row_start_internal 00000001803c74d4     clientlib:mysql_async.obj
 0004:000004e0       $pdata$mysql_fetch_row_start 00000001803c74e0     clientlib:mysql_async.obj
 0004:000004ec       $pdata$0$mysql_fetch_row_start 00000001803c74ec     clientlib:mysql_async.obj
 0004:000004f8       $pdata$1$mysql_fetch_row_start 00000001803c74f8     clientlib:mysql_async.obj
 0004:00000504       $pdata$2$mysql_fetch_row_start 00000001803c7504     clientlib:mysql_async.obj
 0004:00000510       $pdata$4$mysql_fetch_row_start 00000001803c7510     clientlib:mysql_async.obj
 0004:0000051c       $pdata$6$mysql_fetch_row_start 00000001803c751c     clientlib:mysql_async.obj
 0004:00000528       $pdata$mysql_fetch_row_cont 00000001803c7528     clientlib:mysql_async.obj
 0004:00000534       $pdata$mysql_store_result_start_internal 00000001803c7534     clientlib:mysql_async.obj
 0004:00000540       $pdata$mysql_store_result_start 00000001803c7540     clientlib:mysql_async.obj
 0004:0000054c       $pdata$mysql_free_result_start_internal 00000001803c754c     clientlib:mysql_async.obj
 0004:00000558       $pdata$mysql_free_result_start 00000001803c7558     clientlib:mysql_async.obj
 0004:00000564       $pdata$1$mysql_free_result_start 00000001803c7564     clientlib:mysql_async.obj
 0004:00000570       $pdata$2$mysql_free_result_start 00000001803c7570     clientlib:mysql_async.obj
 0004:0000057c       $pdata$4$mysql_free_result_start 00000001803c757c     clientlib:mysql_async.obj
 0004:00000588       $pdata$5$mysql_free_result_start 00000001803c7588     clientlib:mysql_async.obj
 0004:00000594       $pdata$mysql_ping_start_internal 00000001803c7594     clientlib:mysql_async.obj
 0004:000005a0       $pdata$mysql_ping_start    00000001803c75a0     clientlib:mysql_async.obj
 0004:000005ac       $pdata$mysql_next_result_start_internal 00000001803c75ac     clientlib:mysql_async.obj
 0004:000005b8       $pdata$mysql_next_result_start 00000001803c75b8     clientlib:mysql_async.obj
 0004:000005c4       $pdata$fprintf             00000001803c75c4     clientlib:client.obj
 0004:000005d0       $pdata$sprintf             00000001803c75d0     clientlib:client.obj
 0004:000005dc       $pdata$set_mysql_extended_error 00000001803c75dc     clientlib:client.obj
 0004:000005e8       $pdata$create_named_pipe   00000001803c75e8     clientlib:client.obj
 0004:000005f4       $pdata$create_shared_memory 00000001803c75f4     clientlib:client.obj
 0004:00000600       $pdata$1$create_shared_memory 00000001803c7600     clientlib:client.obj
 0004:0000060c       $pdata$3$create_shared_memory 00000001803c760c     clientlib:client.obj
 0004:00000618       $pdata$4$create_shared_memory 00000001803c7618     clientlib:client.obj
 0004:00000624       $pdata$5$create_shared_memory 00000001803c7624     clientlib:client.obj
 0004:00000630       $pdata$6$create_shared_memory 00000001803c7630     clientlib:client.obj
 0004:0000063c       $pdata$cli_safe_read       00000001803c763c     clientlib:client.obj
 0004:00000648       $pdata$free_rows           00000001803c7648     clientlib:client.obj
 0004:00000654       $pdata$cli_advanced_command 00000001803c7654     clientlib:client.obj
 0004:00000660       $pdata$1$cli_advanced_command 00000001803c7660     clientlib:client.obj
 0004:0000066c       $pdata$3$cli_advanced_command 00000001803c766c     clientlib:client.obj
 0004:00000678       $pdata$5$cli_advanced_command 00000001803c7678     clientlib:client.obj
 0004:00000684       $pdata$6$cli_advanced_command 00000001803c7684     clientlib:client.obj
 0004:00000690       $pdata$free_old_query      00000001803c7690     clientlib:client.obj
 0004:0000069c       $pdata$cli_flush_use_result 00000001803c769c     clientlib:client.obj
 0004:000006a8       $pdata$cli_report_progress 00000001803c76a8     clientlib:client.obj
 0004:000006b4       $pdata$1$cli_report_progress 00000001803c76b4     clientlib:client.obj
 0004:000006c0       $pdata$3$cli_report_progress 00000001803c76c0     clientlib:client.obj
 0004:000006cc       $pdata$4$cli_report_progress 00000001803c76cc     clientlib:client.obj
 0004:000006d8       $pdata$end_server          00000001803c76d8     clientlib:client.obj
 0004:000006e4       $pdata$0$end_server        00000001803c76e4     clientlib:client.obj
 0004:000006f0       $pdata$1$end_server        00000001803c76f0     clientlib:client.obj
 0004:000006fc       $pdata$mysql_free_result   00000001803c76fc     clientlib:client.obj
 0004:00000708       $pdata$0$mysql_free_result 00000001803c7708     clientlib:client.obj
 0004:00000714       $pdata$1$mysql_free_result 00000001803c7714     clientlib:client.obj
 0004:00000720       $pdata$2$mysql_free_result 00000001803c7720     clientlib:client.obj
 0004:0000072c       $pdata$3$mysql_free_result 00000001803c772c     clientlib:client.obj
 0004:00000738       $pdata$add_init_command    00000001803c7738     clientlib:client.obj
 0004:00000744       $pdata$mysql_read_default_options 00000001803c7744     clientlib:client.obj
 0004:00000750       $pdata$cli_fetch_lengths   00000001803c7750     clientlib:client.obj
 0004:0000075c       $pdata$unpack_fields       00000001803c775c     clientlib:client.obj
 0004:00000768       $pdata$2$unpack_fields     00000001803c7768     clientlib:client.obj
 0004:00000774       $pdata$3$unpack_fields     00000001803c7774     clientlib:client.obj
 0004:00000780       $pdata$cli_read_rows       00000001803c7780     clientlib:client.obj
 0004:0000078c       $pdata$0$cli_read_rows     00000001803c778c     clientlib:client.obj
 0004:00000798       $pdata$6$cli_read_rows     00000001803c7798     clientlib:client.obj
 0004:000007a4       $pdata$read_one_row        00000001803c77a4     clientlib:client.obj
 0004:000007b0       $pdata$0$read_one_row      00000001803c77b0     clientlib:client.obj
 0004:000007bc       $pdata$1$read_one_row      00000001803c77bc     clientlib:client.obj
 0004:000007c8       $pdata$2$read_one_row      00000001803c77c8     clientlib:client.obj
 0004:000007d4       $pdata$mysql_init          00000001803c77d4     clientlib:client.obj
 0004:000007e0       $pdata$my_os_charset_to_mysql_charset 00000001803c77e0     clientlib:client.obj
 0004:000007ec       $pdata$mysql_autodetect_character_set 00000001803c77ec     clientlib:client.obj
 0004:000007f8       $pdata$mysql_set_character_set_with_default_collation 00000001803c77f8     clientlib:client.obj
 0004:00000804       $pdata$mysql_init_character_set 00000001803c7804     clientlib:client.obj
 0004:00000810       $pdata$send_client_connect_attrs 00000001803c7810     clientlib:client.obj
 0004:0000081c       $pdata$5$send_client_connect_attrs 00000001803c781c     clientlib:client.obj
 0004:00000828       $pdata$7$send_client_connect_attrs 00000001803c7828     clientlib:client.obj
 0004:00000834       $pdata$9$send_client_connect_attrs 00000001803c7834     clientlib:client.obj
 0004:00000840       $pdata$10$send_client_connect_attrs 00000001803c7840     clientlib:client.obj
 0004:0000084c       $pdata$get_length_store_length 00000001803c784c     clientlib:client.obj
 0004:00000858       $pdata$write_length_encoded_string4 00000001803c7858     clientlib:client.obj
 0004:00000864       $pdata$send_change_user_packet 00000001803c7864     clientlib:client.obj
 0004:00000870       $pdata$send_client_reply_packet 00000001803c7870     clientlib:client.obj
 0004:0000087c       $pdata$client_mpvio_read_packet 00000001803c787c     clientlib:client.obj
 0004:00000888       $pdata$client_mpvio_write_packet 00000001803c7888     clientlib:client.obj
 0004:00000894       $pdata$0$client_mpvio_write_packet 00000001803c7894     clientlib:client.obj
 0004:000008a0       $pdata$2$client_mpvio_write_packet 00000001803c78a0     clientlib:client.obj
 0004:000008ac       $pdata$mpvio_info          00000001803c78ac     clientlib:client.obj
 0004:000008b8       $pdata$run_plugin_auth     00000001803c78b8     clientlib:client.obj
 0004:000008c4       $pdata$0$run_plugin_auth   00000001803c78c4     clientlib:client.obj
 0004:000008d0       $pdata$1$run_plugin_auth   00000001803c78d0     clientlib:client.obj
 0004:000008dc       $pdata$connect_sync_or_async 00000001803c78dc     clientlib:client.obj
 0004:000008e8       $pdata$0$connect_sync_or_async 00000001803c78e8     clientlib:client.obj
 0004:000008f4       $pdata$1$connect_sync_or_async 00000001803c78f4     clientlib:client.obj
 0004:00000900       $pdata$set_connect_attributes 00000001803c7900     clientlib:client.obj
 0004:0000090c       $pdata$mysql_real_connect  00000001803c790c     clientlib:client.obj
 0004:00000918       $pdata$mysql_reconnect     00000001803c7918     clientlib:client.obj
 0004:00000924       $pdata$0$mysql_reconnect   00000001803c7924     clientlib:client.obj
 0004:00000930       $pdata$1$mysql_reconnect   00000001803c7930     clientlib:client.obj
 0004:0000093c       $pdata$2$mysql_reconnect   00000001803c793c     clientlib:client.obj
 0004:00000948       $pdata$3$mysql_reconnect   00000001803c7948     clientlib:client.obj
 0004:00000954       $pdata$mysql_select_db     00000001803c7954     clientlib:client.obj
 0004:00000960       $pdata$0$mysql_select_db   00000001803c7960     clientlib:client.obj
 0004:0000096c       $pdata$1$mysql_select_db   00000001803c796c     clientlib:client.obj
 0004:00000978       $pdata$mysql_close_free_options 00000001803c7978     clientlib:client.obj
 0004:00000984       $pdata$0$mysql_close_free_options 00000001803c7984     clientlib:client.obj
 0004:00000990       $pdata$1$mysql_close_free_options 00000001803c7990     clientlib:client.obj
 0004:0000099c       $pdata$2$mysql_close_free_options 00000001803c799c     clientlib:client.obj
 0004:000009a8       $pdata$3$mysql_close_free_options 00000001803c79a8     clientlib:client.obj
 0004:000009b4       $pdata$4$mysql_close_free_options 00000001803c79b4     clientlib:client.obj
 0004:000009c0       $pdata$5$mysql_close_free_options 00000001803c79c0     clientlib:client.obj
 0004:000009cc       $pdata$6$mysql_close_free_options 00000001803c79cc     clientlib:client.obj
 0004:000009d8       $pdata$mysql_close_free    00000001803c79d8     clientlib:client.obj
 0004:000009e4       $pdata$mysql_prune_stmt_list 00000001803c79e4     clientlib:client.obj
 0004:000009f0       $pdata$0$mysql_prune_stmt_list 00000001803c79f0     clientlib:client.obj
 0004:000009fc       $pdata$1$mysql_prune_stmt_list 00000001803c79fc     clientlib:client.obj
 0004:00000a08       $pdata$mysql_detach_stmt_list 00000001803c7a08     clientlib:client.obj
 0004:00000a14       $pdata$mysql_close         00000001803c7a14     clientlib:client.obj
 0004:00000a20       $pdata$0$mysql_close       00000001803c7a20     clientlib:client.obj
 0004:00000a2c       $pdata$1$mysql_close       00000001803c7a2c     clientlib:client.obj
 0004:00000a38       $pdata$cli_read_query_result 00000001803c7a38     clientlib:client.obj
 0004:00000a44       $pdata$mysql_real_query    00000001803c7a44     clientlib:client.obj
 0004:00000a50       $pdata$mysql_store_result  00000001803c7a50     clientlib:client.obj
 0004:00000a5c       $pdata$1$mysql_store_result 00000001803c7a5c     clientlib:client.obj
 0004:00000a68       $pdata$3$mysql_store_result 00000001803c7a68     clientlib:client.obj
 0004:00000a74       $pdata$5$mysql_store_result 00000001803c7a74     clientlib:client.obj
 0004:00000a80       $pdata$cli_use_result      00000001803c7a80     clientlib:client.obj
 0004:00000a8c       $pdata$0$cli_use_result    00000001803c7a8c     clientlib:client.obj
 0004:00000a98       $pdata$2$cli_use_result    00000001803c7a98     clientlib:client.obj
 0004:00000aa4       $pdata$mysql_fetch_row     00000001803c7aa4     clientlib:client.obj
 0004:00000ab0       $pdata$0$mysql_fetch_row   00000001803c7ab0     clientlib:client.obj
 0004:00000abc       $pdata$2$mysql_fetch_row   00000001803c7abc     clientlib:client.obj
 0004:00000ac8       $pdata$3$mysql_fetch_row   00000001803c7ac8     clientlib:client.obj
 0004:00000ad4       $pdata$mysql_options       00000001803c7ad4     clientlib:client.obj
 0004:00000ae0       $pdata$mysql_options4      00000001803c7ae0     clientlib:client.obj
 0004:00000aec       $pdata$0$mysql_options4    00000001803c7aec     clientlib:client.obj
 0004:00000af8       $pdata$1$mysql_options4    00000001803c7af8     clientlib:client.obj
 0004:00000b04       $pdata$mysql_get_server_version 00000001803c7b04     clientlib:client.obj
 0004:00000b10       $pdata$mysql_set_character_set 00000001803c7b10     clientlib:client.obj
 0004:00000b1c       $pdata$native_password_auth_client 00000001803c7b1c     clientlib:client.obj
 0004:00000b28       $pdata$old_password_auth_client 00000001803c7b28     clientlib:client.obj
 0004:00000b34       $pdata$0$old_password_auth_client 00000001803c7b34     clientlib:client.obj
 0004:00000b40       $pdata$1$old_password_auth_client 00000001803c7b40     clientlib:client.obj
 0004:00000b4c       $pdata$mysql_server_init   00000001803c7b4c     clientlib:libmysql.obj
 0004:00000b58       $pdata$handle_local_infile 00000001803c7b58     clientlib:libmysql.obj
 0004:00000b64       $pdata$default_local_infile_init 00000001803c7b64     clientlib:libmysql.obj
 0004:00000b70       $pdata$0$default_local_infile_init 00000001803c7b70     clientlib:libmysql.obj
 0004:00000b7c       $pdata$1$default_local_infile_init 00000001803c7b7c     clientlib:libmysql.obj
 0004:00000b88       $pdata$default_local_infile_read 00000001803c7b88     clientlib:libmysql.obj
 0004:00000b94       $pdata$default_local_infile_end 00000001803c7b94     clientlib:libmysql.obj
 0004:00000ba0       $pdata$cli_list_fields     00000001803c7ba0     clientlib:libmysql.obj
 0004:00000bac       $pdata$cli_read_statistics 00000001803c7bac     clientlib:libmysql.obj
 0004:00000bb8       $pdata$mysql_ping          00000001803c7bb8     clientlib:libmysql.obj
 0004:00000bc4       $pdata$my_net_local_init   00000001803c7bc4     clientlib:libmysql.obj
 0004:00000bd0       $pdata$mysql_escape_string_ex 00000001803c7bd0     clientlib:libmysql.obj
 0004:00000bdc       $pdata$my_realloc_str      00000001803c7bdc     clientlib:libmysql.obj
 0004:00000be8       $pdata$cli_read_prepare_result 00000001803c7be8     clientlib:libmysql.obj
 0004:00000bf4       $pdata$store_param         00000001803c7bf4     clientlib:libmysql.obj
 0004:00000c00       $pdata$execute             00000001803c7c00     clientlib:libmysql.obj
 0004:00000c0c       $pdata$cli_stmt_execute    00000001803c7c0c     clientlib:libmysql.obj
 0004:00000c18       $pdata$0$cli_stmt_execute  00000001803c7c18     clientlib:libmysql.obj
 0004:00000c24       $pdata$3$cli_stmt_execute  00000001803c7c24     clientlib:libmysql.obj
 0004:00000c30       $pdata$6$cli_stmt_execute  00000001803c7c30     clientlib:libmysql.obj
 0004:00000c3c       $pdata$7$cli_stmt_execute  00000001803c7c3c     clientlib:libmysql.obj
 0004:00000c48       $pdata$8$cli_stmt_execute  00000001803c7c48     clientlib:libmysql.obj
 0004:00000c54       $pdata$10$cli_stmt_execute 00000001803c7c54     clientlib:libmysql.obj
 0004:00000c60       $pdata$11$cli_stmt_execute 00000001803c7c60     clientlib:libmysql.obj
 0004:00000c6c       $pdata$13$cli_stmt_execute 00000001803c7c6c     clientlib:libmysql.obj
 0004:00000c78       $pdata$14$cli_stmt_execute 00000001803c7c78     clientlib:libmysql.obj
 0004:00000c84       $pdata$cli_unbuffered_fetch 00000001803c7c84     clientlib:libmysql.obj
 0004:00000c90       $pdata$cli_read_binary_rows 00000001803c7c90     clientlib:libmysql.obj
 0004:00000c9c       $pdata$2$cli_read_binary_rows 00000001803c7c9c     clientlib:libmysql.obj
 0004:00000ca8       $pdata$4$cli_read_binary_rows 00000001803c7ca8     clientlib:libmysql.obj
 0004:00000cb4       $pdata$mysql_next_result   00000001803c7cb4     clientlib:libmysql.obj
 0004:00000cc0       $pdata$my_net_init         00000001803c7cc0     clientlib:net_serv.obj
 0004:00000ccc       $pdata$net_realloc         00000001803c7ccc     clientlib:net_serv.obj
 0004:00000cd8       $pdata$0$net_realloc       00000001803c7cd8     clientlib:net_serv.obj
 0004:00000ce4       $pdata$2$net_realloc       00000001803c7ce4     clientlib:net_serv.obj
 0004:00000cf0       $pdata$?net_data_is_ready@@YAH_K@Z 00000001803c7cf0     clientlib:net_serv.obj
 0004:00000cfc       $pdata$net_clear           00000001803c7cfc     clientlib:net_serv.obj
 0004:00000d08       $pdata$1$net_clear         00000001803c7d08     clientlib:net_serv.obj
 0004:00000d14       $pdata$2$net_clear         00000001803c7d14     clientlib:net_serv.obj
 0004:00000d20       $pdata$net_flush           00000001803c7d20     clientlib:net_serv.obj
 0004:00000d2c       $pdata$my_net_write        00000001803c7d2c     clientlib:net_serv.obj
 0004:00000d38       $pdata$net_write_command   00000001803c7d38     clientlib:net_serv.obj
 0004:00000d44       $pdata$?net_write_buff@@YADPEAUst_net@@PEBEK@Z 00000001803c7d44     clientlib:net_serv.obj
 0004:00000d50       $pdata$net_real_write      00000001803c7d50     clientlib:net_serv.obj
 0004:00000d5c       $pdata$2$net_real_write    00000001803c7d5c     clientlib:net_serv.obj
 0004:00000d68       $pdata$4$net_real_write    00000001803c7d68     clientlib:net_serv.obj
 0004:00000d74       $pdata$?my_real_read@@YAKPEAUst_net@@PEA_KD@Z 00000001803c7d74     clientlib:net_serv.obj
 0004:00000d80       $pdata$my_net_read_packet  00000001803c7d80     clientlib:net_serv.obj
 0004:00000d8c       $pdata$3$my_net_read_packet 00000001803c7d8c     clientlib:net_serv.obj
 0004:00000d98       $pdata$4$my_net_read_packet 00000001803c7d98     clientlib:net_serv.obj
 0004:00000da4       $pdata$add_plugin          00000001803c7da4     clientlib:client_plugin.obj
 0004:00000db0       $pdata$load_env_plugins    00000001803c7db0     clientlib:client_plugin.obj
 0004:00000dbc       $pdata$1$load_env_plugins  00000001803c7dbc     clientlib:client_plugin.obj
 0004:00000dc8       $pdata$2$load_env_plugins  00000001803c7dc8     clientlib:client_plugin.obj
 0004:00000dd4       $pdata$3$load_env_plugins  00000001803c7dd4     clientlib:client_plugin.obj
 0004:00000de0       $pdata$mysql_client_plugin_init 00000001803c7de0     clientlib:client_plugin.obj
 0004:00000dec       $pdata$0$mysql_client_plugin_init 00000001803c7dec     clientlib:client_plugin.obj
 0004:00000df8       $pdata$1$mysql_client_plugin_init 00000001803c7df8     clientlib:client_plugin.obj
 0004:00000e04       $pdata$mysql_load_plugin_v 00000001803c7e04     clientlib:client_plugin.obj
 0004:00000e10       $pdata$0$mysql_load_plugin_v 00000001803c7e10     clientlib:client_plugin.obj
 0004:00000e1c       $pdata$1$mysql_load_plugin_v 00000001803c7e1c     clientlib:client_plugin.obj
 0004:00000e28       $pdata$mysql_load_plugin   00000001803c7e28     clientlib:client_plugin.obj
 0004:00000e34       $pdata$mysql_client_find_plugin 00000001803c7e34     clientlib:client_plugin.obj
 0004:00000e40       $pdata$hash_password       00000001803c7e40     clientlib:password.obj
 0004:00000e4c       $pdata$scramble_323        00000001803c7e4c     clientlib:password.obj
 0004:00000e58       $pdata$0$scramble_323      00000001803c7e58     clientlib:password.obj
 0004:00000e64       $pdata$5$scramble_323      00000001803c7e64     clientlib:password.obj
 0004:00000e70       $pdata$6$scramble_323      00000001803c7e70     clientlib:password.obj
 0004:00000e7c       $pdata$7$scramble_323      00000001803c7e7c     clientlib:password.obj
 0004:00000e88       $pdata$8$scramble_323      00000001803c7e88     clientlib:password.obj
 0004:00000e94       $pdata$10$scramble_323     00000001803c7e94     clientlib:password.obj
 0004:00000ea0       $pdata$11$scramble_323     00000001803c7ea0     clientlib:password.obj
 0004:00000eac       $pdata$scramble            00000001803c7eac     clientlib:password.obj
 0004:00000eb8       $pdata$my_context_trampoline 00000001803c7eb8     mysys:my_context.obj
 0004:00000ec4       $pdata$my_error            00000001803c7ec4     mysys:my_error.obj
 0004:00000ed0       $pdata$my_printf_error     00000001803c7ed0     mysys:my_error.obj
 0004:00000edc       $pdata$my_error_register   00000001803c7edc     mysys:my_error.obj
 0004:00000ee8       $pdata$get_collation_number_internal 00000001803c7ee8     mysys:charset.obj
 0004:00000ef4       $pdata$init_state_maps     00000001803c7ef4     mysys:charset.obj
 0004:00000f00       $pdata$0$init_state_maps   00000001803c7f00     mysys:charset.obj
 0004:00000f0c       $pdata$6$init_state_maps   00000001803c7f0c     mysys:charset.obj
 0004:00000f18       $pdata$2$init_state_maps   00000001803c7f18     mysys:charset.obj
 0004:00000f24       $pdata$cs_copy_data        00000001803c7f24     mysys:charset.obj
 0004:00000f30       $pdata$add_collation       00000001803c7f30     mysys:charset.obj
 0004:00000f3c       $pdata$my_read_charset_file 00000001803c7f3c     mysys:charset.obj
 0004:00000f48       $pdata$0$my_read_charset_file 00000001803c7f48     mysys:charset.obj
 0004:00000f54       $pdata$1$my_read_charset_file 00000001803c7f54     mysys:charset.obj
 0004:00000f60       $pdata$2$my_read_charset_file 00000001803c7f60     mysys:charset.obj
 0004:00000f6c       $pdata$3$my_read_charset_file 00000001803c7f6c     mysys:charset.obj
 0004:00000f78       $pdata$get_charsets_dir    00000001803c7f78     mysys:charset.obj
 0004:00000f84       $pdata$0$get_charsets_dir  00000001803c7f84     mysys:charset.obj
 0004:00000f90       $pdata$1$get_charsets_dir  00000001803c7f90     mysys:charset.obj
 0004:00000f9c       $pdata$2$get_charsets_dir  00000001803c7f9c     mysys:charset.obj
 0004:00000fa8       $pdata$init_available_charsets 00000001803c7fa8     mysys:charset.obj
 0004:00000fb4       $pdata$get_collation_number 00000001803c7fb4     mysys:charset.obj
 0004:00000fc0       $pdata$0$get_collation_number 00000001803c7fc0     mysys:charset.obj
 0004:00000fcc       $pdata$1$get_collation_number 00000001803c7fcc     mysys:charset.obj
 0004:00000fd8       $pdata$get_charset_number_internal 00000001803c7fd8     mysys:charset.obj
 0004:00000fe4       $pdata$get_charset_number  00000001803c7fe4     mysys:charset.obj
 0004:00000ff0       $pdata$0$get_charset_number 00000001803c7ff0     mysys:charset.obj
 0004:00000ffc       $pdata$1$get_charset_number 00000001803c7ffc     mysys:charset.obj
 0004:00001008       $pdata$get_internal_charset 00000001803c8008     mysys:charset.obj
 0004:00001014       $pdata$my_collation_get_by_name 00000001803c8014     mysys:charset.obj
 0004:00001020       $pdata$get_charset_by_name 00000001803c8020     mysys:charset.obj
 0004:0000102c       $pdata$my_charset_get_by_name 00000001803c802c     mysys:charset.obj
 0004:00001038       $pdata$0$my_charset_get_by_name 00000001803c8038     mysys:charset.obj
 0004:00001044       $pdata$1$my_charset_get_by_name 00000001803c8044     mysys:charset.obj
 0004:00001050       $pdata$get_charset_by_csname 00000001803c8050     mysys:charset.obj
 0004:0000105c       $pdata$escape_string_for_mysql 00000001803c805c     mysys:charset.obj
 0004:00001068       $pdata$fs_character_set    00000001803c8068     mysys:charset.obj
 0004:00001074       $pdata$escape_quotes_for_mysql 00000001803c8074     mysys:charset.obj
 0004:00001080       $pdata$my_malloc           00000001803c8080     mysys:my_malloc.obj
 0004:0000108c       $pdata$my_realloc          00000001803c808c     mysys:my_malloc.obj
 0004:00001098       $pdata$my_free             00000001803c8098     mysys:my_malloc.obj
 0004:000010a4       $pdata$0$my_free           00000001803c80a4     mysys:my_malloc.obj
 0004:000010b0       $pdata$1$my_free           00000001803c80b0     mysys:my_malloc.obj
 0004:000010bc       $pdata$my_strdup           00000001803c80bc     mysys:my_malloc.obj
 0004:000010c8       $pdata$alloc_dynamic       00000001803c80c8     mysys:array.obj
 0004:000010d4       $pdata$find_type_eol       00000001803c80d4     mysys:typelib.obj
 0004:000010e0       $pdata$alloc_root          00000001803c80e0     mysys:my_alloc.obj
 0004:000010ec       $pdata$free_root           00000001803c80ec     mysys:my_alloc.obj
 0004:000010f8       $pdata$1$free_root         00000001803c80f8     mysys:my_alloc.obj
 0004:00001104       $pdata$2$free_root         00000001803c8104     mysys:my_alloc.obj
 0004:00001110       $pdata$my_hash_sort        00000001803c8110     mysys:hash.obj
 0004:0000111c       $pdata$my_hash_free_elements 00000001803c811c     mysys:hash.obj
 0004:00001128       $pdata$1$my_hash_free_elements 00000001803c8128     mysys:hash.obj
 0004:00001134       $pdata$3$my_hash_free_elements 00000001803c8134     mysys:hash.obj
 0004:00001140       $pdata$4$my_hash_free_elements 00000001803c8140     mysys:hash.obj
 0004:0000114c       $pdata$my_hash_free        00000001803c814c     mysys:hash.obj
 0004:00001158       $pdata$rec_hashnr          00000001803c8158     mysys:hash.obj
 0004:00001164       $pdata$my_hash_search      00000001803c8164     mysys:hash.obj
 0004:00001170       $pdata$my_hash_first_from_hash_value 00000001803c8170     mysys:hash.obj
 0004:0000117c       $pdata$my_hash_insert      00000001803c817c     mysys:hash.obj
 0004:00001188       $pdata$5$my_hash_insert    00000001803c8188     mysys:hash.obj
 0004:00001194       $pdata$6$my_hash_insert    00000001803c8194     mysys:hash.obj
 0004:000011a0       $pdata$my_hash_delete      00000001803c81a0     mysys:hash.obj
 0004:000011ac       $pdata$1$my_hash_delete    00000001803c81ac     mysys:hash.obj
 0004:000011b8       $pdata$4$my_hash_delete    00000001803c81b8     mysys:hash.obj
 0004:000011c4       $pdata$5$my_hash_delete    00000001803c81c4     mysys:hash.obj
 0004:000011d0       $pdata$7$my_hash_delete    00000001803c81d0     mysys:hash.obj
 0004:000011dc       $pdata$8$my_hash_delete    00000001803c81dc     mysys:hash.obj
 0004:000011e8       $pdata$9$my_hash_delete    00000001803c81e8     mysys:hash.obj
 0004:000011f4       $pdata$10$my_hash_delete   00000001803c81f4     mysys:hash.obj
 0004:00001200       $pdata$printf              00000001803c8200     mysys:my_default.obj
 0004:0000120c       $pdata$fn_expand           00000001803c820c     mysys:my_default.obj
 0004:00001218       $pdata$my_search_option_files 00000001803c8218     mysys:my_default.obj
 0004:00001224       $pdata$5$my_search_option_files 00000001803c8224     mysys:my_default.obj
 0004:00001230       $pdata$6$my_search_option_files 00000001803c8230     mysys:my_default.obj
 0004:0000123c       $pdata$7$my_search_option_files 00000001803c823c     mysys:my_default.obj
 0004:00001248       $pdata$handle_default_option 00000001803c8248     mysys:my_default.obj
 0004:00001254       $pdata$0$handle_default_option 00000001803c8254     mysys:my_default.obj
 0004:00001260       $pdata$2$handle_default_option 00000001803c8260     mysys:my_default.obj
 0004:0000126c       $pdata$get_defaults_options 00000001803c826c     mysys:my_default.obj
 0004:00001278       $pdata$2$get_defaults_options 00000001803c8278     mysys:my_default.obj
 0004:00001284       $pdata$3$get_defaults_options 00000001803c8284     mysys:my_default.obj
 0004:00001290       $pdata$my_load_defaults    00000001803c8290     mysys:my_default.obj
 0004:0000129c       $pdata$free_defaults       00000001803c829c     mysys:my_default.obj
 0004:000012a8       $pdata$search_default_file 00000001803c82a8     mysys:my_default.obj
 0004:000012b4       $pdata$search_default_file_with_ext 00000001803c82b4     mysys:my_default.obj
 0004:000012c0       $pdata$add_directory       00000001803c82c0     mysys:my_default.obj
 0004:000012cc       $pdata$0$add_directory     00000001803c82cc     mysys:my_default.obj
 0004:000012d8       $pdata$1$add_directory     00000001803c82d8     mysys:my_default.obj
 0004:000012e4       $pdata$init_default_directories 00000001803c82e4     mysys:my_default.obj
 0004:000012f0       $pdata$0$init_default_directories 00000001803c82f0     mysys:my_default.obj
 0004:000012fc       $pdata$1$init_default_directories 00000001803c82fc     mysys:my_default.obj
 0004:00001308       $pdata$my_init             00000001803c8308     mysys:my_init.obj
 0004:00001314       $pdata$2$my_init           00000001803c8314     mysys:my_init.obj
 0004:00001320       $pdata$3$my_init           00000001803c8320     mysys:my_init.obj
 0004:0000132c       $pdata$5$my_init           00000001803c832c     mysys:my_init.obj
 0004:00001338       $pdata$win_init_registry   00000001803c8338     mysys:my_init.obj
 0004:00001344       $pdata$1$win_init_registry 00000001803c8344     mysys:my_init.obj
 0004:00001350       $pdata$2$win_init_registry 00000001803c8350     mysys:my_init.obj
 0004:0000135c       $pdata$win32_have_tcpip    00000001803c835c     mysys:my_init.obj
 0004:00001368       $pdata$win32_init_tcp_ip   00000001803c8368     mysys:my_init.obj
 0004:00001374       $pdata$0$win32_init_tcp_ip 00000001803c8374     mysys:my_init.obj
 0004:00001380       $pdata$1$win32_init_tcp_ip 00000001803c8380     mysys:my_init.obj
 0004:0000138c       $pdata$my_multi_malloc     00000001803c838c     mysys:mulalloc.obj
 0004:00001398       $pdata$dirname_length      00000001803c8398     mysys:mf_dirname.obj
 0004:000013a4       $pdata$convert_dirname     00000001803c83a4     mysys:mf_dirname.obj
 0004:000013b0       $pdata$3$convert_dirname   00000001803c83b0     mysys:mf_dirname.obj
 0004:000013bc       $pdata$4$convert_dirname   00000001803c83bc     mysys:mf_dirname.obj
 0004:000013c8       $pdata$5$convert_dirname   00000001803c83c8     mysys:mf_dirname.obj
 0004:000013d4       $pdata$6$convert_dirname   00000001803c83d4     mysys:mf_dirname.obj
 0004:000013e0       $pdata$my_realpath         00000001803c83e0     mysys:my_symlink.obj
 0004:000013ec       $pdata$my_thread_init_common_mutex 00000001803c83ec     mysys:my_thr_init.obj
 0004:000013f8       $pdata$my_thread_global_init 00000001803c83f8     mysys:my_thr_init.obj
 0004:00001404       $pdata$0$my_thread_global_init 00000001803c8404     mysys:my_thr_init.obj
 0004:00001410       $pdata$2$my_thread_global_init 00000001803c8410     mysys:my_thr_init.obj
 0004:0000141c       $pdata$my_thread_init      00000001803c841c     mysys:my_thr_init.obj
 0004:00001428       $pdata$0$my_thread_init    00000001803c8428     mysys:my_thr_init.obj
 0004:00001434       $pdata$1$my_thread_init    00000001803c8434     mysys:my_thr_init.obj
 0004:00001440       $pdata$my_close            00000001803c8440     mysys:my_open.obj
 0004:0000144c       $pdata$1$my_close          00000001803c844c     mysys:my_open.obj
 0004:00001458       $pdata$2$my_close          00000001803c8458     mysys:my_open.obj
 0004:00001464       $pdata$3$my_close          00000001803c8464     mysys:my_open.obj
 0004:00001470       $pdata$4$my_close          00000001803c8470     mysys:my_open.obj
 0004:0000147c       $pdata$my_register_filename 00000001803c847c     mysys:my_open.obj
 0004:00001488       $pdata$fn_format           00000001803c8488     mysys:mf_format.obj
 0004:00001494       $pdata$my_read             00000001803c8494     mysys:my_read.obj
 0004:000014a0       $pdata$my_az_free          00000001803c84a0     mysys:my_compress.obj
 0004:000014ac       $pdata$0$my_az_free        00000001803c84ac     mysys:my_compress.obj
 0004:000014b8       $pdata$1$my_az_free        00000001803c84b8     mysys:my_compress.obj
 0004:000014c4       $pdata$my_compress_buffer  00000001803c84c4     mysys:my_compress.obj
 0004:000014d0       $pdata$0$my_compress_buffer 00000001803c84d0     mysys:my_compress.obj
 0004:000014dc       $pdata$2$my_compress_buffer 00000001803c84dc     mysys:my_compress.obj
 0004:000014e8       $pdata$3$my_compress_buffer 00000001803c84e8     mysys:my_compress.obj
 0004:000014f4       $pdata$my_compress_alloc   00000001803c84f4     mysys:my_compress.obj
 0004:00001500       $pdata$my_once_alloc       00000001803c8500     mysys:my_once.obj
 0004:0000150c       $pdata$my_once_strdup      00000001803c850c     mysys:my_once.obj
 0004:00001518       $pdata$my_once_memdup      00000001803c8518     mysys:my_once.obj
 0004:00001524       $pdata$my_dir              00000001803c8524     mysys:my_lib.obj
 0004:00001530       $pdata$my_getwd            00000001803c8530     mysys:my_getwd.obj
 0004:0000153c       $pdata$test_if_hard_path   00000001803c853c     mysys:my_getwd.obj
 0004:00001548       $pdata$pack_dirname        00000001803c8548     mysys:mf_pack.obj
 0004:00001554       $pdata$cleanup_dirname     00000001803c8554     mysys:mf_pack.obj
 0004:00001560       $pdata$3$cleanup_dirname   00000001803c8560     mysys:mf_pack.obj
 0004:0000156c       $pdata$5$cleanup_dirname   00000001803c856c     mysys:mf_pack.obj
 0004:00001578       $pdata$6$cleanup_dirname   00000001803c8578     mysys:mf_pack.obj
 0004:00001584       $pdata$7$cleanup_dirname   00000001803c8584     mysys:mf_pack.obj
 0004:00001590       $pdata$symdirget           00000001803c8590     mysys:mf_pack.obj
 0004:0000159c       $pdata$0$symdirget         00000001803c859c     mysys:mf_pack.obj
 0004:000015a8       $pdata$2$symdirget         00000001803c85a8     mysys:mf_pack.obj
 0004:000015b4       $pdata$3$symdirget         00000001803c85b4     mysys:mf_pack.obj
 0004:000015c0       $pdata$4$symdirget         00000001803c85c0     mysys:mf_pack.obj
 0004:000015cc       $pdata$5$symdirget         00000001803c85cc     mysys:mf_pack.obj
 0004:000015d8       $pdata$6$symdirget         00000001803c85d8     mysys:mf_pack.obj
 0004:000015e4       $pdata$unpack_dirname      00000001803c85e4     mysys:mf_pack.obj
 0004:000015f0       $pdata$0$unpack_dirname    00000001803c85f0     mysys:mf_pack.obj
 0004:000015fc       $pdata$1$unpack_dirname    00000001803c85fc     mysys:mf_pack.obj
 0004:00001608       $pdata$intern_filename     00000001803c8608     mysys:mf_pack.obj
 0004:00001614       $pdata$fn_ext              00000001803c8614     mysys:mf_fn_ext.obj
 0004:00001620       $pdata$fn_ext2             00000001803c8620     mysys:mf_fn_ext.obj
 0004:0000162c       $pdata$my_fopen            00000001803c862c     mysys:my_fopen.obj
 0004:00001638       $pdata$my_fclose           00000001803c8638     mysys:my_fopen.obj
 0004:00001644       $pdata$my_message_stderr   00000001803c8644     mysys:my_mess.obj
 0004:00001650       $pdata$my_load_path        00000001803c8650     mysys:mf_loadpath.obj
 0004:0000165c       $pdata$3$my_load_path      00000001803c865c     mysys:mf_loadpath.obj
 0004:00001668       $pdata$4$my_load_path      00000001803c8668     mysys:mf_loadpath.obj
 0004:00001674       $pdata$check_native_cond_availability 00000001803c8674     mysys:my_wincond.obj
 0004:00001680       $pdata$legacy_cond_init    00000001803c8680     mysys:my_wincond.obj
 0004:0000168c       $pdata$pthread_cond_init   00000001803c868c     mysys:my_wincond.obj
 0004:00001698       $pdata$0$pthread_cond_init 00000001803c8698     mysys:my_wincond.obj
 0004:000016a4       $pdata$1$pthread_cond_init 00000001803c86a4     mysys:my_wincond.obj
 0004:000016b0       $pdata$my_open_osfhandle   00000001803c86b0     mysys:my_winfile.obj
 0004:000016bc       $pdata$my_win_sopen        00000001803c86bc     mysys:my_winfile.obj
 0004:000016c8       $pdata$0$my_win_sopen      00000001803c86c8     mysys:my_winfile.obj
 0004:000016d4       $pdata$2$my_win_sopen      00000001803c86d4     mysys:my_winfile.obj
 0004:000016e0       $pdata$my_win_fileno       00000001803c86e0     mysys:my_winfile.obj
 0004:000016ec       $pdata$my_qsort            00000001803c86ec     mysys:mf_qsort.obj
 0004:000016f8       $pdata$is_filename_allowed 00000001803c86f8     mysys:my_access.obj
 0004:00001704       $pdata$0$is_filename_allowed 00000001803c8704     mysys:my_access.obj
 0004:00001710       $pdata$1$is_filename_allowed 00000001803c8710     mysys:my_access.obj
 0004:0000171c       $pdata$2$is_filename_allowed 00000001803c871c     mysys:my_access.obj
 0004:00001728       $pdata$4$is_filename_allowed 00000001803c8728     mysys:my_access.obj
 0004:00001734       $pdata$check_if_legal_filename 00000001803c8734     mysys:my_access.obj
 0004:00001740       $pdata$my_osmaperr         00000001803c8740     mysys:my_winerr.obj
 0004:0000174c       $pdata$??_GHASH@TaoCrypt@@UEAAPEAXI@Z 00000001803c874c     mysys_ssl:my_sha1.obj
 0004:00001758       $pdata$??_GSHA@TaoCrypt@@UEAAPEAXI@Z 00000001803c8758     mysys_ssl:my_sha1.obj
 0004:00001764       $pdata$my_sha1_multi       00000001803c8764     mysys_ssl:my_sha1.obj
 0004:00001770       $pdata$int10_to_str        00000001803c8770     strings:int2str.obj
 0004:0000177c       $pdata$backtick_string     00000001803c877c     strings:my_vsnprintf.obj
 0004:00001788       $pdata$process_str_arg     00000001803c8788     strings:my_vsnprintf.obj
 0004:00001794       $pdata$process_int_arg     00000001803c8794     strings:my_vsnprintf.obj
 0004:000017a0       $pdata$process_args        00000001803c87a0     strings:my_vsnprintf.obj
 0004:000017ac       $pdata$my_vsnprintf_ex     00000001803c87ac     strings:my_vsnprintf.obj
 0004:000017b8       $pdata$my_snprintf         00000001803c87b8     strings:my_vsnprintf.obj
 0004:000017c4       $pdata$my_strerror         00000001803c87c4     strings:my_vsnprintf.obj
 0004:000017d0       $pdata$my_strnncoll_8bit_bin 00000001803c87d0     strings:ctype-bin.obj
 0004:000017d0       $pdata$my_strnncoll_binary 00000001803c87d0     strings:ctype-bin.obj
 0004:000017dc       $pdata$my_strnncollsp_binary 00000001803c87dc     strings:ctype-bin.obj
 0004:000017e8       $pdata$my_strnncollsp_8bit_bin 00000001803c87e8     strings:ctype-bin.obj
 0004:000017f4       $pdata$my_hash_sort_mb_bin 00000001803c87f4     strings:ctype-mb.obj
 0004:000017f4       $pdata$my_hash_sort_8bit_bin 00000001803c87f4     strings:ctype-bin.obj
 0004:00001800       $pdata$my_hash_sort_bin    00000001803c8800     strings:ctype-bin.obj
 0004:0000180c       $pdata$my_wildcmp_bin_impl 00000001803c880c     strings:ctype-bin.obj
 0004:00001818       $pdata$0$my_wildcmp_bin_impl 00000001803c8818     strings:ctype-bin.obj
 0004:00001824       $pdata$2$my_wildcmp_bin_impl 00000001803c8824     strings:ctype-bin.obj
 0004:00001830       $pdata$my_wildcmp_bin      00000001803c8830     strings:ctype-bin.obj
 0004:0000183c       $pdata$my_strnxfrm_8bit_bin 00000001803c883c     strings:ctype-bin.obj
 0004:00001848       $pdata$my_instr_bin        00000001803c8848     strings:ctype-bin.obj
 0004:00001854       $pdata$my_strnncoll_latin1_de 00000001803c8854     strings:ctype-latin1.obj
 0004:00001860       $pdata$my_strnncollsp_latin1_de 00000001803c8860     strings:ctype-latin1.obj
 0004:0000186c       $pdata$my_strnxfrm_latin1_de 00000001803c886c     strings:ctype-latin1.obj
 0004:00001878       $pdata$0$my_strnxfrm_latin1_de 00000001803c8878     strings:ctype-latin1.obj
 0004:00001884       $pdata$1$my_strnxfrm_latin1_de 00000001803c8884     strings:ctype-latin1.obj
 0004:00001890       $pdata$my_hash_sort_latin1_de 00000001803c8890     strings:ctype-latin1.obj
 0004:0000189c       $pdata$0$my_hash_sort_latin1_de 00000001803c889c     strings:ctype-latin1.obj
 0004:000018a8       $pdata$1$my_hash_sort_latin1_de 00000001803c88a8     strings:ctype-latin1.obj
 0004:000018b4       $pdata$my_fcvt             00000001803c88b4     strings:dtoa.obj
 0004:000018c0       $pdata$0$my_fcvt           00000001803c88c0     strings:dtoa.obj
 0004:000018cc       $pdata$1$my_fcvt           00000001803c88cc     strings:dtoa.obj
 0004:000018d8       $pdata$my_gcvt             00000001803c88d8     strings:dtoa.obj
 0004:000018e4       $pdata$1$my_gcvt           00000001803c88e4     strings:dtoa.obj
 0004:000018f0       $pdata$2$my_gcvt           00000001803c88f0     strings:dtoa.obj
 0004:000018fc       $pdata$Balloc              00000001803c88fc     strings:dtoa.obj
 0004:00001908       $pdata$0$Balloc            00000001803c8908     strings:dtoa.obj
 0004:00001914       $pdata$1$Balloc            00000001803c8914     strings:dtoa.obj
 0004:00001920       $pdata$multadd             00000001803c8920     strings:dtoa.obj
 0004:0000192c       $pdata$0$multadd           00000001803c892c     strings:dtoa.obj
 0004:00001938       $pdata$1$multadd           00000001803c8938     strings:dtoa.obj
 0004:00001944       $pdata$s2b                 00000001803c8944     strings:dtoa.obj
 0004:00001950       $pdata$1$s2b               00000001803c8950     strings:dtoa.obj
 0004:0000195c       $pdata$2$s2b               00000001803c895c     strings:dtoa.obj
 0004:00001968       $pdata$3$s2b               00000001803c8968     strings:dtoa.obj
 0004:00001974       $pdata$4$s2b               00000001803c8974     strings:dtoa.obj
 0004:00001980       $pdata$5$s2b               00000001803c8980     strings:dtoa.obj
 0004:0000198c       $pdata$mult                00000001803c898c     strings:dtoa.obj
 0004:00001998       $pdata$pow5mult            00000001803c8998     strings:dtoa.obj
 0004:000019a4       $pdata$2$pow5mult          00000001803c89a4     strings:dtoa.obj
 0004:000019b0       $pdata$3$pow5mult          00000001803c89b0     strings:dtoa.obj
 0004:000019bc       $pdata$lshift              00000001803c89bc     strings:dtoa.obj
 0004:000019c8       $pdata$1$lshift            00000001803c89c8     strings:dtoa.obj
 0004:000019d4       $pdata$3$lshift            00000001803c89d4     strings:dtoa.obj
 0004:000019e0       $pdata$4$lshift            00000001803c89e0     strings:dtoa.obj
 0004:000019ec       $pdata$5$lshift            00000001803c89ec     strings:dtoa.obj
 0004:000019f8       $pdata$6$lshift            00000001803c89f8     strings:dtoa.obj
 0004:00001a04       $pdata$7$lshift            00000001803c8a04     strings:dtoa.obj
 0004:00001a10       $pdata$diff                00000001803c8a10     strings:dtoa.obj
 0004:00001a1c       $pdata$1$diff              00000001803c8a1c     strings:dtoa.obj
 0004:00001a28       $pdata$2$diff              00000001803c8a28     strings:dtoa.obj
 0004:00001a34       $pdata$b2d                 00000001803c8a34     strings:dtoa.obj
 0004:00001a40       $pdata$d2b                 00000001803c8a40     strings:dtoa.obj
 0004:00001a4c       $pdata$my_strtod_int       00000001803c8a4c     strings:dtoa.obj
 0004:00001a58       $pdata$6$my_strtod_int     00000001803c8a58     strings:dtoa.obj
 0004:00001a64       $pdata$15$my_strtod_int    00000001803c8a64     strings:dtoa.obj
 0004:00001a70       $pdata$16$my_strtod_int    00000001803c8a70     strings:dtoa.obj
 0004:00001a7c       $pdata$17$my_strtod_int    00000001803c8a7c     strings:dtoa.obj
 0004:00001a88       $pdata$18$my_strtod_int    00000001803c8a88     strings:dtoa.obj
 0004:00001a94       $pdata$quorem              00000001803c8a94     strings:dtoa.obj
 0004:00001aa0       $pdata$2$quorem            00000001803c8aa0     strings:dtoa.obj
 0004:00001aac       $pdata$4$quorem            00000001803c8aac     strings:dtoa.obj
 0004:00001ab8       $pdata$5$quorem            00000001803c8ab8     strings:dtoa.obj
 0004:00001ac4       $pdata$6$quorem            00000001803c8ac4     strings:dtoa.obj
 0004:00001ad0       $pdata$dtoa                00000001803c8ad0     strings:dtoa.obj
 0004:00001adc       $pdata$3$dtoa              00000001803c8adc     strings:dtoa.obj
 0004:00001ae8       $pdata$4$dtoa              00000001803c8ae8     strings:dtoa.obj
 0004:00001af4       $pdata$my_strtoll10        00000001803c8af4     strings:my_strtoll10.obj
 0004:00001b00       $pdata$1$my_strtoll10      00000001803c8b00     strings:my_strtoll10.obj
 0004:00001b0c       $pdata$3$my_strtoll10      00000001803c8b0c     strings:my_strtoll10.obj
 0004:00001b18       $pdata$my_uca_alloc_contractions 00000001803c8b18     strings:ctype-uca.obj
 0004:00001b24       $pdata$my_uca_scanner_contraction_find 00000001803c8b24     strings:ctype-uca.obj
 0004:00001b30       $pdata$my_uca_scanner_next_any 00000001803c8b30     strings:ctype-uca.obj
 0004:00001b3c       $pdata$my_strnncoll_uca    00000001803c8b3c     strings:ctype-uca.obj
 0004:00001b48       $pdata$my_strnncollsp_uca  00000001803c8b48     strings:ctype-uca.obj
 0004:00001b54       $pdata$my_hash_sort_uca    00000001803c8b54     strings:ctype-uca.obj
 0004:00001b60       $pdata$0$my_hash_sort_uca  00000001803c8b60     strings:ctype-uca.obj
 0004:00001b6c       $pdata$1$my_hash_sort_uca  00000001803c8b6c     strings:ctype-uca.obj
 0004:00001b78       $pdata$my_strnxfrm_uca     00000001803c8b78     strings:ctype-uca.obj
 0004:00001b84       $pdata$0$my_strnxfrm_uca   00000001803c8b84     strings:ctype-uca.obj
 0004:00001b90       $pdata$1$my_strnxfrm_uca   00000001803c8b90     strings:ctype-uca.obj
 0004:00001b9c       $pdata$my_uca_charcmp      00000001803c8b9c     strings:ctype-uca.obj
 0004:00001ba8       $pdata$1$my_uca_charcmp    00000001803c8ba8     strings:ctype-uca.obj
 0004:00001bb4       $pdata$3$my_uca_charcmp    00000001803c8bb4     strings:ctype-uca.obj
 0004:00001bc0       $pdata$5$my_uca_charcmp    00000001803c8bc0     strings:ctype-uca.obj
 0004:00001bcc       $pdata$6$my_uca_charcmp    00000001803c8bcc     strings:ctype-uca.obj
 0004:00001bd8       $pdata$my_wildcmp_uca_impl 00000001803c8bd8     strings:ctype-uca.obj
 0004:00001be4       $pdata$my_wildcmp_uca      00000001803c8be4     strings:ctype-uca.obj
 0004:00001bf0       $pdata$my_coll_lexem_next  00000001803c8bf0     strings:ctype-uca.obj
 0004:00001bfc       $pdata$my_coll_rules_add   00000001803c8bfc     strings:ctype-uca.obj
 0004:00001c08       $pdata$my_coll_parser_scan_term 00000001803c8c08     strings:ctype-uca.obj
 0004:00001c14       $pdata$my_coll_parser_scan_setting 00000001803c8c14     strings:ctype-uca.obj
 0004:00001c20       $pdata$my_coll_parser_scan_reset_before 00000001803c8c20     strings:ctype-uca.obj
 0004:00001c2c       $pdata$my_coll_parser_scan_logical_position 00000001803c8c2c     strings:ctype-uca.obj
 0004:00001c38       $pdata$my_coll_parser_scan_reset_sequence 00000001803c8c38     strings:ctype-uca.obj
 0004:00001c44       $pdata$my_coll_parser_scan_shift_sequence 00000001803c8c44     strings:ctype-uca.obj
 0004:00001c50       $pdata$1$my_coll_parser_scan_shift_sequence 00000001803c8c50     strings:ctype-uca.obj
 0004:00001c5c       $pdata$3$my_coll_parser_scan_shift_sequence 00000001803c8c5c     strings:ctype-uca.obj
 0004:00001c68       $pdata$my_coll_parser_scan_shift 00000001803c8c68     strings:ctype-uca.obj
 0004:00001c74       $pdata$my_coll_parser_scan_rule 00000001803c8c74     strings:ctype-uca.obj
 0004:00001c80       $pdata$my_coll_rule_parse  00000001803c8c80     strings:ctype-uca.obj
 0004:00001c8c       $pdata$my_char_weight_put  00000001803c8c8c     strings:ctype-uca.obj
 0004:00001c98       $pdata$6$my_char_weight_put 00000001803c8c98     strings:ctype-uca.obj
 0004:00001ca4       $pdata$7$my_char_weight_put 00000001803c8ca4     strings:ctype-uca.obj
 0004:00001cb0       $pdata$my_charset_loader_error_for_rule 00000001803c8cb0     strings:ctype-uca.obj
 0004:00001cbc       $pdata$apply_one_rule      00000001803c8cbc     strings:ctype-uca.obj
 0004:00001cc8       $pdata$0$apply_one_rule    00000001803c8cc8     strings:ctype-uca.obj
 0004:00001cd4       $pdata$1$apply_one_rule    00000001803c8cd4     strings:ctype-uca.obj
 0004:00001ce0       $pdata$2$apply_one_rule    00000001803c8ce0     strings:ctype-uca.obj
 0004:00001cec       $pdata$4$apply_one_rule    00000001803c8cec     strings:ctype-uca.obj
 0004:00001cf8       $pdata$6$apply_one_rule    00000001803c8cf8     strings:ctype-uca.obj
 0004:00001d04       $pdata$init_weight_level   00000001803c8d04     strings:ctype-uca.obj
 0004:00001d10       $pdata$1$init_weight_level 00000001803c8d10     strings:ctype-uca.obj
 0004:00001d1c       $pdata$2$init_weight_level 00000001803c8d1c     strings:ctype-uca.obj
 0004:00001d28       $pdata$3$init_weight_level 00000001803c8d28     strings:ctype-uca.obj
 0004:00001d34       $pdata$4$init_weight_level 00000001803c8d34     strings:ctype-uca.obj
 0004:00001d40       $pdata$6$init_weight_level 00000001803c8d40     strings:ctype-uca.obj
 0004:00001d4c       $pdata$7$init_weight_level 00000001803c8d4c     strings:ctype-uca.obj
 0004:00001d58       $pdata$create_tailoring    00000001803c8d58     strings:ctype-uca.obj
 0004:00001d64       $pdata$0$create_tailoring  00000001803c8d64     strings:ctype-uca.obj
 0004:00001d70       $pdata$1$create_tailoring  00000001803c8d70     strings:ctype-uca.obj
 0004:00001d7c       $pdata$my_strnncoll_any_uca 00000001803c8d7c     strings:ctype-uca.obj
 0004:00001d7c       $pdata$my_strnncoll_ucs2_uca 00000001803c8d7c     strings:ctype-uca.obj
 0004:00001d88       $pdata$my_strnncollsp_any_uca 00000001803c8d88     strings:ctype-uca.obj
 0004:00001d88       $pdata$my_strnncollsp_ucs2_uca 00000001803c8d88     strings:ctype-uca.obj
 0004:00001d94       $pdata$my_hash_sort_any_uca 00000001803c8d94     strings:ctype-uca.obj
 0004:00001d94       $pdata$my_hash_sort_ucs2_uca 00000001803c8d94     strings:ctype-uca.obj
 0004:00001da0       $pdata$my_strnxfrm_any_uca 00000001803c8da0     strings:ctype-uca.obj
 0004:00001da0       $pdata$my_strnxfrm_ucs2_uca 00000001803c8da0     strings:ctype-uca.obj
 0004:00001dac       $pdata$ll2str              00000001803c8dac     strings:longlong2str.obj
 0004:00001db8       $pdata$longlong10_to_str   00000001803c8db8     strings:longlong2str.obj
 0004:00001dc4       $pdata$my_wildcmp_unicode_impl 00000001803c8dc4     strings:ctype-utf8.obj
 0004:00001dd0       $pdata$1$my_wildcmp_unicode_impl 00000001803c8dd0     strings:ctype-utf8.obj
 0004:00001ddc       $pdata$3$my_wildcmp_unicode_impl 00000001803c8ddc     strings:ctype-utf8.obj
 0004:00001de8       $pdata$4$my_wildcmp_unicode_impl 00000001803c8de8     strings:ctype-utf8.obj
 0004:00001df4       $pdata$my_strnxfrm_unicode 00000001803c8df4     strings:ctype-utf8.obj
 0004:00001e00       $pdata$4$my_strnxfrm_unicode 00000001803c8e00     strings:ctype-utf8.obj
 0004:00001e0c       $pdata$5$my_strnxfrm_unicode 00000001803c8e0c     strings:ctype-utf8.obj
 0004:00001e18       $pdata$my_strnxfrm_unicode_full_bin 00000001803c8e18     strings:ctype-utf8.obj
 0004:00001e24       $pdata$my_caseup_utf8      00000001803c8e24     strings:ctype-utf8.obj
 0004:00001e30       $pdata$0$my_caseup_utf8    00000001803c8e30     strings:ctype-utf8.obj
 0004:00001e3c       $pdata$1$my_caseup_utf8    00000001803c8e3c     strings:ctype-utf8.obj
 0004:00001e48       $pdata$my_hash_sort_utf8   00000001803c8e48     strings:ctype-utf8.obj
 0004:00001e54       $pdata$0$my_hash_sort_utf8 00000001803c8e54     strings:ctype-utf8.obj
 0004:00001e60       $pdata$1$my_hash_sort_utf8 00000001803c8e60     strings:ctype-utf8.obj
 0004:00001e6c       $pdata$my_caseup_str_utf8  00000001803c8e6c     strings:ctype-utf8.obj
 0004:00001e78       $pdata$0$my_caseup_str_utf8 00000001803c8e78     strings:ctype-utf8.obj
 0004:00001e84       $pdata$1$my_caseup_str_utf8 00000001803c8e84     strings:ctype-utf8.obj
 0004:00001e90       $pdata$my_casedn_utf8      00000001803c8e90     strings:ctype-utf8.obj
 0004:00001e9c       $pdata$0$my_casedn_utf8    00000001803c8e9c     strings:ctype-utf8.obj
 0004:00001ea8       $pdata$1$my_casedn_utf8    00000001803c8ea8     strings:ctype-utf8.obj
 0004:00001eb4       $pdata$my_casedn_str_utf8  00000001803c8eb4     strings:ctype-utf8.obj
 0004:00001ec0       $pdata$0$my_casedn_str_utf8 00000001803c8ec0     strings:ctype-utf8.obj
 0004:00001ecc       $pdata$1$my_casedn_str_utf8 00000001803c8ecc     strings:ctype-utf8.obj
 0004:00001ed8       $pdata$my_strcasecmp_utf8  00000001803c8ed8     strings:ctype-utf8.obj
 0004:00001ee4       $pdata$my_wildcmp_utf32_ci 00000001803c8ee4     strings:ctype-ucs2.obj
 0004:00001ee4       $pdata$my_wildcmp_ucs2_ci  00000001803c8ee4     strings:ctype-ucs2.obj
 0004:00001ee4       $pdata$my_wildcmp_utf8mb4  00000001803c8ee4     strings:ctype-utf8.obj
 0004:00001ee4       $pdata$my_wildcmp_utf8     00000001803c8ee4     strings:ctype-utf8.obj
 0004:00001ee4       $pdata$my_wildcmp_utf16_ci 00000001803c8ee4     strings:ctype-ucs2.obj
 0004:00001ef0       $pdata$my_well_formed_len_utf8 00000001803c8ef0     strings:ctype-utf8.obj
 0004:00001efc       $pdata$my_well_formed_char_length_utf8 00000001803c8efc     strings:ctype-utf8.obj
 0004:00001f08       $pdata$my_scan_weight_utf8_general_ci 00000001803c8f08     strings:ctype-utf8.obj
 0004:00001f14       $pdata$my_strnncoll_utf8_general_ci 00000001803c8f14     strings:ctype-utf8.obj
 0004:00001f20       $pdata$my_strnncollsp_utf8_general_ci 00000001803c8f20     strings:ctype-utf8.obj
 0004:00001f2c       $pdata$my_strnncoll_utf8_general_mysql500_ci 00000001803c8f2c     strings:ctype-utf8.obj
 0004:00001f38       $pdata$my_strnncollsp_utf8_general_mysql500_ci 00000001803c8f38     strings:ctype-utf8.obj
 0004:00001f44       $pdata$my_strnncoll_utf8_bin 00000001803c8f44     strings:ctype-utf8.obj
 0004:00001f50       $pdata$my_strnncollsp_utf8_bin 00000001803c8f50     strings:ctype-utf8.obj
 0004:00001f5c       $pdata$my_ismbchar_utf8    00000001803c8f5c     strings:ctype-utf8.obj
 0004:00001f68       $pdata$my_mb_wc_filename   00000001803c8f68     strings:ctype-utf8.obj
 0004:00001f74       $pdata$0$my_mb_wc_filename 00000001803c8f74     strings:ctype-utf8.obj
 0004:00001f80       $pdata$2$my_mb_wc_filename 00000001803c8f80     strings:ctype-utf8.obj
 0004:00001f8c       $pdata$5$my_mb_wc_filename 00000001803c8f8c     strings:ctype-utf8.obj
 0004:00001f98       $pdata$7$my_mb_wc_filename 00000001803c8f98     strings:ctype-utf8.obj
 0004:00001fa4       $pdata$9$my_mb_wc_filename 00000001803c8fa4     strings:ctype-utf8.obj
 0004:00001fb0       $pdata$11$my_mb_wc_filename 00000001803c8fb0     strings:ctype-utf8.obj
 0004:00001fbc       $pdata$14$my_mb_wc_filename 00000001803c8fbc     strings:ctype-utf8.obj
 0004:00001fc8       $pdata$16$my_mb_wc_filename 00000001803c8fc8     strings:ctype-utf8.obj
 0004:00001fd4       $pdata$18$my_mb_wc_filename 00000001803c8fd4     strings:ctype-utf8.obj
 0004:00001fe0       $pdata$my_charlen_filename 00000001803c8fe0     strings:ctype-utf8.obj
 0004:00001fe0       $pdata$my_charlen_utf16    00000001803c8fe0     strings:ctype-ucs2.obj
 0004:00001fec       $pdata$my_ismbchar_filename 00000001803c8fec     strings:ctype-utf8.obj
 0004:00001ff8       $pdata$my_well_formed_char_length_filename 00000001803c8ff8     strings:ctype-utf8.obj
 0004:00001ff8       $pdata$my_well_formed_char_length_utf16 00000001803c8ff8     strings:ctype-ucs2.obj
 0004:00002004       $pdata$my_caseup_utf8mb4   00000001803c9004     strings:ctype-utf8.obj
 0004:00002010       $pdata$0$my_caseup_utf8mb4 00000001803c9010     strings:ctype-utf8.obj
 0004:0000201c       $pdata$1$my_caseup_utf8mb4 00000001803c901c     strings:ctype-utf8.obj
 0004:00002028       $pdata$my_hash_sort_utf8mb4 00000001803c9028     strings:ctype-utf8.obj
 0004:00002034       $pdata$my_caseup_str_utf8mb4 00000001803c9034     strings:ctype-utf8.obj
 0004:00002040       $pdata$my_casedn_utf8mb4   00000001803c9040     strings:ctype-utf8.obj
 0004:0000204c       $pdata$0$my_casedn_utf8mb4 00000001803c904c     strings:ctype-utf8.obj
 0004:00002058       $pdata$1$my_casedn_utf8mb4 00000001803c9058     strings:ctype-utf8.obj
 0004:00002064       $pdata$my_casedn_str_utf8mb4 00000001803c9064     strings:ctype-utf8.obj
 0004:00002070       $pdata$my_strcasecmp_utf8mb4 00000001803c9070     strings:ctype-utf8.obj
 0004:0000207c       $pdata$my_well_formed_len_utf8mb4 00000001803c907c     strings:ctype-utf8.obj
 0004:00002088       $pdata$my_well_formed_char_length_utf8mb4 00000001803c9088     strings:ctype-utf8.obj
 0004:00002094       $pdata$my_scan_weight_utf8mb4_general_ci 00000001803c9094     strings:ctype-utf8.obj
 0004:000020a0       $pdata$1$my_scan_weight_utf8mb4_general_ci 00000001803c90a0     strings:ctype-utf8.obj
 0004:000020ac       $pdata$3$my_scan_weight_utf8mb4_general_ci 00000001803c90ac     strings:ctype-utf8.obj
 0004:000020b8       $pdata$5$my_scan_weight_utf8mb4_general_ci 00000001803c90b8     strings:ctype-utf8.obj
 0004:000020c4       $pdata$7$my_scan_weight_utf8mb4_general_ci 00000001803c90c4     strings:ctype-utf8.obj
 0004:000020d0       $pdata$my_strnncoll_utf8mb4_general_ci 00000001803c90d0     strings:ctype-utf8.obj
 0004:000020dc       $pdata$my_strnncollsp_utf8mb4_general_ci 00000001803c90dc     strings:ctype-utf8.obj
 0004:000020e8       $pdata$my_scan_weight_utf8mb4_bin 00000001803c90e8     strings:ctype-utf8.obj
 0004:000020f4       $pdata$1$my_scan_weight_utf8mb4_bin 00000001803c90f4     strings:ctype-utf8.obj
 0004:00002100       $pdata$3$my_scan_weight_utf8mb4_bin 00000001803c9100     strings:ctype-utf8.obj
 0004:0000210c       $pdata$5$my_scan_weight_utf8mb4_bin 00000001803c910c     strings:ctype-utf8.obj
 0004:00002118       $pdata$7$my_scan_weight_utf8mb4_bin 00000001803c9118     strings:ctype-utf8.obj
 0004:00002124       $pdata$my_strnncoll_utf8mb4_bin 00000001803c9124     strings:ctype-utf8.obj
 0004:00002130       $pdata$my_strnncollsp_utf8mb4_bin 00000001803c9130     strings:ctype-utf8.obj
 0004:0000213c       $pdata$my_ismbchar_utf8mb4 00000001803c913c     strings:ctype-utf8.obj
 0004:00002148       $pdata$my_strnxfrm_simple  00000001803c9148     strings:ctype-simple.obj
 0004:00002154       $pdata$my_strnncoll_simple 00000001803c9154     strings:ctype-simple.obj
 0004:00002160       $pdata$my_strnncollsp_simple 00000001803c9160     strings:ctype-simple.obj
 0004:0000216c       $pdata$my_snprintf_8bit    00000001803c916c     strings:ctype-simple.obj
 0004:00002178       $pdata$my_hash_sort_simple 00000001803c9178     strings:ctype-simple.obj
 0004:00002184       $pdata$my_strntol_8bit     00000001803c9184     strings:ctype-simple.obj
 0004:00002190       $pdata$my_strntoul_8bit    00000001803c9190     strings:ctype-simple.obj
 0004:0000219c       $pdata$my_strntoll_8bit    00000001803c919c     strings:ctype-simple.obj
 0004:000021a8       $pdata$my_strntoull_8bit   00000001803c91a8     strings:ctype-simple.obj
 0004:000021b4       $pdata$my_strntod_8bit     00000001803c91b4     strings:ctype-simple.obj
 0004:000021c0       $pdata$my_long10_to_str_8bit 00000001803c91c0     strings:ctype-simple.obj
 0004:000021cc       $pdata$my_longlong10_to_str_8bit 00000001803c91cc     strings:ctype-simple.obj
 0004:000021d8       $pdata$my_wildcmp_8bit_impl 00000001803c91d8     strings:ctype-simple.obj
 0004:000021e4       $pdata$my_wildcmp_8bit     00000001803c91e4     strings:ctype-simple.obj
 0004:000021f0       $pdata$my_like_range_simple 00000001803c91f0     strings:ctype-simple.obj
 0004:000021fc       $pdata$my_copy_8bit        00000001803c91fc     strings:ctype-simple.obj
 0004:00002208       $pdata$my_lengthsp_8bit    00000001803c9208     strings:ctype-simple.obj
 0004:00002214       $pdata$my_instr_simple     00000001803c9214     strings:ctype-simple.obj
 0004:00002220       $pdata$create_fromuni      00000001803c9220     strings:ctype-simple.obj
 0004:0000222c       $pdata$3$create_fromuni    00000001803c922c     strings:ctype-simple.obj
 0004:00002238       $pdata$4$create_fromuni    00000001803c9238     strings:ctype-simple.obj
 0004:00002244       $pdata$my_coll_init_simple 00000001803c9244     strings:ctype-simple.obj
 0004:00002250       $pdata$my_strntoull10rnd_8bit 00000001803c9250     strings:ctype-simple.obj
 0004:0000225c       $pdata$0$my_strntoull10rnd_8bit 00000001803c925c     strings:ctype-simple.obj
 0004:00002268       $pdata$1$my_strntoull10rnd_8bit 00000001803c9268     strings:ctype-simple.obj
 0004:00002274       $pdata$2$my_strntoull10rnd_8bit 00000001803c9274     strings:ctype-simple.obj
 0004:00002280       $pdata$3$my_strntoull10rnd_8bit 00000001803c9280     strings:ctype-simple.obj
 0004:0000228c       $pdata$my_strxfrm_pad_desc_and_reverse 00000001803c928c     strings:ctype-simple.obj
 0004:00002298       $pdata$0$my_strxfrm_pad_desc_and_reverse 00000001803c9298     strings:ctype-simple.obj
 0004:000022a4       $pdata$1$my_strxfrm_pad_desc_and_reverse 00000001803c92a4     strings:ctype-simple.obj
 0004:000022b0       $pdata$cs_file_sec         00000001803c92b0     strings:ctype.obj
 0004:000022bc       $pdata$fill_uchar          00000001803c92bc     strings:ctype.obj
 0004:000022c8       $pdata$0$fill_uchar        00000001803c92c8     strings:ctype.obj
 0004:000022d4       $pdata$1$fill_uchar        00000001803c92d4     strings:ctype.obj
 0004:000022e0       $pdata$fill_uint16         00000001803c92e0     strings:ctype.obj
 0004:000022ec       $pdata$0$fill_uint16       00000001803c92ec     strings:ctype.obj
 0004:000022f8       $pdata$1$fill_uint16       00000001803c92f8     strings:ctype.obj
 0004:00002304       $pdata$tailoring_append    00000001803c9304     strings:ctype.obj
 0004:00002310       $pdata$0$tailoring_append  00000001803c9310     strings:ctype.obj
 0004:0000231c       $pdata$1$tailoring_append  00000001803c931c     strings:ctype.obj
 0004:00002328       $pdata$tailoring_append2   00000001803c9328     strings:ctype.obj
 0004:00002334       $pdata$0$tailoring_append2 00000001803c9334     strings:ctype.obj
 0004:00002340       $pdata$1$tailoring_append2 00000001803c9340     strings:ctype.obj
 0004:0000234c       $pdata$tailoring_append_abbreviation 00000001803c934c     strings:ctype.obj
 0004:00002358       $pdata$cs_enter            00000001803c9358     strings:ctype.obj
 0004:00002364       $pdata$cs_leave            00000001803c9364     strings:ctype.obj
 0004:00002370       $pdata$cs_value            00000001803c9370     strings:ctype.obj
 0004:0000237c       $pdata$my_parse_charset_xml 00000001803c937c     strings:ctype.obj
 0004:00002388       $pdata$my_well_formed_len_sjis 00000001803c9388     strings:ctype-sjis.obj
 0004:00002388       $pdata$my_well_formed_len_cp932 00000001803c9388     strings:ctype-cp932.obj
 0004:00002394       $pdata$my_strnncoll_cp932_japanese_ci 00000001803c9394     strings:ctype-cp932.obj
 0004:000023a0       $pdata$my_strnncollsp_cp932_japanese_ci 00000001803c93a0     strings:ctype-cp932.obj
 0004:000023ac       $pdata$my_strnncoll_sjis_bin 00000001803c93ac     strings:ctype-sjis.obj
 0004:000023ac       $pdata$my_strnncoll_cp932_bin 00000001803c93ac     strings:ctype-cp932.obj
 0004:000023b8       $pdata$my_strnncollsp_cp932_bin 00000001803c93b8     strings:ctype-cp932.obj
 0004:000023b8       $pdata$my_strnncollsp_sjis_bin 00000001803c93b8     strings:ctype-sjis.obj
 0004:000023c4       $pdata$str2int             00000001803c93c4     strings:str2int.obj
 0004:000023d0       $pdata$my_strnncoll_win1250ch 00000001803c93d0     strings:ctype-win1250ch.obj
 0004:000023dc       $pdata$my_strnxfrm_win1250ch 00000001803c93dc     strings:ctype-win1250ch.obj
 0004:000023e8       $pdata$3$my_strnxfrm_win1250ch 00000001803c93e8     strings:ctype-win1250ch.obj
 0004:000023f4       $pdata$5$my_strnxfrm_win1250ch 00000001803c93f4     strings:ctype-win1250ch.obj
 0004:00002400       $pdata$6$my_strnxfrm_win1250ch 00000001803c9400     strings:ctype-win1250ch.obj
 0004:0000240c       $pdata$7$my_strnxfrm_win1250ch 00000001803c940c     strings:ctype-win1250ch.obj
 0004:00002418       $pdata$8$my_strnxfrm_win1250ch 00000001803c9418     strings:ctype-win1250ch.obj
 0004:00002424       $pdata$9$my_strnxfrm_win1250ch 00000001803c9424     strings:ctype-win1250ch.obj
 0004:00002430       $pdata$my_like_range_win1250ch 00000001803c9430     strings:ctype-win1250ch.obj
 0004:0000243c       $pdata$0$my_like_range_win1250ch 00000001803c943c     strings:ctype-win1250ch.obj
 0004:00002448       $pdata$4$my_like_range_win1250ch 00000001803c9448     strings:ctype-win1250ch.obj
 0004:00002454       $pdata$6$my_like_range_win1250ch 00000001803c9454     strings:ctype-win1250ch.obj
 0004:00002460       $pdata$7$my_like_range_win1250ch 00000001803c9460     strings:ctype-win1250ch.obj
 0004:0000246c       $pdata$8$my_like_range_win1250ch 00000001803c946c     strings:ctype-win1250ch.obj
 0004:00002478       $pdata$9$my_like_range_win1250ch 00000001803c9478     strings:ctype-win1250ch.obj
 0004:00002484       $pdata$my_copy_incomplete_char 00000001803c9484     strings:ctype-ucs2.obj
 0004:00002490       $pdata$my_copy_fix_mb2_or_mb4 00000001803c9490     strings:ctype-ucs2.obj
 0004:0000249c       $pdata$1$my_copy_fix_mb2_or_mb4 00000001803c949c     strings:ctype-ucs2.obj
 0004:000024a8       $pdata$2$my_copy_fix_mb2_or_mb4 00000001803c94a8     strings:ctype-ucs2.obj
 0004:000024b4       $pdata$my_strntol_mb2_or_mb4 00000001803c94b4     strings:ctype-ucs2.obj
 0004:000024c0       $pdata$my_strntoul_mb2_or_mb4 00000001803c94c0     strings:ctype-ucs2.obj
 0004:000024cc       $pdata$my_strntoll_mb2_or_mb4 00000001803c94cc     strings:ctype-ucs2.obj
 0004:000024d8       $pdata$my_strntoull_mb2_or_mb4 00000001803c94d8     strings:ctype-ucs2.obj
 0004:000024e4       $pdata$my_strntod_mb2_or_mb4 00000001803c94e4     strings:ctype-ucs2.obj
 0004:000024f0       $pdata$my_strntoull10rnd_mb2_or_mb4 00000001803c94f0     strings:ctype-ucs2.obj
 0004:000024fc       $pdata$my_l10tostr_mb2_or_mb4 00000001803c94fc     strings:ctype-ucs2.obj
 0004:00002508       $pdata$my_ll10tostr_mb2_or_mb4 00000001803c9508     strings:ctype-ucs2.obj
 0004:00002514       $pdata$my_strtoll10_mb2    00000001803c9514     strings:ctype-ucs2.obj
 0004:00002520       $pdata$my_scan_mb2         00000001803c9520     strings:ctype-ucs2.obj
 0004:0000252c       $pdata$my_fill_mb2         00000001803c952c     strings:ctype-ucs2.obj
 0004:00002538       $pdata$my_vsnprintf_mb2    00000001803c9538     strings:ctype-ucs2.obj
 0004:00002544       $pdata$2$my_vsnprintf_mb2  00000001803c9544     strings:ctype-ucs2.obj
 0004:00002550       $pdata$3$my_vsnprintf_mb2  00000001803c9550     strings:ctype-ucs2.obj
 0004:0000255c       $pdata$my_snprintf_mb2     00000001803c955c     strings:ctype-ucs2.obj
 0004:00002568       $pdata$my_strnncoll_utf16_general_ci 00000001803c9568     strings:ctype-ucs2.obj
 0004:00002574       $pdata$my_strnncollsp_utf16_general_ci 00000001803c9574     strings:ctype-ucs2.obj
 0004:00002580       $pdata$my_strnncoll_utf16_bin 00000001803c9580     strings:ctype-ucs2.obj
 0004:0000258c       $pdata$my_strnncollsp_utf16_bin 00000001803c958c     strings:ctype-ucs2.obj
 0004:00002598       $pdata$my_caseup_utf16     00000001803c9598     strings:ctype-ucs2.obj
 0004:000025a4       $pdata$0$my_caseup_utf16   00000001803c95a4     strings:ctype-ucs2.obj
 0004:000025b0       $pdata$1$my_caseup_utf16   00000001803c95b0     strings:ctype-ucs2.obj
 0004:000025bc       $pdata$my_hash_sort_utf16  00000001803c95bc     strings:ctype-ucs2.obj
 0004:000025c8       $pdata$my_casedn_utf16     00000001803c95c8     strings:ctype-ucs2.obj
 0004:000025d4       $pdata$0$my_casedn_utf16   00000001803c95d4     strings:ctype-ucs2.obj
 0004:000025e0       $pdata$1$my_casedn_utf16   00000001803c95e0     strings:ctype-ucs2.obj
 0004:000025ec       $pdata$my_ismbchar_utf16   00000001803c95ec     strings:ctype-ucs2.obj
 0004:000025f8       $pdata$my_numchars_utf16   00000001803c95f8     strings:ctype-ucs2.obj
 0004:00002604       $pdata$my_charpos_utf16    00000001803c9604     strings:ctype-ucs2.obj
 0004:00002610       $pdata$my_well_formed_len_utf16 00000001803c9610     strings:ctype-ucs2.obj
 0004:0000261c       $pdata$my_wildcmp_utf16_bin 00000001803c961c     strings:ctype-ucs2.obj
 0004:0000261c       $pdata$my_wildcmp_utf32_bin 00000001803c961c     strings:ctype-ucs2.obj
 0004:0000261c       $pdata$my_wildcmp_ucs2_bin 00000001803c961c     strings:ctype-ucs2.obj
 0004:00002628       $pdata$my_hash_sort_utf16_bin 00000001803c9628     strings:ctype-ucs2.obj
 0004:00002634       $pdata$my_strnncoll_utf16le_general_ci 00000001803c9634     strings:ctype-ucs2.obj
 0004:00002640       $pdata$my_strnncollsp_utf16le_general_ci 00000001803c9640     strings:ctype-ucs2.obj
 0004:0000264c       $pdata$my_strnncoll_utf16le_bin 00000001803c964c     strings:ctype-ucs2.obj
 0004:00002658       $pdata$my_strnncollsp_utf16le_bin 00000001803c9658     strings:ctype-ucs2.obj
 0004:00002664       $pdata$my_strnncoll_utf32_general_ci 00000001803c9664     strings:ctype-ucs2.obj
 0004:00002670       $pdata$my_strnncollsp_utf32_general_ci 00000001803c9670     strings:ctype-ucs2.obj
 0004:0000267c       $pdata$my_strnncoll_utf32_bin 00000001803c967c     strings:ctype-ucs2.obj
 0004:00002688       $pdata$my_strnncollsp_utf32_bin 00000001803c9688     strings:ctype-ucs2.obj
 0004:00002694       $pdata$my_caseup_utf32     00000001803c9694     strings:ctype-ucs2.obj
 0004:000026a0       $pdata$1$my_caseup_utf32   00000001803c96a0     strings:ctype-ucs2.obj
 0004:000026ac       $pdata$2$my_caseup_utf32   00000001803c96ac     strings:ctype-ucs2.obj
 0004:000026b8       $pdata$my_hash_sort_utf32  00000001803c96b8     strings:ctype-ucs2.obj
 0004:000026c4       $pdata$my_casedn_utf32     00000001803c96c4     strings:ctype-ucs2.obj
 0004:000026d0       $pdata$my_vsnprintf_utf32  00000001803c96d0     strings:ctype-ucs2.obj
 0004:000026dc       $pdata$2$my_vsnprintf_utf32 00000001803c96dc     strings:ctype-ucs2.obj
 0004:000026e8       $pdata$3$my_vsnprintf_utf32 00000001803c96e8     strings:ctype-ucs2.obj
 0004:000026f4       $pdata$my_snprintf_utf32   00000001803c96f4     strings:ctype-ucs2.obj
 0004:00002700       $pdata$my_strtoll10_utf32  00000001803c9700     strings:ctype-ucs2.obj
 0004:0000270c       $pdata$1$my_strtoll10_utf32 00000001803c970c     strings:ctype-ucs2.obj
 0004:00002718       $pdata$3$my_strtoll10_utf32 00000001803c9718     strings:ctype-ucs2.obj
 0004:00002724       $pdata$4$my_strtoll10_utf32 00000001803c9724     strings:ctype-ucs2.obj
 0004:00002730       $pdata$my_fill_utf32       00000001803c9730     strings:ctype-ucs2.obj
 0004:0000273c       $pdata$my_strnncoll_ucs2_general_ci 00000001803c973c     strings:ctype-ucs2.obj
 0004:00002748       $pdata$my_strnncollsp_ucs2_general_ci 00000001803c9748     strings:ctype-ucs2.obj
 0004:00002754       $pdata$my_strnncoll_ucs2_bin 00000001803c9754     strings:ctype-ucs2.obj
 0004:00002760       $pdata$my_strnncollsp_ucs2_bin 00000001803c9760     strings:ctype-ucs2.obj
 0004:0000276c       $pdata$my_caseup_ucs2      00000001803c976c     strings:ctype-ucs2.obj
 0004:00002778       $pdata$0$my_caseup_ucs2    00000001803c9778     strings:ctype-ucs2.obj
 0004:00002784       $pdata$1$my_caseup_ucs2    00000001803c9784     strings:ctype-ucs2.obj
 0004:00002790       $pdata$my_hash_sort_ucs2   00000001803c9790     strings:ctype-ucs2.obj
 0004:0000279c       $pdata$0$my_hash_sort_ucs2 00000001803c979c     strings:ctype-ucs2.obj
 0004:000027a8       $pdata$1$my_hash_sort_ucs2 00000001803c97a8     strings:ctype-ucs2.obj
 0004:000027b4       $pdata$my_casedn_ucs2      00000001803c97b4     strings:ctype-ucs2.obj
 0004:000027c0       $pdata$0$my_casedn_ucs2    00000001803c97c0     strings:ctype-ucs2.obj
 0004:000027cc       $pdata$1$my_casedn_ucs2    00000001803c97cc     strings:ctype-ucs2.obj
 0004:000027d8       $pdata$my_hash_sort_ucs2_bin 00000001803c97d8     strings:ctype-ucs2.obj
 0004:000027e4       $pdata$my_well_formed_len_euckr 00000001803c97e4     strings:ctype-euc_kr.obj
 0004:000027f0       $pdata$0$my_well_formed_len_euckr 00000001803c97f0     strings:ctype-euc_kr.obj
 0004:000027fc       $pdata$2$my_well_formed_len_euckr 00000001803c97fc     strings:ctype-euc_kr.obj
 0004:00002808       $pdata$3$my_well_formed_len_euckr 00000001803c9808     strings:ctype-euc_kr.obj
 0004:00002814       $pdata$my_wc_mb_euc_kr     00000001803c9814     strings:ctype-euc_kr.obj
 0004:00002820       $pdata$my_strnncoll_euckr_korean_ci 00000001803c9820     strings:ctype-euc_kr.obj
 0004:0000282c       $pdata$my_strnncollsp_euckr_korean_ci 00000001803c982c     strings:ctype-euc_kr.obj
 0004:00002838       $pdata$my_strnncoll_euckr_bin 00000001803c9838     strings:ctype-euc_kr.obj
 0004:00002844       $pdata$my_strnncollsp_euckr_bin 00000001803c9844     strings:ctype-euc_kr.obj
 0004:00002850       $pdata$my_well_formed_len_ujis 00000001803c9850     strings:ctype-ujis.obj
 0004:00002850       $pdata$my_well_formed_len_eucjpms 00000001803c9850     strings:ctype-eucjpms.obj
 0004:0000285c       $pdata$my_strnncoll_eucjpms_japanese_ci 00000001803c985c     strings:ctype-eucjpms.obj
 0004:00002868       $pdata$my_strnncollsp_eucjpms_japanese_ci 00000001803c9868     strings:ctype-eucjpms.obj
 0004:00002874       $pdata$my_strnncoll_ujis_bin 00000001803c9874     strings:ctype-ujis.obj
 0004:00002874       $pdata$my_strnncoll_eucjpms_bin 00000001803c9874     strings:ctype-eucjpms.obj
 0004:00002880       $pdata$my_strnncollsp_ujis_bin 00000001803c9880     strings:ctype-ujis.obj
 0004:00002880       $pdata$my_strnncollsp_eucjpms_bin 00000001803c9880     strings:ctype-eucjpms.obj
 0004:0000288c       $pdata$my_strnncoll_ujis_japanese_ci 00000001803c988c     strings:ctype-ujis.obj
 0004:00002898       $pdata$my_strnncollsp_ujis_japanese_ci 00000001803c9898     strings:ctype-ujis.obj
 0004:000028a4       $pdata$my_casefold_ujis    00000001803c98a4     strings:ctype-ujis.obj
 0004:000028b0       $pdata$1$my_casefold_ujis  00000001803c98b0     strings:ctype-ujis.obj
 0004:000028bc       $pdata$2$my_casefold_ujis  00000001803c98bc     strings:ctype-ujis.obj
 0004:000028c8       $pdata$my_casedn_ujis      00000001803c98c8     strings:ctype-ujis.obj
 0004:000028d4       $pdata$my_caseup_ujis      00000001803c98d4     strings:ctype-ujis.obj
 0004:000028e0       $pdata$my_wc_mb_gb2312     00000001803c98e0     strings:ctype-gb2312.obj
 0004:000028ec       $pdata$my_mb_wc_gb2312     00000001803c98ec     strings:ctype-gb2312.obj
 0004:000028f8       $pdata$my_strnncoll_gb2312_chinese_ci 00000001803c98f8     strings:ctype-gb2312.obj
 0004:00002904       $pdata$my_strnncollsp_gb2312_chinese_ci 00000001803c9904     strings:ctype-gb2312.obj
 0004:00002910       $pdata$my_strnncoll_gb2312_bin 00000001803c9910     strings:ctype-gb2312.obj
 0004:0000291c       $pdata$my_strnncollsp_gb2312_bin 00000001803c991c     strings:ctype-gb2312.obj
 0004:00002928       $pdata$my_strnncoll_czech  00000001803c9928     strings:ctype-czech.obj
 0004:00002934       $pdata$my_strnxfrm_czech   00000001803c9934     strings:ctype-czech.obj
 0004:00002940       $pdata$my_like_range_czech 00000001803c9940     strings:ctype-czech.obj
 0004:0000294c       $pdata$0$my_like_range_czech 00000001803c994c     strings:ctype-czech.obj
 0004:00002958       $pdata$7$my_like_range_czech 00000001803c9958     strings:ctype-czech.obj
 0004:00002964       $pdata$8$my_like_range_czech 00000001803c9964     strings:ctype-czech.obj
 0004:00002970       $pdata$9$my_like_range_czech 00000001803c9970     strings:ctype-czech.obj
 0004:0000297c       $pdata$my_strnxfrm_big5    00000001803c997c     strings:ctype-big5.obj
 0004:00002988       $pdata$my_wc_mb_big5       00000001803c9988     strings:ctype-big5.obj
 0004:00002994       $pdata$my_strnncoll_big5_chinese_ci 00000001803c9994     strings:ctype-big5.obj
 0004:000029a0       $pdata$my_strnncollsp_big5_chinese_ci 00000001803c99a0     strings:ctype-big5.obj
 0004:000029ac       $pdata$my_strnncoll_big5_bin 00000001803c99ac     strings:ctype-big5.obj
 0004:000029b8       $pdata$my_strnncollsp_big5_bin 00000001803c99b8     strings:ctype-big5.obj
 0004:000029c4       $pdata$thai2sortable       00000001803c99c4     strings:ctype-tis620.obj
 0004:000029d0       $pdata$2$thai2sortable     00000001803c99d0     strings:ctype-tis620.obj
 0004:000029dc       $pdata$3$thai2sortable     00000001803c99dc     strings:ctype-tis620.obj
 0004:000029e8       $pdata$my_strnncoll_tis620 00000001803c99e8     strings:ctype-tis620.obj
 0004:000029f4       $pdata$0$my_strnncoll_tis620 00000001803c99f4     strings:ctype-tis620.obj
 0004:00002a00       $pdata$1$my_strnncoll_tis620 00000001803c9a00     strings:ctype-tis620.obj
 0004:00002a0c       $pdata$my_strnncollsp_tis620 00000001803c9a0c     strings:ctype-tis620.obj
 0004:00002a18       $pdata$0$my_strnncollsp_tis620 00000001803c9a18     strings:ctype-tis620.obj
 0004:00002a24       $pdata$1$my_strnncollsp_tis620 00000001803c9a24     strings:ctype-tis620.obj
 0004:00002a30       $pdata$my_strnxfrm_tis620  00000001803c9a30     strings:ctype-tis620.obj
 0004:00002a3c       $pdata$my_strnncoll_sjis_japanese_ci 00000001803c9a3c     strings:ctype-sjis.obj
 0004:00002a48       $pdata$my_strnncollsp_sjis_japanese_ci 00000001803c9a48     strings:ctype-sjis.obj
 0004:00002a54       $pdata$my_strnxfrm_gbk     00000001803c9a54     strings:ctype-gbk.obj
 0004:00002a60       $pdata$my_wc_mb_gbk        00000001803c9a60     strings:ctype-gbk.obj
 0004:00002a6c       $pdata$my_strnncoll_gbk_chinese_ci 00000001803c9a6c     strings:ctype-gbk.obj
 0004:00002a78       $pdata$my_strnncollsp_gbk_chinese_ci 00000001803c9a78     strings:ctype-gbk.obj
 0004:00002a84       $pdata$my_strnncoll_gbk_bin 00000001803c9a84     strings:ctype-gbk.obj
 0004:00002a90       $pdata$my_strnncollsp_gbk_bin 00000001803c9a90     strings:ctype-gbk.obj
 0004:00002a9c       $pdata$my_str_malloc_default 00000001803c9a9c     strings:str_alloc.obj
 0004:00002aa8       $pdata$my_caseup_str_mb    00000001803c9aa8     strings:ctype-mb.obj
 0004:00002ab4       $pdata$my_casedn_str_mb    00000001803c9ab4     strings:ctype-mb.obj
 0004:00002ac0       $pdata$my_caseup_mb        00000001803c9ac0     strings:ctype-mb.obj
 0004:00002acc       $pdata$my_casedn_mb        00000001803c9acc     strings:ctype-mb.obj
 0004:00002ad8       $pdata$my_casefold_mb_varlen 00000001803c9ad8     strings:ctype-mb.obj
 0004:00002ae4       $pdata$0$my_casefold_mb_varlen 00000001803c9ae4     strings:ctype-mb.obj
 0004:00002af0       $pdata$1$my_casefold_mb_varlen 00000001803c9af0     strings:ctype-mb.obj
 0004:00002afc       $pdata$my_caseup_mb_varlen 00000001803c9afc     strings:ctype-mb.obj
 0004:00002b08       $pdata$my_strcasecmp_mb    00000001803c9b08     strings:ctype-mb.obj
 0004:00002b14       $pdata$my_wildcmp_mb_impl  00000001803c9b14     strings:ctype-mb.obj
 0004:00002b20       $pdata$my_wildcmp_mb       00000001803c9b20     strings:ctype-mb.obj
 0004:00002b2c       $pdata$my_numchars_mb      00000001803c9b2c     strings:ctype-mb.obj
 0004:00002b38       $pdata$my_charpos_mb       00000001803c9b38     strings:ctype-mb.obj
 0004:00002b44       $pdata$my_well_formed_len_mb 00000001803c9b44     strings:ctype-mb.obj
 0004:00002b50       $pdata$my_append_fix_badly_formed_tail 00000001803c9b50     strings:ctype-mb.obj
 0004:00002b5c       $pdata$0$my_append_fix_badly_formed_tail 00000001803c9b5c     strings:ctype-mb.obj
 0004:00002b68       $pdata$1$my_append_fix_badly_formed_tail 00000001803c9b68     strings:ctype-mb.obj
 0004:00002b74       $pdata$my_copy_fix_mb      00000001803c9b74     strings:ctype-mb.obj
 0004:00002b80       $pdata$my_instr_mb         00000001803c9b80     strings:ctype-mb.obj
 0004:00002b8c       $pdata$my_strnxfrm_mb      00000001803c9b8c     strings:ctype-mb.obj
 0004:00002b98       $pdata$pad_max_char        00000001803c9b98     strings:ctype-mb.obj
 0004:00002ba4       $pdata$my_like_range_mb    00000001803c9ba4     strings:ctype-mb.obj
 0004:00002bb0       $pdata$my_like_range_generic 00000001803c9bb0     strings:ctype-mb.obj
 0004:00002bbc       $pdata$my_wildcmp_mb_bin_impl 00000001803c9bbc     strings:ctype-mb.obj
 0004:00002bc8       $pdata$my_wildcmp_mb_bin   00000001803c9bc8     strings:ctype-mb.obj
 0004:00002bd4       $pdata$my_numcells_mb      00000001803c9bd4     strings:ctype-mb.obj
 0004:00002be0       $pdata$0$my_numcells_mb    00000001803c9be0     strings:ctype-mb.obj
 0004:00002bec       $pdata$1$my_numcells_mb    00000001803c9bec     strings:ctype-mb.obj
 0004:00002bf8       $pdata$my_mb_ctype_mb      00000001803c9bf8     strings:ctype-mb.obj
 0004:00002c04       $pdata$my_xml_scan         00000001803c9c04     strings:xml.obj
 0004:00002c10       $pdata$my_xml_enter        00000001803c9c10     strings:xml.obj
 0004:00002c1c       $pdata$my_xml_leave        00000001803c9c1c     strings:xml.obj
 0004:00002c28       $pdata$my_xml_parse        00000001803c9c28     strings:xml.obj
 0004:00002c34       $pdata$vio_shared_memory_shutdown 00000001803c9c34     vio:vio.obj
 0004:00002c40       $pdata$vio_init            00000001803c9c40     vio:vio.obj
 0004:00002c4c       $pdata$vio_new             00000001803c9c4c     vio:vio.obj
 0004:00002c58       $pdata$vio_new_win32pipe   00000001803c9c58     vio:vio.obj
 0004:00002c64       $pdata$vio_new_win32shared_memory 00000001803c9c64     vio:vio.obj
 0004:00002c70       $pdata$vio_delete          00000001803c9c70     vio:vio.obj
 0004:00002c7c       $pdata$0$vio_delete        00000001803c9c7c     vio:vio.obj
 0004:00002c88       $pdata$1$vio_delete        00000001803c9c88     vio:vio.obj
 0004:00002c94       $pdata$2$vio_delete        00000001803c9c94     vio:vio.obj
 0004:00002ca0       $pdata$3$vio_delete        00000001803c9ca0     vio:vio.obj
 0004:00002cac       $pdata$inline_mysql_socket_shutdown 00000001803c9cac     vio:viosocket.obj
 0004:00002cb8       $pdata$vio_read            00000001803c9cb8     vio:viosocket.obj
 0004:00002cc4       $pdata$vio_read_buff       00000001803c9cc4     vio:viosocket.obj
 0004:00002cd0       $pdata$0$vio_read_buff     00000001803c9cd0     vio:viosocket.obj
 0004:00002cdc       $pdata$1$vio_read_buff     00000001803c9cdc     vio:viosocket.obj
 0004:00002ce8       $pdata$vio_write           00000001803c9ce8     vio:viosocket.obj
 0004:00002cf4       $pdata$cancel_io           00000001803c9cf4     vio:viosocket.obj
 0004:00002d00       $pdata$vio_socket_shutdown 00000001803c9d00     vio:viosocket.obj
 0004:00002d0c       $pdata$vio_blocking        00000001803c9d0c     vio:viosocket.obj
 0004:00002d18       $pdata$vio_socket_timeout  00000001803c9d18     vio:viosocket.obj
 0004:00002d24       $pdata$vio_fastsend        00000001803c9d24     vio:viosocket.obj
 0004:00002d30       $pdata$vio_keepalive       00000001803c9d30     vio:viosocket.obj
 0004:00002d3c       $pdata$vio_should_retry    00000001803c9d3c     vio:viosocket.obj
 0004:00002d48       $pdata$vio_was_timeout     00000001803c9d48     vio:viosocket.obj
 0004:00002d54       $pdata$vio_close           00000001803c9d54     vio:viosocket.obj
 0004:00002d60       $pdata$vio_get_normalized_ip 00000001803c9d60     vio:viosocket.obj
 0004:00002d6c       $pdata$vio_peer_addr       00000001803c9d6c     vio:viosocket.obj
 0004:00002d78       $pdata$0$vio_peer_addr     00000001803c9d78     vio:viosocket.obj
 0004:00002d84       $pdata$1$vio_peer_addr     00000001803c9d84     vio:viosocket.obj
 0004:00002d90       $pdata$vio_io_wait         00000001803c9d90     vio:viosocket.obj
 0004:00002d9c       $pdata$1$vio_io_wait       00000001803c9d9c     vio:viosocket.obj
 0004:00002da8       $pdata$2$vio_io_wait       00000001803c9da8     vio:viosocket.obj
 0004:00002db4       $pdata$vio_is_connected    00000001803c9db4     vio:viosocket.obj
 0004:00002dc0       $pdata$vio_read_shared_memory 00000001803c9dc0     vio:vioshm.obj
 0004:00002dcc       $pdata$vio_write_shared_memory 00000001803c9dcc     vio:vioshm.obj
 0004:00002dd8       $pdata$vio_is_connected_shared_memory 00000001803c9dd8     vio:vioshm.obj
 0004:00002de4       $pdata$vio_close_shared_memory 00000001803c9de4     vio:vioshm.obj
 0004:00002df0       $pdata$wait_overlapped_result 00000001803c9df0     vio:viopipe.obj
 0004:00002dfc       $pdata$vio_read_pipe       00000001803c9dfc     vio:viopipe.obj
 0004:00002e08       $pdata$vio_write_pipe      00000001803c9e08     vio:viopipe.obj
 0004:00002e14       $pdata$vio_is_connected_pipe 00000001803c9e14     vio:viopipe.obj
 0004:00002e20       $pdata$vio_close_pipe      00000001803c9e20     vio:viopipe.obj
 0004:00002e2c       $pdata$uncompress          00000001803c9e2c     zlib:uncompr.obj
 0004:00002e38       $pdata$0$uncompress        00000001803c9e38     zlib:uncompr.obj
 0004:00002e44       $pdata$1$uncompress        00000001803c9e44     zlib:uncompr.obj
 0004:00002e50       $pdata$deflateInit2_       00000001803c9e50     zlib:deflate.obj
 0004:00002e5c       $pdata$1$deflateInit2_     00000001803c9e5c     zlib:deflate.obj
 0004:00002e68       $pdata$3$deflateInit2_     00000001803c9e68     zlib:deflate.obj
 0004:00002e74       $pdata$deflateResetKeep    00000001803c9e74     zlib:deflate.obj
 0004:00002e80       $pdata$flush_pending       00000001803c9e80     zlib:deflate.obj
 0004:00002e8c       $pdata$0$flush_pending     00000001803c9e8c     zlib:deflate.obj
 0004:00002e98       $pdata$1$flush_pending     00000001803c9e98     zlib:deflate.obj
 0004:00002ea4       $pdata$deflate             00000001803c9ea4     zlib:deflate.obj
 0004:00002eb0       $pdata$0$deflate           00000001803c9eb0     zlib:deflate.obj
 0004:00002ebc       $pdata$1$deflate           00000001803c9ebc     zlib:deflate.obj
 0004:00002ec8       $pdata$2$deflate           00000001803c9ec8     zlib:deflate.obj
 0004:00002ed4       $pdata$4$deflate           00000001803c9ed4     zlib:deflate.obj
 0004:00002ee0       $pdata$6$deflate           00000001803c9ee0     zlib:deflate.obj
 0004:00002eec       $pdata$8$deflate           00000001803c9eec     zlib:deflate.obj
 0004:00002ef8       $pdata$9$deflate           00000001803c9ef8     zlib:deflate.obj
 0004:00002f04       $pdata$deflateEnd          00000001803c9f04     zlib:deflate.obj
 0004:00002f10       $pdata$0$deflateEnd        00000001803c9f10     zlib:deflate.obj
 0004:00002f1c       $pdata$2$deflateEnd        00000001803c9f1c     zlib:deflate.obj
 0004:00002f28       $pdata$3$deflateEnd        00000001803c9f28     zlib:deflate.obj
 0004:00002f34       $pdata$read_buf            00000001803c9f34     zlib:deflate.obj
 0004:00002f40       $pdata$lm_init             00000001803c9f40     zlib:deflate.obj
 0004:00002f4c       $pdata$longest_match       00000001803c9f4c     zlib:deflate.obj
 0004:00002f58       $pdata$fill_window         00000001803c9f58     zlib:deflate.obj
 0004:00002f64       $pdata$0$fill_window       00000001803c9f64     zlib:deflate.obj
 0004:00002f70       $pdata$1$fill_window       00000001803c9f70     zlib:deflate.obj
 0004:00002f7c       $pdata$deflate_stored      00000001803c9f7c     zlib:deflate.obj
 0004:00002f88       $pdata$deflate_fast        00000001803c9f88     zlib:deflate.obj
 0004:00002f94       $pdata$deflate_slow        00000001803c9f94     zlib:deflate.obj
 0004:00002fa0       $pdata$deflate_rle         00000001803c9fa0     zlib:deflate.obj
 0004:00002fac       $pdata$deflate_huff        00000001803c9fac     zlib:deflate.obj
 0004:00002fb8       $pdata$inflateReset2       00000001803c9fb8     zlib:inflate.obj
 0004:00002fc4       $pdata$0$inflateReset2     00000001803c9fc4     zlib:inflate.obj
 0004:00002fd0       $pdata$2$inflateReset2     00000001803c9fd0     zlib:inflate.obj
 0004:00002fdc       $pdata$3$inflateReset2     00000001803c9fdc     zlib:inflate.obj
 0004:00002fe8       $pdata$inflateInit2_       00000001803c9fe8     zlib:inflate.obj
 0004:00002ff4       $pdata$1$inflateInit2_     00000001803c9ff4     zlib:inflate.obj
 0004:00003000       $pdata$4$inflateInit2_     00000001803ca000     zlib:inflate.obj
 0004:0000300c       $pdata$updatewindow        00000001803ca00c     zlib:inflate.obj
 0004:00003018       $pdata$0$updatewindow      00000001803ca018     zlib:inflate.obj
 0004:00003024       $pdata$1$updatewindow      00000001803ca024     zlib:inflate.obj
 0004:00003030       $pdata$inflate             00000001803ca030     zlib:inflate.obj
 0004:0000303c       $pdata$3$inflate           00000001803ca03c     zlib:inflate.obj
 0004:00003048       $pdata$5$inflate           00000001803ca048     zlib:inflate.obj
 0004:00003054       $pdata$6$inflate           00000001803ca054     zlib:inflate.obj
 0004:00003060       $pdata$pqdownheap          00000001803ca060     zlib:trees.obj
 0004:0000306c       $pdata$1$pqdownheap        00000001803ca06c     zlib:trees.obj
 0004:00003078       $pdata$3$pqdownheap        00000001803ca078     zlib:trees.obj
 0004:00003084       $pdata$4$pqdownheap        00000001803ca084     zlib:trees.obj
 0004:00003090       $pdata$gen_bitlen          00000001803ca090     zlib:trees.obj
 0004:0000309c       $pdata$0$gen_bitlen        00000001803ca09c     zlib:trees.obj
 0004:000030a8       $pdata$1$gen_bitlen        00000001803ca0a8     zlib:trees.obj
 0004:000030b4       $pdata$gen_codes           00000001803ca0b4     zlib:trees.obj
 0004:000030c0       $pdata$build_tree          00000001803ca0c0     zlib:trees.obj
 0004:000030cc       $pdata$scan_tree           00000001803ca0cc     zlib:trees.obj
 0004:000030d8       $pdata$4$scan_tree         00000001803ca0d8     zlib:trees.obj
 0004:000030e4       $pdata$5$scan_tree         00000001803ca0e4     zlib:trees.obj
 0004:000030f0       $pdata$send_tree           00000001803ca0f0     zlib:trees.obj
 0004:000030fc       $pdata$6$send_tree         00000001803ca0fc     zlib:trees.obj
 0004:00003108       $pdata$7$send_tree         00000001803ca108     zlib:trees.obj
 0004:00003114       $pdata$build_bl_tree       00000001803ca114     zlib:trees.obj
 0004:00003120       $pdata$send_all_trees      00000001803ca120     zlib:trees.obj
 0004:0000312c       $pdata$_tr_flush_block     00000001803ca12c     zlib:trees.obj
 0004:00003138       $pdata$compress_block      00000001803ca138     zlib:trees.obj
 0004:00003144       $pdata$1$compress_block    00000001803ca144     zlib:trees.obj
 0004:00003150       $pdata$4$compress_block    00000001803ca150     zlib:trees.obj
 0004:0000315c       $pdata$5$compress_block    00000001803ca15c     zlib:trees.obj
 0004:00003168       $pdata$6$compress_block    00000001803ca168     zlib:trees.obj
 0004:00003174       $pdata$copy_block          00000001803ca174     zlib:trees.obj
 0004:00003180       $pdata$crc32_little        00000001803ca180     zlib:crc32.obj
 0004:0000318c       $pdata$0$crc32_little      00000001803ca18c     zlib:crc32.obj
 0004:00003198       $pdata$1$crc32_little      00000001803ca198     zlib:crc32.obj
 0004:000031a4       $pdata$inflate_table       00000001803ca1a4     zlib:inftrees.obj
 0004:000031b0       $pdata$0$inflate_table     00000001803ca1b0     zlib:inftrees.obj
 0004:000031bc       $pdata$2$inflate_table     00000001803ca1bc     zlib:inftrees.obj
 0004:000031c8       $pdata$3$inflate_table     00000001803ca1c8     zlib:inftrees.obj
 0004:000031d4       $pdata$inflate_fast        00000001803ca1d4     zlib:inffast.obj
 0004:000031e0       $pdata$?Transform@SHA@TaoCrypt@@EEAAXXZ 00000001803ca1e0     taocrypt:sha.obj
 0004:000031ec       $pdata$?Update@HASHwithTransform@TaoCrypt@@UEAAXPEBEI@Z 00000001803ca1ec     taocrypt:hash.obj
 0004:000031f8       $pdata$2$?Update@HASHwithTransform@TaoCrypt@@UEAAXPEBEI@Z 00000001803ca1f8     taocrypt:hash.obj
 0004:00003204       $pdata$3$?Update@HASHwithTransform@TaoCrypt@@UEAAXPEBEI@Z 00000001803ca204     taocrypt:hash.obj
 0004:00003210       $pdata$?Final@HASHwithTransform@TaoCrypt@@UEAAXPEAE@Z 00000001803ca210     taocrypt:hash.obj
 0004:00003234       $pdata$??2@YAPEAX_K@Z      00000001803ca234     LIBCMT:new_scalar.obj
 0004:00003240       $pdata$__scrt_acquire_startup_lock 00000001803ca240     LIBCMT:utility.obj
 0004:0000324c       $pdata$__scrt_dllmain_after_initialize_c 00000001803ca24c     LIBCMT:utility.obj
 0004:00003258       $pdata$__scrt_dllmain_before_initialize_c 00000001803ca258     LIBCMT:utility.obj
 0004:00003264       $pdata$__scrt_dllmain_crt_thread_attach 00000001803ca264     LIBCMT:utility.obj
 0004:00003270       $pdata$__scrt_dllmain_crt_thread_detach 00000001803ca270     LIBCMT:utility.obj
 0004:0000327c       $pdata$__scrt_dllmain_exception_filter 00000001803ca27c     LIBCMT:utility.obj
 0004:00003288       $pdata$__scrt_dllmain_uninitialize_c 00000001803ca288     LIBCMT:utility.obj
 0004:00003294       $pdata$__scrt_dllmain_uninitialize_critical 00000001803ca294     LIBCMT:utility.obj
 0004:000032a0       $pdata$__scrt_initialize_crt 00000001803ca2a0     LIBCMT:utility.obj
 0004:000032ac       $pdata$__scrt_initialize_onexit_tables 00000001803ca2ac     LIBCMT:utility.obj
 0004:000032b8       $pdata$__scrt_is_nonwritable_in_current_image 00000001803ca2b8     LIBCMT:utility.obj
 0004:000032c4       $pdata$__scrt_release_startup_lock 00000001803ca2c4     LIBCMT:utility.obj
 0004:000032d0       $pdata$__scrt_uninitialize_crt 00000001803ca2d0     LIBCMT:utility.obj
 0004:000032dc       $pdata$_onexit             00000001803ca2dc     LIBCMT:utility.obj
 0004:000032e8       $pdata$atexit              00000001803ca2e8     LIBCMT:utility.obj
 0004:000032f4       $pdata$?dllmain_crt_dispatch@@YAHQEAUHINSTANCE__@@KQEAX@Z 00000001803ca2f4     LIBCMT:dll_dllmain.obj
 0004:00003300       $pdata$?dllmain_crt_process_attach@@YAHQEAUHINSTANCE__@@QEAX@Z 00000001803ca300     LIBCMT:dll_dllmain.obj
 0004:0000330c       $pdata$?dllmain_crt_process_detach@@YAH_N@Z 00000001803ca30c     LIBCMT:dll_dllmain.obj
 0004:00003318       $pdata$?dllmain_dispatch@@YAHQEAUHINSTANCE__@@KQEAX@Z 00000001803ca318     LIBCMT:dll_dllmain.obj
 0004:00003324       $pdata$?dllmain_raw@@YAHQEAUHINSTANCE__@@KQEAX@Z 00000001803ca324     LIBCMT:dll_dllmain.obj
 0004:00003330       $pdata$_DllMainCRTStartup  00000001803ca330     LIBCMT:dll_dllmain.obj
 0004:0000333c       $pdata$__raise_securityfailure 00000001803ca33c     LIBCMT:gs_report.obj
 0004:00003348       $pdata$__report_gsfailure  00000001803ca348     LIBCMT:gs_report.obj
 0004:00003354       $pdata$__report_rangecheckfailure 00000001803ca354     LIBCMT:gs_report.obj
 0004:00003360       $pdata$__report_securityfailure 00000001803ca360     LIBCMT:gs_report.obj
 0004:0000336c       $pdata$capture_current_context 00000001803ca36c     LIBCMT:gs_report.obj
 0004:00003378       $pdata$capture_previous_context 00000001803ca378     LIBCMT:gs_report.obj
 0004:00003384       $pdata$??0bad_alloc@std@@QEAA@AEBV01@@Z 00000001803ca384     LIBCMT:throw_bad_alloc.obj
 0004:00003390       $pdata$??0bad_array_new_length@std@@QEAA@AEBV01@@Z 00000001803ca390     LIBCMT:throw_bad_alloc.obj
 0004:0000339c       $pdata$??0exception@std@@QEAA@AEBV01@@Z 00000001803ca39c     LIBCMT:throw_bad_alloc.obj
 0004:000033a8       $pdata$??_Gbad_array_new_length@std@@UEAAPEAXI@Z 00000001803ca3a8     LIBCMT:throw_bad_alloc.obj
 0004:000033a8       $pdata$??_Gexception@std@@UEAAPEAXI@Z 00000001803ca3a8     LIBCMT:throw_bad_alloc.obj
 0004:000033a8       $pdata$??_Gbad_alloc@std@@UEAAPEAXI@Z 00000001803ca3a8     LIBCMT:throw_bad_alloc.obj
 0004:000033b4       $pdata$?__scrt_throw_std_bad_alloc@@YAXXZ 00000001803ca3b4     LIBCMT:throw_bad_alloc.obj
 0004:000033c0       $pdata$?__scrt_throw_std_bad_array_new_length@@YAXXZ 00000001803ca3c0     LIBCMT:throw_bad_alloc.obj
 0004:000033cc       $pdata$__isa_available_init 00000001803ca3cc     LIBCMT:_cpu_disp_.obj
 0004:000033d8       $pdata$__scrt_fastfail     00000001803ca3d8     LIBCMT:utility_desktop.obj
 0004:000033e4       $pdata$__security_init_cookie 00000001803ca3e4     LIBCMT:gs_support.obj
 0004:000033f0       $pdata$__scrt_initialize_default_local_stdio_options 00000001803ca3f0     LIBCMT:default_local_stdio_options.obj
 0004:000033fc       $pdata$_RTC_Initialize     00000001803ca3fc     LIBCMT:_initsect_.obj
 0004:00003408       $pdata$_RTC_Terminate      00000001803ca408     LIBCMT:_initsect_.obj
 0004:00003414       $pdata$??_Gtype_info@@UEAAPEAXI@Z 00000001803ca414     LIBCMT:std_type_info_static.obj
 0004:0000342c       $pdata$strstr              00000001803ca42c     libvcruntime:strstr.obj
 0004:00003438       $pdata$strchr              00000001803ca438     libvcruntime:strchr.obj
 0004:00003444       $pdata$strrchr             00000001803ca444     libvcruntime:strrchr.obj
 0004:00003450       $pdata$_purecall           00000001803ca450     libvcruntime:purevirt.obj
 0004:0000345c       $pdata$__vcrt_initialize   00000001803ca45c     libvcruntime:initialization.obj
 0004:00003468       $pdata$__vcrt_thread_attach 00000001803ca468     libvcruntime:initialization.obj
 0004:00003474       $pdata$__vcrt_thread_detach 00000001803ca474     libvcruntime:initialization.obj
 0004:00003480       $pdata$__vcrt_uninitialize 00000001803ca480     libvcruntime:initialization.obj
 0004:0000348c       $pdata$__vcrt_uninitialize_critical 00000001803ca48c     libvcruntime:initialization.obj
 0004:00003498       $pdata$__C_specific_handler 00000001803ca498     libvcruntime:_chandler_.obj
 0004:000034a4       $pdata$__std_exception_copy 00000001803ca4a4     libvcruntime:std_exception.obj
 0004:000034b0       $pdata$__std_exception_destroy 00000001803ca4b0     libvcruntime:std_exception.obj
 0004:000034bc       $pdata$_CxxThrowException  00000001803ca4bc     libvcruntime:throw.obj
 0004:000034d4       $pdata$__std_type_info_destroy_list 00000001803ca4d4     libvcruntime:std_type_info.obj
 0004:000034e0       $pdata$__vcrt_freefls      00000001803ca4e0     libvcruntime:per_thread_data.obj
 0004:000034ec       $pdata$__vcrt_freeptd      00000001803ca4ec     libvcruntime:per_thread_data.obj
 0004:000034f8       $pdata$__vcrt_getptd_noexit 00000001803ca4f8     libvcruntime:per_thread_data.obj
 0004:00003504       $pdata$__vcrt_initialize_ptd 00000001803ca504     libvcruntime:per_thread_data.obj
 0004:00003510       $pdata$__vcrt_uninitialize_ptd 00000001803ca510     libvcruntime:per_thread_data.obj
 0004:0000351c       $pdata$__vcrt_initialize_locks 00000001803ca51c     libvcruntime:locks.obj
 0004:00003528       $pdata$__vcrt_uninitialize_locks 00000001803ca528     libvcruntime:locks.obj
 0004:00003534       $pdata$?try_get_function@@YAPEAXW4function_id@?A0x679b24ab@@QEBDQEBW4module_id@2@2@Z 00000001803ca534     libvcruntime:winapi_downlevel.obj
 0004:00003540       $pdata$__vcrt_FlsAlloc     00000001803ca540     libvcruntime:winapi_downlevel.obj
 0004:0000354c       $pdata$__vcrt_FlsFree      00000001803ca54c     libvcruntime:winapi_downlevel.obj
 0004:00003558       $pdata$__vcrt_FlsGetValue  00000001803ca558     libvcruntime:winapi_downlevel.obj
 0004:00003564       $pdata$__vcrt_FlsSetValue  00000001803ca564     libvcruntime:winapi_downlevel.obj
 0004:00003570       $pdata$__vcrt_InitializeCriticalSectionEx 00000001803ca570     libvcruntime:winapi_downlevel.obj
 0004:0000357c       $pdata$__vcrt_uninitialize_winapi_thunks 00000001803ca57c     libvcruntime:winapi_downlevel.obj
 0004:000035b8       $pdata$??$?RV<lambda_7b91131dde12e1c3dfc74ff76b3f2eac>@@AEAV<lambda_dd75445284c072d0bd3768540cc698fa>@@V<lambda_16bc4ecb55b4718497c16bceaea2ceaf>@@@?$__crt_seh_guarded_call@H@@QEAAH$$QEAV<lambda_7b91131dde12e1c3dfc74ff76b3f2eac>@@AEAV<lambda_dd75445284c072d0bd3768540cc698fa>@@$$QEAV<lambda_16bc4ecb55b4718497c16bceaea2ceaf>@@@Z 00000001803ca5b8     libucrt:output.obj
 0004:000035c4       $pdata$??$?RV<lambda_aa279a7bcb127014629d5b1d62c7325d>@@AEAV<lambda_0a64b6a4deda75c01876f29c44fc5eb3>@@V<lambda_3323e69fbefe9d1a11713e670d47cdfa>@@@?$__crt_seh_guarded_call@H@@QEAAH$$QEAV<lambda_aa279a7bcb127014629d5b1d62c7325d>@@AEAV<lambda_0a64b6a4deda75c01876f29c44fc5eb3>@@$$QEAV<lambda_3323e69fbefe9d1a11713e670d47cdfa>@@@Z 00000001803ca5c4     libucrt:output.obj
 0004:000035d0       $pdata$??$ensure_buffer_is_big_enough@D@formatting_buffer@__crt_stdio_output@@QEAA_N_K@Z 00000001803ca5d0     libucrt:output.obj
 0004:000035dc       $pdata$??$type_case_integer_parse_into_buffer@I@?$output_processor@_WV?$stream_output_adapter@_W@__crt_stdio_output@@V?$standard_base@_WV?$stream_output_adapter@_W@__crt_stdio_output@@@2@@__crt_stdio_output@@AEAAXII_N@Z 00000001803ca5dc     libucrt:output.obj
 0004:000035dc       $pdata$??$type_case_integer_parse_into_buffer@I@?$output_processor@DV?$stream_output_adapter@D@__crt_stdio_output@@V?$standard_base@DV?$stream_output_adapter@D@__crt_stdio_output@@@2@@__crt_stdio_output@@AEAAXII_N@Z 00000001803ca5dc     libucrt:output.obj
 0004:000035dc       $pdata$??$type_case_integer_parse_into_buffer@I@?$output_processor@_WV?$string_output_adapter@_W@__crt_stdio_output@@V?$standard_base@_WV?$string_output_adapter@_W@__crt_stdio_output@@@2@@__crt_stdio_output@@AEAAXII_N@Z 00000001803ca5dc     libucrt:output.obj
 0004:000035dc       $pdata$??$type_case_integer_parse_into_buffer@I@?$output_processor@DV?$string_output_adapter@D@__crt_stdio_output@@V?$standard_base@DV?$string_output_adapter@D@__crt_stdio_output@@@2@@__crt_stdio_output@@AEAAXII_N@Z 00000001803ca5dc     libucrt:output.obj
 0004:000035e8       $pdata$??$type_case_integer_parse_into_buffer@_K@?$output_processor@DV?$stream_output_adapter@D@__crt_stdio_output@@V?$standard_base@DV?$stream_output_adapter@D@__crt_stdio_output@@@2@@__crt_stdio_output@@AEAAX_KI_N@Z 00000001803ca5e8     libucrt:output.obj
 0004:000035e8       $pdata$??$type_case_integer_parse_into_buffer@_K@?$output_processor@DV?$string_output_adapter@D@__crt_stdio_output@@V?$standard_base@DV?$string_output_adapter@D@__crt_stdio_output@@@2@@__crt_stdio_output@@AEAAX_KI_N@Z 00000001803ca5e8     libucrt:output.obj
 0004:000035e8       $pdata$??$type_case_integer_parse_into_buffer@_K@?$output_processor@_WV?$stream_output_adapter@_W@__crt_stdio_output@@V?$standard_base@_WV?$stream_output_adapter@_W@__crt_stdio_output@@@2@@__crt_stdio_output@@AEAAX_KI_N@Z 00000001803ca5e8     libucrt:output.obj
 0004:000035e8       $pdata$??$type_case_integer_parse_into_buffer@_K@?$output_processor@_WV?$string_output_adapter@_W@__crt_stdio_output@@V?$standard_base@_WV?$string_output_adapter@_W@__crt_stdio_output@@@2@@__crt_stdio_output@@AEAAX_KI_N@Z 00000001803ca5e8     libucrt:output.obj
 0004:000035f4       $pdata$??$write_multiple_characters@V?$stream_output_adapter@D@__crt_stdio_output@@D@__crt_stdio_output@@YAXAEBV?$stream_output_adapter@D@0@DHQEAH@Z 00000001803ca5f4     libucrt:output.obj
 0004:00003600       $pdata$??$write_multiple_characters@V?$stream_output_adapter@_W@__crt_stdio_output@@D@__crt_stdio_output@@YAXAEBV?$stream_output_adapter@_W@0@DHQEAH@Z 00000001803ca600     libucrt:output.obj
 0004:0000360c       $pdata$??$write_multiple_characters@V?$string_output_adapter@D@__crt_stdio_output@@D@__crt_stdio_output@@YAXAEBV?$string_output_adapter@D@0@DHQEAH@Z 00000001803ca60c     libucrt:output.obj
 0004:00003618       $pdata$??$write_multiple_characters@V?$string_output_adapter@_W@__crt_stdio_output@@D@__crt_stdio_output@@YAXAEBV?$string_output_adapter@_W@0@DHQEAH@Z 00000001803ca618     libucrt:output.obj
 0004:00003624       $pdata$??0?$output_processor@DV?$string_output_adapter@D@__crt_stdio_output@@V?$standard_base@DV?$string_output_adapter@D@__crt_stdio_output@@@2@@__crt_stdio_output@@QEAA@AEBV?$string_output_adapter@D@1@_KQEBDQEAU__crt_locale_pointers@@QEAD@Z 00000001803ca624     libucrt:output.obj
 0004:00003624       $pdata$??0?$output_processor@DV?$stream_output_adapter@D@__crt_stdio_output@@V?$standard_base@DV?$stream_output_adapter@D@__crt_stdio_output@@@2@@__crt_stdio_output@@QEAA@AEBV?$stream_output_adapter@D@1@_KQEBDQEAU__crt_locale_pointers@@QEAD@Z 00000001803ca624     libucrt:output.obj
 0004:00003630       $pdata$??0?$output_processor@_WV?$stream_output_adapter@_W@__crt_stdio_output@@V?$standard_base@_WV?$stream_output_adapter@_W@__crt_stdio_output@@@2@@__crt_stdio_output@@QEAA@AEBV?$stream_output_adapter@_W@1@_KQEB_WQEAU__crt_locale_pointers@@QEAD@Z 00000001803ca630     libucrt:output.obj
 0004:00003630       $pdata$??0?$output_processor@_WV?$string_output_adapter@_W@__crt_stdio_output@@V?$standard_base@_WV?$string_output_adapter@_W@__crt_stdio_output@@@2@@__crt_stdio_output@@QEAA@AEBV?$string_output_adapter@_W@1@_KQEB_WQEAU__crt_locale_pointers@@QEAD@Z 00000001803ca630     libucrt:output.obj
 0004:0000363c       $pdata$??0_LocaleUpdate@@QEAA@QEAU__crt_locale_pointers@@@Z 00000001803ca63c     libucrt:output.obj
 0004:00003648       $pdata$??R<lambda_0a64b6a4deda75c01876f29c44fc5eb3>@@QEBAHXZ 00000001803ca648     libucrt:output.obj
 0004:00003654       $pdata$??R<lambda_dd75445284c072d0bd3768540cc698fa>@@QEBAHXZ 00000001803ca654     libucrt:output.obj
 0004:00003660       $pdata$?force_decimal_point@__crt_stdio_output@@YAXPEADQEAU__crt_locale_pointers@@@Z 00000001803ca660     libucrt:output.obj
 0004:0000366c       $pdata$?parse_int_from_format_string@?$output_processor@DV?$stream_output_adapter@D@__crt_stdio_output@@V?$standard_base@DV?$stream_output_adapter@D@__crt_stdio_output@@@2@@__crt_stdio_output@@AEAA_NQEAH@Z 00000001803ca66c     libucrt:output.obj
 0004:0000366c       $pdata$?parse_int_from_format_string@?$output_processor@DV?$string_output_adapter@D@__crt_stdio_output@@V?$standard_base@DV?$string_output_adapter@D@__crt_stdio_output@@@2@@__crt_stdio_output@@AEAA_NQEAH@Z 00000001803ca66c     libucrt:output.obj
 0004:00003678       $pdata$?parse_int_from_format_string@?$output_processor@_WV?$string_output_adapter@_W@__crt_stdio_output@@V?$standard_base@_WV?$string_output_adapter@_W@__crt_stdio_output@@@2@@__crt_stdio_output@@AEAA_NQEAH@Z 00000001803ca678     libucrt:output.obj
 0004:00003678       $pdata$?parse_int_from_format_string@?$output_processor@_WV?$stream_output_adapter@_W@__crt_stdio_output@@V?$standard_base@_WV?$stream_output_adapter@_W@__crt_stdio_output@@@2@@__crt_stdio_output@@AEAA_NQEAH@Z 00000001803ca678     libucrt:output.obj
 0004:00003684       $pdata$?process@?$output_processor@DV?$stream_output_adapter@D@__crt_stdio_output@@V?$standard_base@DV?$stream_output_adapter@D@__crt_stdio_output@@@2@@__crt_stdio_output@@QEAAHXZ 00000001803ca684     libucrt:output.obj
 0004:00003690       $pdata$?process@?$output_processor@DV?$string_output_adapter@D@__crt_stdio_output@@V?$standard_base@DV?$string_output_adapter@D@__crt_stdio_output@@@2@@__crt_stdio_output@@QEAAHXZ 00000001803ca690     libucrt:output.obj
 0004:0000369c       $pdata$?process@?$output_processor@_WV?$stream_output_adapter@_W@__crt_stdio_output@@V?$standard_base@_WV?$stream_output_adapter@_W@__crt_stdio_output@@@2@@__crt_stdio_output@@QEAAHXZ 00000001803ca69c     libucrt:output.obj
 0004:000036a8       $pdata$?process@?$output_processor@_WV?$string_output_adapter@_W@__crt_stdio_output@@V?$standard_base@_WV?$string_output_adapter@_W@__crt_stdio_output@@@2@@__crt_stdio_output@@QEAAHXZ 00000001803ca6a8     libucrt:output.obj
 0004:000036b4       $pdata$?state_case_normal@?$output_processor@DV?$stream_output_adapter@D@__crt_stdio_output@@V?$standard_base@DV?$stream_output_adapter@D@__crt_stdio_output@@@2@@__crt_stdio_output@@AEAA_NXZ 00000001803ca6b4     libucrt:output.obj
 0004:000036c0       $pdata$?state_case_normal@?$output_processor@DV?$string_output_adapter@D@__crt_stdio_output@@V?$standard_base@DV?$string_output_adapter@D@__crt_stdio_output@@@2@@__crt_stdio_output@@AEAA_NXZ 00000001803ca6c0     libucrt:output.obj
 0004:000036cc       $pdata$?state_case_normal_tchar@?$output_processor@DV?$stream_output_adapter@D@__crt_stdio_output@@V?$standard_base@DV?$stream_output_adapter@D@__crt_stdio_output@@@2@@__crt_stdio_output@@AEAA_ND@Z 00000001803ca6cc     libucrt:output.obj
 0004:000036d8       $pdata$?state_case_normal_tchar@?$output_processor@DV?$string_output_adapter@D@__crt_stdio_output@@V?$standard_base@DV?$string_output_adapter@D@__crt_stdio_output@@@2@@__crt_stdio_output@@AEAA_ND@Z 00000001803ca6d8     libucrt:output.obj
 0004:000036e4       $pdata$?state_case_size@?$output_processor@DV?$stream_output_adapter@D@__crt_stdio_output@@V?$standard_base@DV?$stream_output_adapter@D@__crt_stdio_output@@@2@@__crt_stdio_output@@AEAA_NXZ 00000001803ca6e4     libucrt:output.obj
 0004:000036f0       $pdata$?state_case_size@?$output_processor@DV?$string_output_adapter@D@__crt_stdio_output@@V?$standard_base@DV?$string_output_adapter@D@__crt_stdio_output@@@2@@__crt_stdio_output@@AEAA_NXZ 00000001803ca6f0     libucrt:output.obj
 0004:000036fc       $pdata$?state_case_size@?$output_processor@_WV?$stream_output_adapter@_W@__crt_stdio_output@@V?$standard_base@_WV?$stream_output_adapter@_W@__crt_stdio_output@@@2@@__crt_stdio_output@@AEAA_NXZ 00000001803ca6fc     libucrt:output.obj
 0004:00003708       $pdata$?state_case_size@?$output_processor@_WV?$string_output_adapter@_W@__crt_stdio_output@@V?$standard_base@_WV?$string_output_adapter@_W@__crt_stdio_output@@@2@@__crt_stdio_output@@AEAA_NXZ 00000001803ca708     libucrt:output.obj
 0004:00003714       $pdata$?state_case_type@?$output_processor@DV?$stream_output_adapter@D@__crt_stdio_output@@V?$standard_base@DV?$stream_output_adapter@D@__crt_stdio_output@@@2@@__crt_stdio_output@@AEAA_NXZ 00000001803ca714     libucrt:output.obj
 0004:00003720       $pdata$?state_case_type@?$output_processor@DV?$string_output_adapter@D@__crt_stdio_output@@V?$standard_base@DV?$string_output_adapter@D@__crt_stdio_output@@@2@@__crt_stdio_output@@AEAA_NXZ 00000001803ca720     libucrt:output.obj
 0004:0000372c       $pdata$?state_case_type@?$output_processor@_WV?$stream_output_adapter@_W@__crt_stdio_output@@V?$standard_base@_WV?$stream_output_adapter@_W@__crt_stdio_output@@@2@@__crt_stdio_output@@AEAA_NXZ 00000001803ca72c     libucrt:output.obj
 0004:00003738       $pdata$?state_case_type@?$output_processor@_WV?$string_output_adapter@_W@__crt_stdio_output@@V?$standard_base@_WV?$string_output_adapter@_W@__crt_stdio_output@@@2@@__crt_stdio_output@@AEAA_NXZ 00000001803ca738     libucrt:output.obj
 0004:00003744       $pdata$?type_case_Z@?$output_processor@DV?$stream_output_adapter@D@__crt_stdio_output@@V?$standard_base@DV?$stream_output_adapter@D@__crt_stdio_output@@@2@@__crt_stdio_output@@AEAA_NXZ 00000001803ca744     libucrt:output.obj
 0004:00003744       $pdata$?type_case_Z@?$output_processor@DV?$string_output_adapter@D@__crt_stdio_output@@V?$standard_base@DV?$string_output_adapter@D@__crt_stdio_output@@@2@@__crt_stdio_output@@AEAA_NXZ 00000001803ca744     libucrt:output.obj
 0004:00003750       $pdata$?type_case_Z@?$output_processor@_WV?$stream_output_adapter@_W@__crt_stdio_output@@V?$standard_base@_WV?$stream_output_adapter@_W@__crt_stdio_output@@@2@@__crt_stdio_output@@AEAA_NXZ 00000001803ca750     libucrt:output.obj
 0004:00003750       $pdata$?type_case_Z@?$output_processor@_WV?$string_output_adapter@_W@__crt_stdio_output@@V?$standard_base@_WV?$string_output_adapter@_W@__crt_stdio_output@@@2@@__crt_stdio_output@@AEAA_NXZ 00000001803ca750     libucrt:output.obj
 0004:0000375c       $pdata$?type_case_a@?$output_processor@DV?$stream_output_adapter@D@__crt_stdio_output@@V?$standard_base@DV?$stream_output_adapter@D@__crt_stdio_output@@@2@@__crt_stdio_output@@AEAA_NXZ 00000001803ca75c     libucrt:output.obj
 0004:0000375c       $pdata$?type_case_a@?$output_processor@DV?$string_output_adapter@D@__crt_stdio_output@@V?$standard_base@DV?$string_output_adapter@D@__crt_stdio_output@@@2@@__crt_stdio_output@@AEAA_NXZ 00000001803ca75c     libucrt:output.obj
 0004:00003768       $pdata$?type_case_a@?$output_processor@_WV?$stream_output_adapter@_W@__crt_stdio_output@@V?$standard_base@_WV?$stream_output_adapter@_W@__crt_stdio_output@@@2@@__crt_stdio_output@@AEAA_NXZ 00000001803ca768     libucrt:output.obj
 0004:00003768       $pdata$?type_case_a@?$output_processor@_WV?$string_output_adapter@_W@__crt_stdio_output@@V?$standard_base@_WV?$string_output_adapter@_W@__crt_stdio_output@@@2@@__crt_stdio_output@@AEAA_NXZ 00000001803ca768     libucrt:output.obj
 0004:00003774       $pdata$?type_case_c_tchar@?$output_processor@DV?$stream_output_adapter@D@__crt_stdio_output@@V?$standard_base@DV?$stream_output_adapter@D@__crt_stdio_output@@@2@@__crt_stdio_output@@AEAA_ND@Z 00000001803ca774     libucrt:output.obj
 0004:00003774       $pdata$?type_case_c_tchar@?$output_processor@DV?$string_output_adapter@D@__crt_stdio_output@@V?$standard_base@DV?$string_output_adapter@D@__crt_stdio_output@@@2@@__crt_stdio_output@@AEAA_ND@Z 00000001803ca774     libucrt:output.obj
 0004:00003780       $pdata$?type_case_c_tchar@?$output_processor@_WV?$string_output_adapter@_W@__crt_stdio_output@@V?$standard_base@_WV?$string_output_adapter@_W@__crt_stdio_output@@@2@@__crt_stdio_output@@AEAA_N_W@Z 00000001803ca780     libucrt:output.obj
 0004:00003780       $pdata$?type_case_c_tchar@?$output_processor@_WV?$stream_output_adapter@_W@__crt_stdio_output@@V?$standard_base@_WV?$stream_output_adapter@_W@__crt_stdio_output@@@2@@__crt_stdio_output@@AEAA_N_W@Z 00000001803ca780     libucrt:output.obj
 0004:0000378c       $pdata$?type_case_integer@?$output_processor@DV?$stream_output_adapter@D@__crt_stdio_output@@V?$standard_base@DV?$stream_output_adapter@D@__crt_stdio_output@@@2@@__crt_stdio_output@@AEAA_NI_N@Z 00000001803ca78c     libucrt:output.obj
 0004:0000378c       $pdata$?type_case_integer@?$output_processor@_WV?$string_output_adapter@_W@__crt_stdio_output@@V?$standard_base@_WV?$string_output_adapter@_W@__crt_stdio_output@@@2@@__crt_stdio_output@@AEAA_NI_N@Z 00000001803ca78c     libucrt:output.obj
 0004:0000378c       $pdata$?type_case_integer@?$output_processor@DV?$string_output_adapter@D@__crt_stdio_output@@V?$standard_base@DV?$string_output_adapter@D@__crt_stdio_output@@@2@@__crt_stdio_output@@AEAA_NI_N@Z 00000001803ca78c     libucrt:output.obj
 0004:0000378c       $pdata$?type_case_integer@?$output_processor@_WV?$stream_output_adapter@_W@__crt_stdio_output@@V?$standard_base@_WV?$stream_output_adapter@_W@__crt_stdio_output@@@2@@__crt_stdio_output@@AEAA_NI_N@Z 00000001803ca78c     libucrt:output.obj
 0004:00003798       $pdata$?type_case_n@?$output_processor@DV?$string_output_adapter@D@__crt_stdio_output@@V?$standard_base@DV?$string_output_adapter@D@__crt_stdio_output@@@2@@__crt_stdio_output@@AEAA_NXZ 00000001803ca798     libucrt:output.obj
 0004:00003798       $pdata$?type_case_n@?$output_processor@_WV?$stream_output_adapter@_W@__crt_stdio_output@@V?$standard_base@_WV?$stream_output_adapter@_W@__crt_stdio_output@@@2@@__crt_stdio_output@@AEAA_NXZ 00000001803ca798     libucrt:output.obj
 0004:00003798       $pdata$?type_case_n@?$output_processor@_WV?$string_output_adapter@_W@__crt_stdio_output@@V?$standard_base@_WV?$string_output_adapter@_W@__crt_stdio_output@@@2@@__crt_stdio_output@@AEAA_NXZ 00000001803ca798     libucrt:output.obj
 0004:00003798       $pdata$?type_case_n@?$output_processor@DV?$stream_output_adapter@D@__crt_stdio_output@@V?$standard_base@DV?$stream_output_adapter@D@__crt_stdio_output@@@2@@__crt_stdio_output@@AEAA_NXZ 00000001803ca798     libucrt:output.obj
 0004:000037a4       $pdata$?type_case_s@?$output_processor@DV?$stream_output_adapter@D@__crt_stdio_output@@V?$standard_base@DV?$stream_output_adapter@D@__crt_stdio_output@@@2@@__crt_stdio_output@@AEAA_NXZ 00000001803ca7a4     libucrt:output.obj
 0004:000037a4       $pdata$?type_case_s@?$output_processor@DV?$string_output_adapter@D@__crt_stdio_output@@V?$standard_base@DV?$string_output_adapter@D@__crt_stdio_output@@@2@@__crt_stdio_output@@AEAA_NXZ 00000001803ca7a4     libucrt:output.obj
 0004:000037b0       $pdata$?type_case_s@?$output_processor@_WV?$stream_output_adapter@_W@__crt_stdio_output@@V?$standard_base@_WV?$stream_output_adapter@_W@__crt_stdio_output@@@2@@__crt_stdio_output@@AEAA_NXZ 00000001803ca7b0     libucrt:output.obj
 0004:000037b0       $pdata$?type_case_s@?$output_processor@_WV?$string_output_adapter@_W@__crt_stdio_output@@V?$standard_base@_WV?$string_output_adapter@_W@__crt_stdio_output@@@2@@__crt_stdio_output@@AEAA_NXZ 00000001803ca7b0     libucrt:output.obj
 0004:000037bc       $pdata$?validate_stream_is_ansi_if_required@?$__acrt_stdio_char_traits@D@@SA_NQEAU_iobuf@@@Z 00000001803ca7bc     libucrt:output.obj
 0004:000037c8       $pdata$?write_stored_string_tchar@?$output_processor@DV?$stream_output_adapter@D@__crt_stdio_output@@V?$standard_base@DV?$stream_output_adapter@D@__crt_stdio_output@@@2@@__crt_stdio_output@@AEAA_ND@Z 00000001803ca7c8     libucrt:output.obj
 0004:000037d4       $pdata$?write_stored_string_tchar@?$output_processor@DV?$string_output_adapter@D@__crt_stdio_output@@V?$standard_base@DV?$string_output_adapter@D@__crt_stdio_output@@@2@@__crt_stdio_output@@AEAA_ND@Z 00000001803ca7d4     libucrt:output.obj
 0004:000037e0       $pdata$?write_stored_string_tchar@?$output_processor@_WV?$stream_output_adapter@_W@__crt_stdio_output@@V?$standard_base@_WV?$stream_output_adapter@_W@__crt_stdio_output@@@2@@__crt_stdio_output@@AEAA_N_W@Z 00000001803ca7e0     libucrt:output.obj
 0004:000037ec       $pdata$?write_stored_string_tchar@?$output_processor@_WV?$string_output_adapter@_W@__crt_stdio_output@@V?$standard_base@_WV?$string_output_adapter@_W@__crt_stdio_output@@@2@@__crt_stdio_output@@AEAA_N_W@Z 00000001803ca7ec     libucrt:output.obj
 0004:000037f8       $pdata$?write_string@?$stream_output_adapter@D@__crt_stdio_output@@QEBAXQEBDHQEAH1@Z 00000001803ca7f8     libucrt:output.obj
 0004:00003804       $pdata$?write_string@?$stream_output_adapter@_W@__crt_stdio_output@@QEBAXQEB_WHQEAH1@Z 00000001803ca804     libucrt:output.obj
 0004:00003810       $pdata$?write_string@?$string_output_adapter@D@__crt_stdio_output@@QEBAXQEBDHQEAH1@Z 00000001803ca810     libucrt:output.obj
 0004:0000381c       $pdata$?write_string@?$string_output_adapter@_W@__crt_stdio_output@@QEBAXQEB_WHQEAH1@Z 00000001803ca81c     libucrt:output.obj
 0004:00003828       $pdata$__stdio_common_vfprintf 00000001803ca828     libucrt:output.obj
 0004:00003834       $pdata$__stdio_common_vfwprintf 00000001803ca834     libucrt:output.obj
 0004:00003840       $pdata$__stdio_common_vsprintf 00000001803ca840     libucrt:output.obj
 0004:0000384c       $pdata$__stdio_common_vswprintf 00000001803ca84c     libucrt:output.obj
 0004:00003858       $pdata$_stricmp            00000001803ca858     libucrt:stricmp.obj
 0004:00003864       $pdata$_stricmp_l          00000001803ca864     libucrt:stricmp.obj
 0004:00003870       $pdata$??$common_assert_to_message_box@_W@@YAXQEB_W0IQEAX@Z 00000001803ca870     libucrt:assert.obj
 0004:0000387c       $pdata$??$common_assert_to_message_box_build_string@_W@@YAXQEA_W_KQEB_W2IQEAX@Z 00000001803ca87c     libucrt:assert.obj
 0004:00003888       $pdata$??$common_assert_to_stderr@_W@@YAXQEB_W0I@Z 00000001803ca888     libucrt:assert.obj
 0004:00003894       $pdata$_wassert            00000001803ca894     libucrt:assert.obj
 0004:000038a0       $pdata$fwprintf            00000001803ca8a0     libucrt:assert.obj
 0004:000038ac       $pdata$swprintf            00000001803ca8ac     libucrt:assert.obj
 0004:000038b8       $pdata$__acrt_errno_map_os_error 00000001803ca8b8     libucrt:errno.obj
 0004:000038c4       $pdata$__doserrno          00000001803ca8c4     libucrt:errno.obj
 0004:000038d0       $pdata$_errno              00000001803ca8d0     libucrt:errno.obj
 0004:000038dc       $pdata$?common_exit@@YAXHW4_crt_exit_cleanup_mode@@W4_crt_exit_return_mode@@@Z 00000001803ca8dc     libucrt:exit.obj
 0004:000038e8       $pdata$?exit_or_terminate_process@@YAXI@Z 00000001803ca8e8     libucrt:exit.obj
 0004:000038f4       $pdata$?try_cor_exit_process@@YAXI@Z 00000001803ca8f4     libucrt:exit.obj
 0004:00003900       $pdata$__acrt_initialize_stdio 00000001803ca900     libucrt:_file.obj
 0004:0000390c       $pdata$__acrt_uninitialize_stdio 00000001803ca90c     libucrt:_file.obj
 0004:00003918       $pdata$??$parse_integer@KV?$c_string_character_source@D@__crt_strtox@@@__crt_strtox@@YAKQEAU__crt_locale_pointers@@V?$c_string_character_source@D@0@H_N@Z 00000001803ca918     libucrt:strtox.obj
 0004:00003924       $pdata$??$parse_integer@KV?$c_string_character_source@_W@__crt_strtox@@@__crt_strtox@@YAKQEAU__crt_locale_pointers@@V?$c_string_character_source@_W@0@H_N@Z 00000001803ca924     libucrt:strtox.obj
 0004:00003930       $pdata$strtol              00000001803ca930     libucrt:strtox.obj
 0004:0000393c       $pdata$strtoul             00000001803ca93c     libucrt:strtox.obj
 0004:00003948       $pdata$wcstol              00000001803ca948     libucrt:strtox.obj
 0004:00003960       $pdata$atol                00000001803ca960     libucrt:atox.obj
 0004:00003960       $pdata$atoi                00000001803ca960     libucrt:atox.obj
 0004:0000396c       $pdata$??$common_getenv@D@@YAPEADQEBD@Z 00000001803ca96c     libucrt:getenv.obj
 0004:00003978       $pdata$??$common_getenv_nolock@D@@YAPEADQEBD@Z 00000001803ca978     libucrt:getenv.obj
 0004:00003984       $pdata$??$common_getenv_s@D@@YAHQEA_KQEAD_KQEBD@Z 00000001803ca984     libucrt:getenv.obj
 0004:00003990       $pdata$??$?RV<lambda_c36588078e9f5dfd39652860aa6b3aaf>@@AEAV<lambda_ec61778202f4f5fc7e7711acc23c3bca>@@V<lambda_dc9d2797ccde5d239b4a0efae8ebd7db>@@@?$__crt_seh_guarded_call@P6AXH@Z@@QEAAP6AXH@Z$$QEAV<lambda_c36588078e9f5dfd39652860aa6b3aaf>@@AEAV<lambda_ec61778202f4f5fc7e7711acc23c3bca>@@$$QEAV<lambda_dc9d2797ccde5d239b4a0efae8ebd7db>@@@Z 00000001803ca990     libucrt:signal.obj
 0004:0000399c       $pdata$?ctrlevent_capture@@YAHK@Z 00000001803ca99c     libucrt:signal.obj
 0004:000039a8       $pdata$__acrt_get_sigabrt_handler 00000001803ca9a8     libucrt:signal.obj
 0004:000039b4       $pdata$raise               00000001803ca9b4     libucrt:signal.obj
 0004:000039c0       $pdata$signal              00000001803ca9c0     libucrt:signal.obj
 0004:000039cc       $pdata$_strnicmp           00000001803ca9cc     libucrt:strnicmp.obj
 0004:000039d8       $pdata$_strnicmp_l         00000001803ca9d8     libucrt:strnicmp.obj
 0004:000039e4       $pdata$fputc               00000001803ca9e4     libucrt:fputc.obj
 0004:000039f0       $pdata$??$?RV<lambda_25e01c9ba3607ae47bf7ea803dd53646>@@AEAV<lambda_55f9cbce55698c0319f95c01c080475b>@@V<lambda_1e572b46264c157efb34a6cfecbbfc9c>@@@?$__crt_seh_guarded_call@H@@QEAAH$$QEAV<lambda_25e01c9ba3607ae47bf7ea803dd53646>@@AEAV<lambda_55f9cbce55698c0319f95c01c080475b>@@$$QEAV<lambda_1e572b46264c157efb34a6cfecbbfc9c>@@@Z 00000001803ca9f0     libucrt:puts.obj
 0004:000039fc       $pdata$??R<lambda_55f9cbce55698c0319f95c01c080475b>@@QEBAHXZ 00000001803ca9fc     libucrt:puts.obj
 0004:00003a08       $pdata$puts                00000001803caa08     libucrt:puts.obj
 0004:00003a14       $pdata$??$common_fgets@D@@YAPEADQEADHV__crt_stdio_stream@@@Z 00000001803caa14     libucrt:fgets.obj
 0004:00003a20       $pdata$??$?RV<lambda_a81aa23bb2c9577c1e55b9d0b57d9de4>@@AEAV<lambda_9a20e10065b92b5193c3597a66cba9d4>@@V<lambda_cb3a421ff86d8a5f008440ee6b28fa9c>@@@?$__crt_seh_guarded_call@H@@QEAAH$$QEAV<lambda_a81aa23bb2c9577c1e55b9d0b57d9de4>@@AEAV<lambda_9a20e10065b92b5193c3597a66cba9d4>@@$$QEAV<lambda_cb3a421ff86d8a5f008440ee6b28fa9c>@@@Z 00000001803caa20     libucrt:fputs.obj
 0004:00003a2c       $pdata$??R<lambda_9a20e10065b92b5193c3597a66cba9d4>@@QEBAHXZ 00000001803caa2c     libucrt:fputs.obj
 0004:00003a38       $pdata$fputs               00000001803caa38     libucrt:fputs.obj
 0004:00003a44       $pdata$?_isindst_nolock@@YAHQEAUtm@@@Z 00000001803caa44     libucrt:tzset.obj
 0004:00003a50       $pdata$?cvtdate@@YAXW4transition_type@?A0x1b14ceb2@@W4date_type@2@HHHHHHHHH@Z 00000001803caa50     libucrt:tzset.obj
 0004:00003a5c       $pdata$?tzset_from_environment_nolock@@YAXPEAD@Z 00000001803caa5c     libucrt:tzset.obj
 0004:00003a68       $pdata$?tzset_from_system_nolock@@YAXXZ 00000001803caa68     libucrt:tzset.obj
 0004:00003a74       $pdata$?tzset_nolock@@YAXXZ 00000001803caa74     libucrt:tzset.obj
 0004:00003a80       $pdata$__tzset             00000001803caa80     libucrt:tzset.obj
 0004:00003a8c       $pdata$_isindst            00000001803caa8c     libucrt:tzset.obj
 0004:00003a98       $pdata$_tzset              00000001803caa98     libucrt:tzset.obj
 0004:00003aa4       $pdata$__acrt_call_reportfault 00000001803caaa4     libucrt:invalid_parameter.obj
 0004:00003ab0       $pdata$_invalid_parameter  00000001803caab0     libucrt:invalid_parameter.obj
 0004:00003abc       $pdata$_invalid_parameter_noinfo 00000001803caabc     libucrt:invalid_parameter.obj
 0004:00003ac8       $pdata$_invoke_watson      00000001803caac8     libucrt:invalid_parameter.obj
 0004:00003ad4       $pdata$abort               00000001803caad4     libucrt:abort.obj
 0004:00003ae0       $pdata$??$common_find_first_wide@U_wfinddata64i32_t@@@@YA_JQEB_WQEAU_wfinddata64i32_t@@@Z 00000001803caae0     libucrt:findfile.obj
 0004:00003aec       $pdata$??$common_find_next_wide@U_wfinddata64i32_t@@@@YAH_JQEAU_wfinddata64i32_t@@@Z 00000001803caaec     libucrt:findfile.obj
 0004:00003af8       $pdata$??$convert_file_time_to_time_t@_J@@YA_JAEBU_FILETIME@@@Z 00000001803caaf8     libucrt:findfile.obj
 0004:00003b04       $pdata$??$copy_wide_to_narrow_find_data@U_wfinddata64i32_t@@U_finddata64i32_t@@@@YA_NAEBU_wfinddata64i32_t@@AEAU_finddata64i32_t@@@Z 00000001803cab04     libucrt:findfile.obj
 0004:00003b10       $pdata$_findclose          00000001803cab10     libucrt:findfile.obj
 0004:00003b1c       $pdata$_findfirst64i32     00000001803cab1c     libucrt:findfile.obj
 0004:00003b28       $pdata$_findnext64i32      00000001803cab28     libucrt:findfile.obj
 0004:00003b34       $pdata$iscntrl             00000001803cab34     libucrt:_ctype.obj
 0004:00003b40       $pdata$isdigit             00000001803cab40     libucrt:_ctype.obj
 0004:00003b4c       $pdata$isspace             00000001803cab4c     libucrt:_ctype.obj
 0004:00003b58       $pdata$??$?RV<lambda_bfedae4ebbf01fab1bb6dcc6a9e276e0>@@AEAV<lambda_2fe9b910cf3cbf4a0ab98a02ba45b3ec>@@V<lambda_237c231691f317818eb88cc1d5d642d6>@@@?$__crt_seh_guarded_call@H@@QEAAH$$QEAV<lambda_bfedae4ebbf01fab1bb6dcc6a9e276e0>@@AEAV<lambda_2fe9b910cf3cbf4a0ab98a02ba45b3ec>@@$$QEAV<lambda_237c231691f317818eb88cc1d5d642d6>@@@Z 00000001803cab58     libucrt:close.obj
 0004:00003b64       $pdata$_close              00000001803cab64     libucrt:close.obj
 0004:00003b70       $pdata$_close_nolock       00000001803cab70     libucrt:close.obj
 0004:00003b7c       $pdata$_fileno             00000001803cab7c     libucrt:fileno.obj
 0004:00003b88       $pdata$__acrt_lowio_create_handle_array 00000001803cab88     libucrt:osfinfo.obj
 0004:00003b94       $pdata$__acrt_lowio_destroy_handle_array 00000001803cab94     libucrt:osfinfo.obj
 0004:00003ba0       $pdata$__acrt_lowio_ensure_fh_exists 00000001803caba0     libucrt:osfinfo.obj
 0004:00003bac       $pdata$__acrt_lowio_set_os_handle 00000001803cabac     libucrt:osfinfo.obj
 0004:00003bb8       $pdata$_alloc_osfhnd       00000001803cabb8     libucrt:osfinfo.obj
 0004:00003bc4       $pdata$_free_osfhnd        00000001803cabc4     libucrt:osfinfo.obj
 0004:00003bd0       $pdata$_get_osfhandle      00000001803cabd0     libucrt:osfinfo.obj
 0004:00003bdc       $pdata$__acrt_stdio_flush_nolock 00000001803cabdc     libucrt:fflush.obj
 0004:00003be8       $pdata$_fflush_nolock      00000001803cabe8     libucrt:fflush.obj
 0004:00003bf4       $pdata$common_flush_all    00000001803cabf4     libucrt:fflush.obj
 0004:00003c00       $pdata$fflush              00000001803cac00     libucrt:fflush.obj
 0004:00003c0c       $pdata$??$common_fsopen@D@@YAPEAU_iobuf@@QEBD0H@Z 00000001803cac0c     libucrt:fopen.obj
 0004:00003c18       $pdata$_fclose_nolock      00000001803cac18     libucrt:fclose.obj
 0004:00003c24       $pdata$fclose              00000001803cac24     libucrt:fclose.obj
 0004:00003c30       $pdata$??$common_stat@U_stat64@@@@YAHQEB_WQEAU_stat64@@@Z 00000001803cac30     libucrt:stat.obj
 0004:00003c3c       $pdata$??$common_stat_handle_file_opened@U_stat64@@@@YA_NQEB_WHQEAXAEAU_stat64@@@Z 00000001803cac3c     libucrt:stat.obj
 0004:00003c48       $pdata$??$convert_large_integer_time_to_time_t@_J@@YA_JT_LARGE_INTEGER@@_J@Z 00000001803cac48     libucrt:stat.obj
 0004:00003c54       $pdata$?convert_to_stat_mode@@YAGHQEB_W@Z 00000001803cac54     libucrt:stat.obj
 0004:00003c60       $pdata$?get_drive_number_from_path@@YA_NQEB_WAEAH@Z 00000001803cac60     libucrt:stat.obj
 0004:00003c6c       $pdata$?is_usable_drive_or_unc_root@@YA_NQEB_W@Z 00000001803cac6c     libucrt:stat.obj
 0004:00003c78       $pdata$_stat64             00000001803cac78     libucrt:stat.obj
 0004:00003c84       $pdata$?internal_islower_l@@YA_NHQEAU__crt_locale_pointers@@@Z 00000001803cac84     libucrt:tolower_toupper.obj
 0004:00003c90       $pdata$?internal_isupper_l@@YA_NHQEAU__crt_locale_pointers@@@Z 00000001803cac90     libucrt:tolower_toupper.obj
 0004:00003c9c       $pdata$_tolower_l          00000001803cac9c     libucrt:tolower_toupper.obj
 0004:00003ca8       $pdata$_toupper_l          00000001803caca8     libucrt:tolower_toupper.obj
 0004:00003cb4       $pdata$tolower             00000001803cacb4     libucrt:tolower_toupper.obj
 0004:00003cc0       $pdata$toupper             00000001803cacc0     libucrt:tolower_toupper.obj
 0004:00003ccc       $pdata$_fwrite_nolock      00000001803caccc     libucrt:fwrite.obj
 0004:00003cd8       $pdata$strnlen             00000001803cacd8     libucrt:strnlen.obj
 0004:00003ce4       $pdata$wcsnlen             00000001803cace4     libucrt:strnlen.obj
 0004:00003cf0       $pdata$strerror_s          00000001803cacf0     libucrt:strerror.obj
 0004:00003cfc       $pdata$__fpe_flt_rounds    00000001803cacfc     libucrt:fegetround.obj
 0004:00003d08       $pdata$?shortsort@@YAXPEAD0_KP6AHPEBX2@Z@Z 00000001803cad08     libucrt:qsort.obj
 0004:00003d14       $pdata$2$?shortsort@@YAXPEAD0_KP6AHPEBX2@Z@Z 00000001803cad14     libucrt:qsort.obj
 0004:00003d20       $pdata$3$?shortsort@@YAXPEAD0_KP6AHPEBX2@Z@Z 00000001803cad20     libucrt:qsort.obj
 0004:00003d2c       $pdata$qsort               00000001803cad2c     libucrt:qsort.obj
 0004:00003d38       $pdata$4$qsort             00000001803cad38     libucrt:qsort.obj
 0004:00003d44       $pdata$5$qsort             00000001803cad44     libucrt:qsort.obj
 0004:00003d50       $pdata$_callnewh           00000001803cad50     libucrt:new_handler.obj
 0004:00003d5c       $pdata$_query_new_handler  00000001803cad5c     libucrt:new_handler.obj
 0004:00003d68       $pdata$_seh_filter_exe     00000001803cad68     libucrt:exception_filter.obj
 0004:00003d74       $pdata$??$parse_command_line@D@@YAXPEADPEAPEAD0PEA_K2@Z 00000001803cad74     libucrt:argv_parsing.obj
 0004:00003d80       $pdata$__acrt_allocate_buffer_for_argv 00000001803cad80     libucrt:argv_parsing.obj
 0004:00003d8c       $pdata$_configure_narrow_argv 00000001803cad8c     libucrt:argv_parsing.obj
 0004:00003d98       $pdata$??$common_get_or_create_environment_nolock@D@@YAPEAPEADXZ 00000001803cad98     libucrt:environment_initialization.obj
 0004:00003da4       $pdata$??$common_get_or_create_environment_nolock@_W@@YAPEAPEA_WXZ 00000001803cada4     libucrt:environment_initialization.obj
 0004:00003db0       $pdata$??$common_initialize_environment_nolock@D@@YAHXZ 00000001803cadb0     libucrt:environment_initialization.obj
 0004:00003dbc       $pdata$??$common_initialize_environment_nolock@_W@@YAHXZ 00000001803cadbc     libucrt:environment_initialization.obj
 0004:00003dc8       $pdata$??$create_environment@D@@YAQEAPEADQEAD@Z 00000001803cadc8     libucrt:environment_initialization.obj
 0004:00003dd4       $pdata$??$create_environment@_W@@YAQEAPEA_WQEA_W@Z 00000001803cadd4     libucrt:environment_initialization.obj
 0004:00003de0       $pdata$??$free_environment@D@@YAXQEAPEAD@Z 00000001803cade0     libucrt:environment_initialization.obj
 0004:00003de0       $pdata$??$free_environment@_W@@YAXQEAPEA_W@Z 00000001803cade0     libucrt:environment_initialization.obj
 0004:00003dec       $pdata$??$initialize_environment_by_cloning_nolock@D@@YAHXZ 00000001803cadec     libucrt:environment_initialization.obj
 0004:00003df8       $pdata$??$initialize_environment_by_cloning_nolock@_W@@YAHXZ 00000001803cadf8     libucrt:environment_initialization.obj
 0004:00003e04       $pdata$??$uninitialize_environment_internal@D@@YAXAEAPEAPEAD@Z 00000001803cae04     libucrt:environment_initialization.obj
 0004:00003e10       $pdata$??$uninitialize_environment_internal@_W@@YAXAEAPEAPEA_W@Z 00000001803cae10     libucrt:environment_initialization.obj
 0004:00003e1c       $pdata$__dcrt_uninitialize_environments_nolock 00000001803cae1c     libucrt:environment_initialization.obj
 0004:00003e28       $pdata$??$?RV<lambda_b8c45f8f788dd370798f47cfe8ac3a86>@@AEAV<lambda_4e60a939b0d047cfe11ddc22648dfba9>@@V<lambda_332c3edc96d0294ec56c57d38c1cdfd5>@@@?$__crt_seh_guarded_call@H@@QEAAH$$QEAV<lambda_b8c45f8f788dd370798f47cfe8ac3a86>@@AEAV<lambda_4e60a939b0d047cfe11ddc22648dfba9>@@$$QEAV<lambda_332c3edc96d0294ec56c57d38c1cdfd5>@@@Z 00000001803cae28     libucrt:onexit.obj
 0004:00003e34       $pdata$??$?RV<lambda_e24bbb7b643b32fcea6fa61b31d4c984>@@AEAV<lambda_275893d493268fdec8709772e3fcec0e>@@V<lambda_9d71df4d7cf3f480f8d633942495c3b0>@@@?$__crt_seh_guarded_call@H@@QEAAH$$QEAV<lambda_e24bbb7b643b32fcea6fa61b31d4c984>@@AEAV<lambda_275893d493268fdec8709772e3fcec0e>@@$$QEAV<lambda_9d71df4d7cf3f480f8d633942495c3b0>@@@Z 00000001803cae34     libucrt:onexit.obj
 0004:00003e40       $pdata$??R<lambda_4e60a939b0d047cfe11ddc22648dfba9>@@QEBAHXZ 00000001803cae40     libucrt:onexit.obj
 0004:00003e4c       $pdata$_execute_onexit_table 00000001803cae4c     libucrt:onexit.obj
 0004:00003e58       $pdata$_register_onexit_function 00000001803cae58     libucrt:onexit.obj
 0004:00003e64       $pdata$initialize_c        00000001803cae64     libucrt:initialization.obj
 0004:00003e70       $pdata$uninitialize_environment 00000001803cae70     libucrt:initialization.obj
 0004:00003e7c       $pdata$initialize_pointers 00000001803cae7c     libucrt:initialization.obj
 0004:00003e88       $pdata$uninitialize_allocated_memory 00000001803cae88     libucrt:initialization.obj
 0004:00003e94       $pdata$__acrt_thread_attach 00000001803cae94     libucrt:initialization.obj
 0004:00003ea0       $pdata$__acrt_thread_detach 00000001803caea0     libucrt:initialization.obj
 0004:00003eac       $pdata$__acrt_uninitialize_critical 00000001803caeac     libucrt:initialization.obj
 0004:00003eb8       $pdata$_initterm           00000001803caeb8     libucrt:initterm.obj
 0004:00003ec4       $pdata$_initterm_e         00000001803caec4     libucrt:initterm.obj
 0004:00003ed0       $pdata$terminate           00000001803caed0     libucrt:terminate.obj
 0004:00003edc       $pdata$_strdup             00000001803caedc     libucrt:strdup.obj
 0004:00003ee8       $pdata$??$common_putenv@D@@YAHQEBD0@Z 00000001803caee8     libucrt:putenv.obj
 0004:00003ef4       $pdata$??$common_putenv_nolock@D@@YAHQEBD0@Z 00000001803caef4     libucrt:putenv.obj
 0004:00003f00       $pdata$??$create_environment_string@D@@YAPEADQEBD0@Z 00000001803caf00     libucrt:putenv.obj
 0004:00003f0c       $pdata$??$set_variable_in_other_environment@D@@YA_NQEBD0@Z 00000001803caf0c     libucrt:putenv.obj
 0004:00003f18       $pdata$??$common_getdcwd@D@@YAPEADHQEADHHQEBDH@Z 00000001803caf18     libucrt:getcwd.obj
 0004:00003f24       $pdata$??$common_getdcwd@_W@@YAPEA_WHQEA_WHHQEBDH@Z 00000001803caf24     libucrt:getcwd.obj
 0004:00003f30       $pdata$??$common_getdcwd_user_buffer@D@@YAPEADQEAD0I@Z 00000001803caf30     libucrt:getcwd.obj
 0004:00003f3c       $pdata$??$common_getdcwd_user_buffer@_W@@YAPEA_WQEA_W0I@Z 00000001803caf3c     libucrt:getcwd.obj
 0004:00003f48       $pdata$?is_valid_drive@@YAHI@Z 00000001803caf48     libucrt:getcwd.obj
 0004:00003f54       $pdata$_getcwd             00000001803caf54     libucrt:getcwd.obj
 0004:00003f60       $pdata$_wgetcwd            00000001803caf60     libucrt:getcwd.obj
 0004:00003f6c       $pdata$??$__acrt_stdio_parse_mode@D@@YA?AU__acrt_stdio_stream_mode@@QEBD@Z 00000001803caf6c     libucrt:fdopen.obj
 0004:00003f78       $pdata$strcpy_s            00000001803caf78     libucrt:strcpy_s.obj
 0004:00003f84       $pdata$_free_base          00000001803caf84     libucrt:free_base.obj
 0004:00003f90       $pdata$_malloc_base        00000001803caf90     libucrt:malloc_base.obj
 0004:00003f9c       $pdata$_calloc_base        00000001803caf9c     libucrt:calloc_base.obj
 0004:00003fa8       $pdata$_mbtowc_l           00000001803cafa8     libucrt:mbtowc.obj
 0004:00003fb4       $pdata$_wctomb_s_l         00000001803cafb4     libucrt:wctomb.obj
 0004:00003fc0       $pdata$wctomb_s            00000001803cafc0     libucrt:wctomb.obj
 0004:00003fcc       $pdata$??$?RV<lambda_46352004c1216016012b18bd6f87e700>@@AEAV<lambda_3bd07e1a1191394380780325891bf33f>@@V<lambda_334532d3f185bcaa59b5be82d7d22bff>@@@?$__crt_seh_guarded_call@X@@QEAAX$$QEAV<lambda_46352004c1216016012b18bd6f87e700>@@AEAV<lambda_3bd07e1a1191394380780325891bf33f>@@$$QEAV<lambda_334532d3f185bcaa59b5be82d7d22bff>@@@Z 00000001803cafcc     libucrt:per_thread_data.obj
 0004:00003fd8       $pdata$??$?RV<lambda_5e887d1dcbef67a5eb4283622ba103bf>@@AEAV<lambda_4466841279450cc726390878d4a41900>@@V<lambda_341c25c0346d94847f1f3c463c57e077>@@@?$__crt_seh_guarded_call@X@@QEAAX$$QEAV<lambda_5e887d1dcbef67a5eb4283622ba103bf>@@AEAV<lambda_4466841279450cc726390878d4a41900>@@$$QEAV<lambda_341c25c0346d94847f1f3c463c57e077>@@@Z 00000001803cafd8     libucrt:per_thread_data.obj
 0004:00003fe4       $pdata$??$?RV<lambda_72d1df2b273a38828b1ce30cbf4cdab5>@@AEAV<lambda_876a65b173b8412d3a47c70a915b0cf4>@@V<lambda_41932305e351933ebe8f8be3ed8bb5dc>@@@?$__crt_seh_guarded_call@X@@QEAAX$$QEAV<lambda_72d1df2b273a38828b1ce30cbf4cdab5>@@AEAV<lambda_876a65b173b8412d3a47c70a915b0cf4>@@$$QEAV<lambda_41932305e351933ebe8f8be3ed8bb5dc>@@@Z 00000001803cafe4     libucrt:per_thread_data.obj
 0004:00003ff0       $pdata$??$?RV<lambda_fb3a7dec4e47f37f22dae91bb15c9095>@@AEAV<lambda_698284760c8add0bfb0756c19673e34b>@@V<lambda_dfb8eca1e75fef3034a8fb18dd509707>@@@?$__crt_seh_guarded_call@X@@QEAAX$$QEAV<lambda_fb3a7dec4e47f37f22dae91bb15c9095>@@AEAV<lambda_698284760c8add0bfb0756c19673e34b>@@$$QEAV<lambda_dfb8eca1e75fef3034a8fb18dd509707>@@@Z 00000001803caff0     libucrt:per_thread_data.obj
 0004:00003ffc       $pdata$?construct_ptd_array@@YAXQEAU__acrt_ptd@@@Z 00000001803caffc     libucrt:per_thread_data.obj
 0004:00004008       $pdata$?destroy_fls@@YAXPEAX@Z 00000001803cb008     libucrt:per_thread_data.obj
 0004:00004014       $pdata$?destroy_ptd_array@@YAXQEAU__acrt_ptd@@@Z 00000001803cb014     libucrt:per_thread_data.obj
 0004:00004020       $pdata$?replace_current_thread_locale_nolock@@YAXQEAU__acrt_ptd@@QEAU__crt_locale_data@@@Z 00000001803cb020     libucrt:per_thread_data.obj
 0004:0000402c       $pdata$__acrt_freeptd      00000001803cb02c     libucrt:per_thread_data.obj
 0004:00004038       $pdata$__acrt_getptd       00000001803cb038     libucrt:per_thread_data.obj
 0004:00004044       $pdata$__acrt_getptd_noexit 00000001803cb044     libucrt:per_thread_data.obj
 0004:00004050       $pdata$__acrt_initialize_ptd 00000001803cb050     libucrt:per_thread_data.obj
 0004:0000405c       $pdata$__acrt_uninitialize_ptd 00000001803cb05c     libucrt:per_thread_data.obj
 0004:00004068       $pdata$__acrt_update_locale_info 00000001803cb068     libucrt:locale_update.obj
 0004:00004074       $pdata$__acrt_update_multibyte_info 00000001803cb074     libucrt:locale_update.obj
 0004:00004080       $pdata$?fp_format_a@@YAHQEBNPEAD_KQEAD2H_NIQEAU__crt_locale_pointers@@@Z 00000001803cb080     libucrt:cvt.obj
 0004:0000408c       $pdata$?fp_format_e@@YAHQEBNQEAD_K12H_NIQEAU__crt_locale_pointers@@@Z 00000001803cb08c     libucrt:cvt.obj
 0004:00004098       $pdata$?fp_format_e_internal@@YAHQEAD_KH_NIQEAU_strflt@@2QEAU__crt_locale_pointers@@@Z 00000001803cb098     libucrt:cvt.obj
 0004:000040a4       $pdata$?fp_format_f_internal@@YAHQEAD_KHQEAU_strflt@@_NQEAU__crt_locale_pointers@@@Z 00000001803cb0a4     libucrt:cvt.obj
 0004:000040b0       $pdata$?fp_format_g@@YAHQEBNQEAD_K12H_NIQEAU__crt_locale_pointers@@@Z 00000001803cb0b0     libucrt:cvt.obj
 0004:000040bc       $pdata$?fp_format_nan_or_infinity@@YAHW4__acrt_fp_class@@_NPEAD_K1@Z 00000001803cb0bc     libucrt:cvt.obj
 0004:000040c8       $pdata$__acrt_fp_format    00000001803cb0c8     libucrt:cvt.obj
 0004:000040d4       $pdata$_fputwc_nolock      00000001803cb0d4     libucrt:fputwc.obj
 0004:000040e0       $pdata$__acrt_stdio_begin_temporary_buffering_nolock 00000001803cb0e0     libucrt:_sftbuf.obj
 0004:000040ec       $pdata$__acrt_stdio_end_temporary_buffering_nolock 00000001803cb0ec     libucrt:_sftbuf.obj
 0004:000040f8       $pdata$__acrt_uninitialize_locale 00000001803cb0f8     libucrt:wsetlocale.obj
 0004:00004104       $pdata$?initialize_inherited_file_handles_nolock@@YAXXZ 00000001803cb104     libucrt:ioinit.obj
 0004:00004110       $pdata$?initialize_stdio_handles_nolock@@YAXXZ 00000001803cb110     libucrt:ioinit.obj
 0004:0000411c       $pdata$__acrt_initialize_lowio 00000001803cb11c     libucrt:ioinit.obj
 0004:00004128       $pdata$__acrt_uninitialize_lowio 00000001803cb128     libucrt:ioinit.obj
 0004:00004134       $pdata$??$common_xtox@K_W@@YAHKQEA_W_KI_N@Z 00000001803cb134     libucrt:xtoa.obj
 0004:00004140       $pdata$??$common_xtox_s@K_W@@YAHKQEA_W_KI_N@Z 00000001803cb140     libucrt:xtoa.obj
 0004:0000414c       $pdata$_itow_s             00000001803cb14c     libucrt:xtoa.obj
 0004:00004158       $pdata$_set_error_mode     00000001803cb158     libucrt:set_error_mode.obj
 0004:00004164       $pdata$wcscat_s            00000001803cb164     libucrt:wcscat_s.obj
 0004:00004170       $pdata$wcscpy_s            00000001803cb170     libucrt:wcscpy_s.obj
 0004:0000417c       $pdata$wcsncat_s           00000001803cb17c     libucrt:wcsncat_s.obj
 0004:00004188       $pdata$??$message_box_wait_thread@_W@@YAKQEAX@Z 00000001803cb188     libucrt:crtmbox.obj
 0004:00004194       $pdata$__acrt_show_wide_message_box 00000001803cb194     libucrt:crtmbox.obj
 0004:000041a0       $pdata$??$?RV<lambda_7a5ef57ff966f610505f1d28a3d40618>@@AEAV<lambda_b721fa326cdb32351d23dfa67958c160>@@V<lambda_5e0fb27672408a07956fe59e48ccb2aa>@@@?$__crt_seh_guarded_call@H@@QEAAH$$QEAV<lambda_7a5ef57ff966f610505f1d28a3d40618>@@AEAV<lambda_b721fa326cdb32351d23dfa67958c160>@@$$QEAV<lambda_5e0fb27672408a07956fe59e48ccb2aa>@@@Z 00000001803cb1a0     libucrt:setvbuf.obj
 0004:000041ac       $pdata$??R<lambda_b721fa326cdb32351d23dfa67958c160>@@QEBAHXZ 00000001803cb1ac     libucrt:setvbuf.obj
 0004:000041b8       $pdata$setvbuf             00000001803cb1b8     libucrt:setvbuf.obj
 0004:000041c4       $pdata$__acrt_initialize_locks 00000001803cb1c4     libucrt:locks.obj
 0004:000041d0       $pdata$__acrt_uninitialize_locks 00000001803cb1d0     libucrt:locks.obj
 0004:000041dc       $pdata$?try_get_function@@YAPEAXW4function_id@?A0x63058377@@QEBDQEBW4module_id@2@2@Z 00000001803cb1dc     libucrt:winapi_thunks.obj
 0004:000041e8       $pdata$__acrt_AreFileApisANSI 00000001803cb1e8     libucrt:winapi_thunks.obj
 0004:000041f4       $pdata$__acrt_CompareStringEx 00000001803cb1f4     libucrt:winapi_thunks.obj
 0004:00004200       $pdata$__acrt_FlsAlloc     00000001803cb200     libucrt:winapi_thunks.obj
 0004:0000420c       $pdata$__acrt_FlsFree      00000001803cb20c     libucrt:winapi_thunks.obj
 0004:00004218       $pdata$__acrt_FlsGetValue  00000001803cb218     libucrt:winapi_thunks.obj
 0004:00004224       $pdata$__acrt_FlsSetValue  00000001803cb224     libucrt:winapi_thunks.obj
 0004:00004230       $pdata$__acrt_GetFileInformationByHandleEx 00000001803cb230     libucrt:winapi_thunks.obj
 0004:0000423c       $pdata$__acrt_InitializeCriticalSectionEx 00000001803cb23c     libucrt:winapi_thunks.obj
 0004:00004248       $pdata$__acrt_LCMapStringEx 00000001803cb248     libucrt:winapi_thunks.obj
 0004:00004254       $pdata$__acrt_LocaleNameToLCID 00000001803cb254     libucrt:winapi_thunks.obj
 0004:00004260       $pdata$__acrt_MessageBoxW  00000001803cb260     libucrt:winapi_thunks.obj
 0004:0000426c       $pdata$__acrt_can_show_message_box 00000001803cb26c     libucrt:winapi_thunks.obj
 0004:00004278       $pdata$__acrt_get_parent_window 00000001803cb278     libucrt:winapi_thunks.obj
 0004:00004284       $pdata$__acrt_initialize_winapi_thunks 00000001803cb284     libucrt:winapi_thunks.obj
 0004:00004290       $pdata$__acrt_is_interactive 00000001803cb290     libucrt:winapi_thunks.obj
 0004:0000429c       $pdata$__acrt_is_packaged_app 00000001803cb29c     libucrt:winapi_thunks.obj
 0004:000042a8       $pdata$__acrt_uninitialize_winapi_thunks 00000001803cb2a8     libucrt:winapi_thunks.obj
 0004:000042b4       $pdata$_fcloseall          00000001803cb2b4     libucrt:closeall.obj
 0004:000042c0       $pdata$__acrt_stdio_free_buffer_nolock 00000001803cb2c0     libucrt:_freebuf.obj
 0004:000042cc       $pdata$__pctype_func       00000001803cb2cc     libucrt:ctype.obj
 0004:000042d8       $pdata$iswctype            00000001803cb2d8     libucrt:iswctype.obj
 0004:000042e4       $pdata$_isctype_l          00000001803cb2e4     libucrt:isctype.obj
 0004:000042f0       $pdata$_wcsnicoll          00000001803cb2f0     libucrt:wcsnicol.obj
 0004:000042fc       $pdata$_wcsnicoll_l        00000001803cb2fc     libucrt:wcsnicol.obj
 0004:00004308       $pdata$_strnicoll_l        00000001803cb308     libucrt:strnicol.obj
 0004:00004314       $pdata$_get_daylight       00000001803cb314     libucrt:timeset.obj
 0004:00004320       $pdata$_get_dstbias        00000001803cb320     libucrt:timeset.obj
 0004:0000432c       $pdata$_get_timezone       00000001803cb32c     libucrt:timeset.obj
 0004:00004338       $pdata$_realloc_base       00000001803cb338     libucrt:realloc_base.obj
 0004:00004344       $pdata$??$write_buffer_nolock@D@@YA_NDV__crt_stdio_stream@@@Z 00000001803cb344     libucrt:_flsbuf.obj
 0004:00004350       $pdata$??$write_buffer_nolock@_W@@YA_N_WV__crt_stdio_stream@@@Z 00000001803cb350     libucrt:_flsbuf.obj
 0004:0000435c       $pdata$__acrt_stdio_flush_and_write_narrow_nolock 00000001803cb35c     libucrt:_flsbuf.obj
 0004:00004368       $pdata$__acrt_stdio_flush_and_write_wide_nolock 00000001803cb368     libucrt:_flsbuf.obj
 0004:00004374       $pdata$_fgetc_nolock       00000001803cb374     libucrt:fgetc.obj
 0004:00004380       $pdata$strncpy_s           00000001803cb380     libucrt:strncpy_s.obj
 0004:0000438c       $pdata$___lc_codepage_func 00000001803cb38c     libucrt:initctype.obj
 0004:00004398       $pdata$__acrt_copy_path_to_wide_string 00000001803cb398     libucrt:string_utilities.obj
 0004:000043a4       $pdata$__acrt_copy_to_char 00000001803cb3a4     libucrt:string_utilities.obj
 0004:000043b0       $pdata$??$common_loctotime_t@_J@@YA_JHHHHHHH@Z 00000001803cb3b0     libucrt:loctotime.obj
 0004:000043bc       $pdata$_openfile           00000001803cb3bc     libucrt:openfile.obj
 0004:000043c8       $pdata$??$?RV<lambda_b521505b218e5242e90febf6bfebc422>@@AEAV<lambda_6978c1fb23f02e42e1d9e99668cc68aa>@@V<lambda_314360699dd331753a4119843814e9a7>@@@?$__crt_seh_guarded_call@H@@QEAAH$$QEAV<lambda_b521505b218e5242e90febf6bfebc422>@@AEAV<lambda_6978c1fb23f02e42e1d9e99668cc68aa>@@$$QEAV<lambda_314360699dd331753a4119843814e9a7>@@@Z 00000001803cb3c8     libucrt:commit.obj
 0004:000043d4       $pdata$_commit             00000001803cb3d4     libucrt:commit.obj
 0004:000043e0       $pdata$?write_double_translated_ansi_nolock@@YA?AUwrite_result@?A0x9c548279@@HQEBDI@Z 00000001803cb3e0     libucrt:write.obj
 0004:000043ec       $pdata$?write_text_ansi_nolock@@YA?AUwrite_result@?A0x9c548279@@HQEBDI@Z 00000001803cb3ec     libucrt:write.obj
 0004:000043f8       $pdata$?write_text_utf16le_nolock@@YA?AUwrite_result@?A0x9c548279@@HQEBDI@Z 00000001803cb3f8     libucrt:write.obj
 0004:00004404       $pdata$?write_text_utf8_nolock@@YA?AUwrite_result@?A0x9c548279@@HQEBDI@Z 00000001803cb404     libucrt:write.obj
 0004:00004410       $pdata$_write              00000001803cb410     libucrt:write.obj
 0004:0000441c       $pdata$_write_nolock       00000001803cb41c     libucrt:write.obj
 0004:00004428       $pdata$?__acrt_stdio_allocate_stream@@YA?AV__crt_stdio_stream@@XZ 00000001803cb428     libucrt:stream.obj
 0004:00004434       $pdata$?find_or_allocate_unused_stream_nolock@@YA?AV__crt_stdio_stream@@XZ 00000001803cb434     libucrt:stream.obj
 0004:00004440       $pdata$_getdrive           00000001803cb440     libucrt:drive.obj
 0004:0000444c       $pdata$??$common_fullpath_user_buffer@_W@@YAPEA_WQEA_WQEB_W_K@Z 00000001803cb44c     libucrt:fullpath.obj
 0004:00004458       $pdata$_wfullpath          00000001803cb458     libucrt:fullpath.obj
 0004:00004464       $pdata$_wcsicmp            00000001803cb464     libucrt:wcsicmp.obj
 0004:00004470       $pdata$_wcsicmp_l          00000001803cb470     libucrt:wcsicmp.obj
 0004:0000447c       $pdata$_isleadbyte_l       00000001803cb47c     libucrt:_wctype.obj
 0004:00004488       $pdata$?__acrt_LCMapStringA_stat@@YAHPEAU__crt_locale_pointers@@PEB_WKPEBDHPEADHHH@Z 00000001803cb488     libucrt:lcmapstringa.obj
 0004:00004494       $pdata$__acrt_LCMapStringA 00000001803cb494     libucrt:lcmapstringa.obj
 0004:000044a0       $pdata$??$common_lseek@_J@@YA_JH_JH@Z 00000001803cb4a0     libucrt:lseek.obj
 0004:000044ac       $pdata$??$common_lseek_nolock@_J@@YA_JH_JH@Z 00000001803cb4ac     libucrt:lseek.obj
 0004:000044b8       $pdata$??$translate_text_mode_nolock@_W@@YAHHQEA_W_K@Z 00000001803cb4b8     libucrt:read.obj
 0004:000044c4       $pdata$?translate_ansi_or_utf8_nolock@@YAHHQEAD_KQEA_W1@Z 00000001803cb4c4     libucrt:read.obj
 0004:000044d0       $pdata$_read               00000001803cb4d0     libucrt:read.obj
 0004:000044dc       $pdata$_read_nolock        00000001803cb4dc     libucrt:read.obj
 0004:000044e8       $pdata$??$common_refill_and_read_nolock@D@@YAHV__crt_stdio_stream@@@Z 00000001803cb4e8     libucrt:_filbuf.obj
 0004:000044f4       $pdata$_getfpcontrolword   00000001803cb4f4     libucrt:_fenvutils.obj
 0004:00004500       $pdata$_getfpstatusword    00000001803cb500     libucrt:_fenvutils.obj
 0004:0000450c       $pdata$_setfpstatusword    00000001803cb50c     libucrt:_fenvutils.obj
 0004:00004518       $pdata$??$common_expand_argv_wildcards@D@@YAHQEAPEADQEAPEAPEAD@Z 00000001803cb518     libucrt:argv_wildcards.obj
 0004:00004524       $pdata$??$copy_and_add_argument_to_buffer@D@@YAHQEBD0_KAEAV?$argument_list@D@?A0xca0879c4@@@Z 00000001803cb524     libucrt:argv_wildcards.obj
 0004:00004530       $pdata$??$expand_argument_wildcards@D@@YAHQEAD0AEAV?$argument_list@D@?A0xca0879c4@@@Z 00000001803cb530     libucrt:argv_wildcards.obj
 0004:0000453c       $pdata$?expand_if_necessary@?$argument_list@D@?A0xca0879c4@@AEAAHXZ 00000001803cb53c     libucrt:argv_wildcards.obj
 0004:00004548       $pdata$??$?RV<lambda_99476a1ad63dd22509b5d3e65b0ffc95>@@AEAV<lambda_ad1ced32f4ac17aa236e5ef05d6b3b7c>@@V<lambda_f7424dd8d45958661754dc4f2697e9c3>@@@?$__crt_seh_guarded_call@X@@QEAAX$$QEAV<lambda_99476a1ad63dd22509b5d3e65b0ffc95>@@AEAV<lambda_ad1ced32f4ac17aa236e5ef05d6b3b7c>@@$$QEAV<lambda_f7424dd8d45958661754dc4f2697e9c3>@@@Z 00000001803cb548     libucrt:mbctype.obj
 0004:00004554       $pdata$??R<lambda_ad1ced32f4ac17aa236e5ef05d6b3b7c>@@QEBAXXZ 00000001803cb554     libucrt:mbctype.obj
 0004:00004560       $pdata$?getSystemCP@@YAHH@Z 00000001803cb560     libucrt:mbctype.obj
 0004:0000456c       $pdata$?setSBCS@@YAXPEAU__crt_multibyte_data@@@Z 00000001803cb56c     libucrt:mbctype.obj
 0004:00004578       $pdata$?setSBUpLow@@YAXPEAU__crt_multibyte_data@@@Z 00000001803cb578     libucrt:mbctype.obj
 0004:00004584       $pdata$?setmbcp_internal@@YAHH_N@Z 00000001803cb584     libucrt:mbctype.obj
 0004:00004590       $pdata$__acrt_initialize_multibyte 00000001803cb590     libucrt:mbctype.obj
 0004:0000459c       $pdata$__acrt_update_thread_multibyte_data 00000001803cb59c     libucrt:mbctype.obj
 0004:000045a8       $pdata$_setmbcp_nolock     00000001803cb5a8     libucrt:mbctype.obj
 0004:000045b4       $pdata$?x_ismbbtype_l@@YAHPEAU__crt_locale_pointers@@IHH@Z 00000001803cb5b4     libucrt:ismbbyte.obj
 0004:000045c0       $pdata$__acrt_initialize_command_line 00000001803cb5c0     libucrt:argv_data.obj
 0004:000045cc       $pdata$__dcrt_get_narrow_environment_from_os 00000001803cb5cc     libucrt:get_environment_from_os.obj
 0004:000045d8       $pdata$__dcrt_get_wide_environment_from_os 00000001803cb5d8     libucrt:get_environment_from_os.obj
 0004:000045e4       $pdata$??$common_set_variable_in_environment_nolock@D@@YAHQEADH@Z 00000001803cb5e4     libucrt:setenv.obj
 0004:000045f0       $pdata$??$common_set_variable_in_environment_nolock@_W@@YAHQEA_WH@Z 00000001803cb5f0     libucrt:setenv.obj
 0004:000045fc       $pdata$??$copy_environment@D@@YAPEAPEADQEAPEAD@Z 00000001803cb5fc     libucrt:setenv.obj
 0004:00004608       $pdata$??$copy_environment@_W@@YAPEAPEA_WQEAPEA_W@Z 00000001803cb608     libucrt:setenv.obj
 0004:00004614       $pdata$_recalloc_base      00000001803cb614     libucrt:recalloc.obj
 0004:00004620       $pdata$__acrt_initialize_heap 00000001803cb620     libucrt:heap_handle.obj
 0004:0000462c       $pdata$__acrt_execute_initializers 00000001803cb62c     libucrt:shared_initialization.obj
 0004:00004638       $pdata$__acrt_execute_uninitializers 00000001803cb638     libucrt:shared_initialization.obj
 0004:00004644       $pdata$__acrt_invoke_user_matherr 00000001803cb644     libucrt:matherr.obj
 0004:00004650       $pdata$__acrt_free_locale  00000001803cb650     libucrt:locale_refcounting.obj
 0004:0000465c       $pdata$__acrt_locale_free_lc_time_if_unreferenced 00000001803cb65c     libucrt:locale_refcounting.obj
 0004:00004668       $pdata$__acrt_release_locale_ref 00000001803cb668     libucrt:locale_refcounting.obj
 0004:00004674       $pdata$__acrt_update_thread_locale_data 00000001803cb674     libucrt:locale_refcounting.obj
 0004:00004680       $pdata$_updatetlocinfoEx_nolock 00000001803cb680     libucrt:locale_refcounting.obj
 0004:0000468c       $pdata$__acrt_fp_strflt_to_string 00000001803cb68c     libucrt:_fptostr.obj
 0004:00004698       $pdata$?divide@__crt_strtox@@YA_KAEAUbig_integer@1@AEBU21@@Z 00000001803cb698     libucrt:cfout.obj
 0004:000046a4       $pdata$5$?divide@__crt_strtox@@YA_KAEAUbig_integer@1@AEBU21@@Z 00000001803cb6a4     libucrt:cfout.obj
 0004:000046b0       $pdata$6$?divide@__crt_strtox@@YA_KAEAUbig_integer@1@AEBU21@@Z 00000001803cb6b0     libucrt:cfout.obj
 0004:000046bc       $pdata$__acrt_fltout       00000001803cb6bc     libucrt:cfout.obj
 0004:000046c8       $pdata$memcpy_s            00000001803cb6c8     libucrt:cfout.obj
 0004:000046d4       $pdata$_isatty             00000001803cb6d4     libucrt:isatty.obj
 0004:000046e0       $pdata$__acrt_locale_free_monetary 00000001803cb6e0     libucrt:initmon.obj
 0004:000046ec       $pdata$__acrt_locale_free_numeric 00000001803cb6ec     libucrt:initnum.obj
 0004:000046f8       $pdata$?free_crt_array_internal@@YAXQEAPEBX_K@Z 00000001803cb6f8     libucrt:inittime.obj
 0004:00004704       $pdata$__acrt_locale_free_time 00000001803cb704     libucrt:inittime.obj
 0004:00004710       $pdata$__acrt_GetStringTypeA 00000001803cb710     libucrt:getstringtypea.obj
 0004:0000471c       $pdata$?GetTableIndexFromLocaleName@@YAHPEB_W@Z 00000001803cb71c     libucrt:lcidtoname_downlevel.obj
 0004:00004728       $pdata$__acrt_DownlevelLocaleNameToLCID 00000001803cb728     libucrt:lcidtoname_downlevel.obj
 0004:00004734       $pdata$__acrt_CompareStringW 00000001803cb734     libucrt:comparestringw.obj
 0004:00004740       $pdata$?InternalCompareStringA@@YAHPEAU__crt_locale_pointers@@PEB_WKPEBDH2HH@Z 00000001803cb740     libucrt:comparestringa.obj
 0004:0000474c       $pdata$__acrt_CompareStringA 00000001803cb74c     libucrt:comparestringa.obj
 0004:00004758       $pdata$__acrt_stdio_allocate_buffer_nolock 00000001803cb758     libucrt:_getbuf.obj
 0004:00004764       $pdata$??$common_sopen_dispatch@D@@YAHQEBDHHHQEAHH@Z 00000001803cb764     libucrt:open.obj
 0004:00004770       $pdata$?configure_text_mode@@YAHHUfile_options@?A0x656cf9f4@@HAEAW4__crt_lowio_text_mode@@@Z 00000001803cb770     libucrt:open.obj
 0004:0000477c       $pdata$?decode_options@@YA?AUfile_options@?A0x656cf9f4@@HHH@Z 00000001803cb77c     libucrt:open.obj
 0004:00004788       $pdata$?truncate_ctrl_z_if_present@@YAHH@Z 00000001803cb788     libucrt:open.obj
 0004:00004794       $pdata$_sopen_nolock       00000001803cb794     libucrt:open.obj
 0004:000047a0       $pdata$_sopen_s            00000001803cb7a0     libucrt:open.obj
 0004:000047ac       $pdata$_wsopen_nolock      00000001803cb7ac     libucrt:open.obj
 0004:000047b8       $pdata$_putwch_nolock      00000001803cb7b8     libucrt:putwch.obj
 0004:000047c4       $pdata$_towlower_l         00000001803cb7c4     libucrt:towlower.obj
 0004:000047d0       $pdata$_clearfp            00000001803cb7d0     libucrt:ieee.obj
 0004:000047dc       $pdata$common_control87    00000001803cb7dc     libucrt:ieee.obj
 0004:000047f4       $pdata$strpbrk             00000001803cb7f4     libucrt:strpbrk.obj
 0004:00004800       $pdata$_mbsdec_l           00000001803cb800     libucrt:mbsdec.obj
 0004:0000480c       $pdata$?initialize_multibyte@@YAHXZ 00000001803cb80c     libucrt:multibyte_initializer.obj
 0004:00004818       $pdata$_msize              00000001803cb818     libucrt:msize.obj
 0004:00004824       $pdata$fegetenv            00000001803cb824     libucrt:fegetenv.obj
 0004:00004830       $pdata$fesetenv            00000001803cb830     libucrt:fesetenv.obj
 0004:0000483c       $pdata$feholdexcept        00000001803cb83c     libucrt:feholdexcept.obj
 0004:00004854       $pdata$_get_fmode          00000001803cb854     libucrt:setmode.obj
 0004:00004860       $pdata$_setmode_nolock     00000001803cb860     libucrt:setmode.obj
 0004:0000486c       $pdata$_chsize_nolock      00000001803cb86c     libucrt:chsize.obj
 0004:00004878       $pdata$__dcrt_lowio_initialize_console_output 00000001803cb878     libucrt:initcon.obj
 0004:00004884       $pdata$__dcrt_terminate_console_output 00000001803cb884     libucrt:initcon.obj
 0004:00004890       $pdata$__acrt_LCMapStringW 00000001803cb890     libucrt:lcmapstringw.obj
 0004:0000489c       $pdata$_call_matherr       00000001803cb89c     libucrt:libm_error.obj
 0004:000048a8       $pdata$_exception_enabled  00000001803cb8a8     libucrt:libm_error.obj
 0004:000048b4       $pdata$_handle_error       00000001803cb8b4     libucrt:libm_error.obj
 0004:000048c0       $pdata$__acrt_initialize_fma3 00000001803cb8c0     libucrt:fma3_available.obj
 0004:000048cc       $pdata$_log10_special      00000001803cb8cc     libucrt:log_special.obj
 0004:000048d8       $pdata$_log_special        00000001803cb8d8     libucrt:log_special.obj
 0004:000048e4       $pdata$_log_special_common 00000001803cb8e4     libucrt:log_special.obj
 0004:000048f0       $pdata$_raise_exc          00000001803cb8f0     libucrt:fpexcept.obj
 0004:000048fc       $pdata$_raise_exc_ex       00000001803cb8fc     libucrt:fpexcept.obj
 0004:00004908       $pdata$_set_errno_from_matherr 00000001803cb908     libucrt:fpexcept.obj
 0004:00004914       $pdata$_clrfp              00000001803cb914     libucrt:fpctrl.obj
 0004:00004920       $pdata$_ctrlfp             00000001803cb920     libucrt:fpctrl.obj
 0004:0000492c       $pdata$_set_statfp         00000001803cb92c     libucrt:fpctrl.obj
 0004:00004938       $pdata$_statfp             00000001803cb938     libucrt:fpctrl.obj
 0004:00004944       $pdata$?DloadAcquireSectionWriteAccess@@YAXXZ 00000001803cb944     DelayImp:delayhlp.obj
 0004:00004950       $pdata$?DloadGetSRWLockFunctionPointers@@YAEXZ 00000001803cb950     DelayImp:delayhlp.obj
 0004:0000495c       $pdata$?DloadMakePermanentImageCommit@@YAXPEAX_K@Z 00000001803cb95c     DelayImp:delayhlp.obj
 0004:00004968       $pdata$?DloadObtainSection@@YAPEAXPEAK0@Z 00000001803cb968     DelayImp:delayhlp.obj
 0004:00004974       $pdata$?DloadProtectSection@@YAXKPEAK@Z 00000001803cb974     DelayImp:delayhlp.obj
 0004:00004980       $pdata$?DloadReleaseSectionWriteAccess@@YAXXZ 00000001803cb980     DelayImp:delayhlp.obj
 0004:0000498c       $pdata$__delayLoadHelper2  00000001803cb98c     DelayImp:delayhlp.obj
 0004:00004998       $pdata$_IsNonwritableInCurrentImage 00000001803cb998     LIBCMT:pesect.obj
 0004:000049a4       $pdata$__GSHandlerCheck    00000001803cb9a4     LIBCMT:_gshandler_.obj
 0004:000049b0       $pdata$__GSHandlerCheckCommon 00000001803cb9b0     LIBCMT:_gshandler_.obj
 0004:000049c8       $pdata$wcschr              00000001803cb9c8     libvcruntime:wcschr.obj
 0004:00004a10       $pdata$_pow_special        00000001803cba10     libucrt:pow_special.obj
 0004:00004a28       $pdata$__scrt_is_nonwritable_in_current_image$filt$0 00000001803cba28     LIBCMT:utility.obj
 0004:00004a34       $pdata$?fin$0@?0??dllmain_crt_process_attach@@YAHQEAUHINSTANCE__@@QEAX@Z@4HA 00000001803cba34     LIBCMT:dll_dllmain.obj
 0004:00004a40       $pdata$?fin$0@?0??dllmain_crt_process_detach@@YAH_N@Z@4HA 00000001803cba40     LIBCMT:dll_dllmain.obj
 0004:00004a4c       $pdata$?filt$0@?0??dllmain_dispatch@@YAHQEAUHINSTANCE__@@KQEAX@Z@4HA 00000001803cba4c     LIBCMT:dll_dllmain.obj
 0004:00004a58       $pdata$?filt$0@?0??common_exit@@YAXHW4_crt_exit_cleanup_mode@@W4_crt_exit_return_mode@@@Z@4HA 00000001803cba58     libucrt:exit.obj
 0004:00004a64       $pdata$?fin$1@?0??common_exit@@YAXHW4_crt_exit_cleanup_mode@@W4_crt_exit_return_mode@@@Z@4HA 00000001803cba64     libucrt:exit.obj
 0004:00004a70       $pdata$?fin$0@?0???$common_getenv_s@D@@YAHQEA_KQEAD_KQEBD@Z@4HA 00000001803cba70     libucrt:getenv.obj
 0004:00004a7c       $pdata$raise$fin$0         00000001803cba7c     libucrt:signal.obj
 0004:00004a88       $pdata$signal$fin$0        00000001803cba88     libucrt:signal.obj
 0004:00004a88       $pdata$?fin$0@?0??ctrlevent_capture@@YAHK@Z@4HA 00000001803cba88     libucrt:signal.obj
 0004:00004a94       $pdata$fputc$fin$0         00000001803cba94     libucrt:fputc.obj
 0004:00004aa0       $pdata$?fin$0@?0???$common_fgets@D@@YAPEADQEADHV__crt_stdio_stream@@@Z@4HA 00000001803cbaa0     libucrt:fgets.obj
 0004:00004aac       $pdata$?fin$0@?0???$?RV<lambda_a81aa23bb2c9577c1e55b9d0b57d9de4>@@AEAV<lambda_9a20e10065b92b5193c3597a66cba9d4>@@V<lambda_cb3a421ff86d8a5f008440ee6b28fa9c>@@@?$__crt_seh_guarded_call@H@@QEAAH$$QEAV<lambda_a81aa23bb2c9577c1e55b9d0b57d9de4>@@AEAV<lambda_9a20e10065b92b5193c3597a66cba9d4>@@$$QEAV<lambda_cb3a421ff86d8a5f008440ee6b28fa9c>@@@Z@4HA 00000001803cbaac     libucrt:fputs.obj
 0004:00004aac       $pdata$?fin$0@?0???$?RV<lambda_25e01c9ba3607ae47bf7ea803dd53646>@@AEAV<lambda_55f9cbce55698c0319f95c01c080475b>@@V<lambda_1e572b46264c157efb34a6cfecbbfc9c>@@@?$__crt_seh_guarded_call@H@@QEAAH$$QEAV<lambda_25e01c9ba3607ae47bf7ea803dd53646>@@AEAV<lambda_55f9cbce55698c0319f95c01c080475b>@@$$QEAV<lambda_1e572b46264c157efb34a6cfecbbfc9c>@@@Z@4HA 00000001803cbaac     libucrt:puts.obj
 0004:00004aac       $pdata$?fin$0@?0???$?RV<lambda_7b91131dde12e1c3dfc74ff76b3f2eac>@@AEAV<lambda_dd75445284c072d0bd3768540cc698fa>@@V<lambda_16bc4ecb55b4718497c16bceaea2ceaf>@@@?$__crt_seh_guarded_call@H@@QEAAH$$QEAV<lambda_7b91131dde12e1c3dfc74ff76b3f2eac>@@AEAV<lambda_dd75445284c072d0bd3768540cc698fa>@@$$QEAV<lambda_16bc4ecb55b4718497c16bceaea2ceaf>@@@Z@4HA 00000001803cbaac     libucrt:output.obj
 0004:00004aac       $pdata$?fin$0@?0???$?RV<lambda_aa279a7bcb127014629d5b1d62c7325d>@@AEAV<lambda_0a64b6a4deda75c01876f29c44fc5eb3>@@V<lambda_3323e69fbefe9d1a11713e670d47cdfa>@@@?$__crt_seh_guarded_call@H@@QEAAH$$QEAV<lambda_aa279a7bcb127014629d5b1d62c7325d>@@AEAV<lambda_0a64b6a4deda75c01876f29c44fc5eb3>@@$$QEAV<lambda_3323e69fbefe9d1a11713e670d47cdfa>@@@Z@4HA 00000001803cbaac     libucrt:output.obj
 0004:00004aac       $pdata$?fin$0@?0???$?RV<lambda_7a5ef57ff966f610505f1d28a3d40618>@@AEAV<lambda_b721fa326cdb32351d23dfa67958c160>@@V<lambda_5e0fb27672408a07956fe59e48ccb2aa>@@@?$__crt_seh_guarded_call@H@@QEAAH$$QEAV<lambda_7a5ef57ff966f610505f1d28a3d40618>@@AEAV<lambda_b721fa326cdb32351d23dfa67958c160>@@$$QEAV<lambda_5e0fb27672408a07956fe59e48ccb2aa>@@@Z@4HA 00000001803cbaac     libucrt:setvbuf.obj
 0004:00004ab8       $pdata$_isindst$fin$0      00000001803cbab8     libucrt:tzset.obj
 0004:00004ab8       $pdata$__tzset$fin$0       00000001803cbab8     libucrt:tzset.obj
 0004:00004ab8       $pdata$_tzset$fin$0        00000001803cbab8     libucrt:tzset.obj
 0004:00004ac4       $pdata$?fin$0@?0???$?RV<lambda_bfedae4ebbf01fab1bb6dcc6a9e276e0>@@AEAV<lambda_2fe9b910cf3cbf4a0ab98a02ba45b3ec>@@V<lambda_237c231691f317818eb88cc1d5d642d6>@@@?$__crt_seh_guarded_call@H@@QEAAH$$QEAV<lambda_bfedae4ebbf01fab1bb6dcc6a9e276e0>@@AEAV<lambda_2fe9b910cf3cbf4a0ab98a02ba45b3ec>@@$$QEAV<lambda_237c231691f317818eb88cc1d5d642d6>@@@Z@4HA 00000001803cbac4     libucrt:close.obj
 0004:00004ac4       $pdata$?fin$0@?0???$?RV<lambda_b521505b218e5242e90febf6bfebc422>@@AEAV<lambda_6978c1fb23f02e42e1d9e99668cc68aa>@@V<lambda_314360699dd331753a4119843814e9a7>@@@?$__crt_seh_guarded_call@H@@QEAAH$$QEAV<lambda_b521505b218e5242e90febf6bfebc422>@@AEAV<lambda_6978c1fb23f02e42e1d9e99668cc68aa>@@$$QEAV<lambda_314360699dd331753a4119843814e9a7>@@@Z@4HA 00000001803cbac4     libucrt:commit.obj
 0004:00004ad0       $pdata$__acrt_initialize_lowio$fin$0 00000001803cbad0     libucrt:ioinit.obj
 0004:00004ad0       $pdata$_alloc_osfhnd$fin$0 00000001803cbad0     libucrt:osfinfo.obj
 0004:00004ad0       $pdata$__acrt_lowio_ensure_fh_exists$fin$0 00000001803cbad0     libucrt:osfinfo.obj
 0004:00004adc       $pdata$common_flush_all$fin$0 00000001803cbadc     libucrt:fflush.obj
 0004:00004ae8       $pdata$common_flush_all$fin$1 00000001803cbae8     libucrt:fflush.obj
 0004:00004af4       $pdata$fflush$fin$0        00000001803cbaf4     libucrt:fflush.obj
 0004:00004af4       $pdata$fclose$fin$0        00000001803cbaf4     libucrt:fclose.obj
 0004:00004b00       $pdata$?fin$0@?0???$common_fsopen@D@@YAPEAU_iobuf@@QEBD0H@Z@4HA 00000001803cbb00     libucrt:fopen.obj
 0004:00004b0c       $pdata$_query_new_handler$fin$0 00000001803cbb0c     libucrt:new_handler.obj
 0004:00004b18       $pdata$?fin$0@?0???$?RV<lambda_e24bbb7b643b32fcea6fa61b31d4c984>@@AEAV<lambda_275893d493268fdec8709772e3fcec0e>@@V<lambda_9d71df4d7cf3f480f8d633942495c3b0>@@@?$__crt_seh_guarded_call@H@@QEAAH$$QEAV<lambda_e24bbb7b643b32fcea6fa61b31d4c984>@@AEAV<lambda_275893d493268fdec8709772e3fcec0e>@@$$QEAV<lambda_9d71df4d7cf3f480f8d633942495c3b0>@@@Z@4HA 00000001803cbb18     libucrt:onexit.obj
 0004:00004b24       $pdata$?fin$0@?0???$common_putenv@D@@YAHQEBD0@Z@4HA 00000001803cbb24     libucrt:putenv.obj
 0004:00004b24       $pdata$?fin$0@?0???$common_getenv@D@@YAPEADQEBD@Z@4HA 00000001803cbb24     libucrt:getenv.obj
 0004:00004b30       $pdata$?fin$0@?0???$?RV<lambda_99476a1ad63dd22509b5d3e65b0ffc95>@@AEAV<lambda_ad1ced32f4ac17aa236e5ef05d6b3b7c>@@V<lambda_f7424dd8d45958661754dc4f2697e9c3>@@@?$__crt_seh_guarded_call@X@@QEAAX$$QEAV<lambda_99476a1ad63dd22509b5d3e65b0ffc95>@@AEAV<lambda_ad1ced32f4ac17aa236e5ef05d6b3b7c>@@$$QEAV<lambda_f7424dd8d45958661754dc4f2697e9c3>@@@Z@4HA 00000001803cbb30     libucrt:mbctype.obj
 0004:00004b30       $pdata$?fin$0@?0???$?RV<lambda_fb3a7dec4e47f37f22dae91bb15c9095>@@AEAV<lambda_698284760c8add0bfb0756c19673e34b>@@V<lambda_dfb8eca1e75fef3034a8fb18dd509707>@@@?$__crt_seh_guarded_call@X@@QEAAX$$QEAV<lambda_fb3a7dec4e47f37f22dae91bb15c9095>@@AEAV<lambda_698284760c8add0bfb0756c19673e34b>@@$$QEAV<lambda_dfb8eca1e75fef3034a8fb18dd509707>@@@Z@4HA 00000001803cbb30     libucrt:per_thread_data.obj
 0004:00004b30       $pdata$?fin$0@?0???$?RV<lambda_46352004c1216016012b18bd6f87e700>@@AEAV<lambda_3bd07e1a1191394380780325891bf33f>@@V<lambda_334532d3f185bcaa59b5be82d7d22bff>@@@?$__crt_seh_guarded_call@X@@QEAAX$$QEAV<lambda_46352004c1216016012b18bd6f87e700>@@AEAV<lambda_3bd07e1a1191394380780325891bf33f>@@$$QEAV<lambda_334532d3f185bcaa59b5be82d7d22bff>@@@Z@4HA 00000001803cbb30     libucrt:per_thread_data.obj
 0004:00004b30       $pdata$?fin$0@?0???$?RV<lambda_b8c45f8f788dd370798f47cfe8ac3a86>@@AEAV<lambda_4e60a939b0d047cfe11ddc22648dfba9>@@V<lambda_332c3edc96d0294ec56c57d38c1cdfd5>@@@?$__crt_seh_guarded_call@H@@QEAAH$$QEAV<lambda_b8c45f8f788dd370798f47cfe8ac3a86>@@AEAV<lambda_4e60a939b0d047cfe11ddc22648dfba9>@@$$QEAV<lambda_332c3edc96d0294ec56c57d38c1cdfd5>@@@Z@4HA 00000001803cbb30     libucrt:onexit.obj
 0004:00004b30       $pdata$?fin$0@?0???$?RV<lambda_72d1df2b273a38828b1ce30cbf4cdab5>@@AEAV<lambda_876a65b173b8412d3a47c70a915b0cf4>@@V<lambda_41932305e351933ebe8f8be3ed8bb5dc>@@@?$__crt_seh_guarded_call@X@@QEAAX$$QEAV<lambda_72d1df2b273a38828b1ce30cbf4cdab5>@@AEAV<lambda_876a65b173b8412d3a47c70a915b0cf4>@@$$QEAV<lambda_41932305e351933ebe8f8be3ed8bb5dc>@@@Z@4HA 00000001803cbb30     libucrt:per_thread_data.obj
 0004:00004b30       $pdata$?fin$0@?0???$?RV<lambda_5e887d1dcbef67a5eb4283622ba103bf>@@AEAV<lambda_4466841279450cc726390878d4a41900>@@V<lambda_341c25c0346d94847f1f3c463c57e077>@@@?$__crt_seh_guarded_call@X@@QEAAX$$QEAV<lambda_5e887d1dcbef67a5eb4283622ba103bf>@@AEAV<lambda_4466841279450cc726390878d4a41900>@@$$QEAV<lambda_341c25c0346d94847f1f3c463c57e077>@@@Z@4HA 00000001803cbb30     libucrt:per_thread_data.obj
 0004:00004b30       $pdata$?fin$0@?0???$?RV<lambda_c36588078e9f5dfd39652860aa6b3aaf>@@AEAV<lambda_ec61778202f4f5fc7e7711acc23c3bca>@@V<lambda_dc9d2797ccde5d239b4a0efae8ebd7db>@@@?$__crt_seh_guarded_call@P6AXH@Z@@QEAAP6AXH@Z$$QEAV<lambda_c36588078e9f5dfd39652860aa6b3aaf>@@AEAV<lambda_ec61778202f4f5fc7e7711acc23c3bca>@@$$QEAV<lambda_dc9d2797ccde5d239b4a0efae8ebd7db>@@@Z@4HA 00000001803cbb30     libucrt:signal.obj
 0004:00004b3c       $pdata$__acrt_uninitialize_locale$fin$0 00000001803cbb3c     libucrt:wsetlocale.obj
 0004:00004b3c       $pdata$__acrt_update_thread_locale_data$fin$0 00000001803cbb3c     libucrt:locale_refcounting.obj
 0004:00004b48       $pdata$_fcloseall$fin$0    00000001803cbb48     libucrt:closeall.obj
 0004:00004b48       $pdata$?fin$0@?0??__acrt_stdio_allocate_stream@@YA?AV__crt_stdio_stream@@XZ@4HA 00000001803cbb48     libucrt:stream.obj
 0004:00004b54       $pdata$_write$fin$0        00000001803cbb54     libucrt:write.obj
 0004:00004b54       $pdata$_read$fin$0         00000001803cbb54     libucrt:read.obj
 0004:00004b54       $pdata$?fin$0@?0???$common_lseek@_J@@YA_JH_JH@Z@4HA 00000001803cbb54     libucrt:lseek.obj
 0004:00004b60       $pdata$__acrt_update_thread_multibyte_data$fin$0 00000001803cbb60     libucrt:mbctype.obj
 0004:00004b6c       $pdata$?fin$0@?0???$common_sopen_dispatch@D@@YAHQEBDHHHQEAHH@Z@4HA 00000001803cbb6c     libucrt:open.obj
 0004:00004b78       $pdata$_ctrlfp$filt$0      00000001803cbb78     libucrt:fpctrl.obj
 0004:00004b78       $pdata$common_control87$filt$0 00000001803cbb78     libucrt:ieee.obj
 0004:00004b84       $pdata$_IsNonwritableInCurrentImage$filt$0 00000001803cbb84     LIBCMT:pesect.obj
 0005:00000000       __guard_fids_signal        00000001803cc000     libucrt:signal.obj
 0005:00000004       __guard_fids__             00000001803cc004     libucrt:initialization.obj
 0005:00000064       __guard_fids___acrt_initialize_ptd 00000001803cc064     libucrt:per_thread_data.obj
 0005:00000068       __guard_fids___acrt_show_wide_message_box 00000001803cc068     libucrt:crtmbox.obj
 0005:0000006c       __guard_fids__             00000001803cc06c     libucrt:stdio_initializer.obj
 0005:00000070       __guard_fids__             00000001803cc070     libucrt:stdio_initializer.obj
 0005:00000074       __guard_fids_??$expand_argument_wildcards@D@@YAHQEAD0AEAV?$argument_list@D@?A0xca0879c4@@@Z 00000001803cc074     libucrt:argv_wildcards.obj
 0005:00000078       __guard_fids__             00000001803cc078     libucrt:locale_initializer.obj
 0005:0000007c       __guard_fids__             00000001803cc07c     libucrt:timeset_initializer.obj
 0005:00000080       __guard_fids__             00000001803cc080     libucrt:multibyte_initializer.obj
 0005:00000084       __guard_fids__             00000001803cc084     libucrt:console_output_initializer.obj
 0005:00000088       __guard_fids__             00000001803cc088     libucrt:fma3_initializer.obj
 0005:0000008c       __guard_fids_?dllmain_crt_process_attach@@YAHQEAUHINSTANCE__@@QEAX@Z 00000001803cc08c     LIBCMT:dll_dllmain.obj
 0005:00000094       __guard_fids_?dllmain_dispatch@@YAHQEAUHINSTANCE__@@KQEAX@Z 00000001803cc094     LIBCMT:dll_dllmain.obj
 0005:00000098       __guard_fids__             00000001803cc098     LIBCMT:throw_bad_alloc.obj
 0005:000000a0       __guard_fids__             00000001803cc0a0     LIBCMT:throw_bad_alloc.obj
 0005:000000a8       __guard_fids__             00000001803cc0a8     LIBCMT:throw_bad_alloc.obj
 0005:000000b0       __guard_fids__             00000001803cc0b0     LIBCMT:std_type_info_static.obj
 0005:000000b4       __guard_fids__             00000001803cc0b4     LIBCMT:guard_support.obj
 0005:000000b8       __guard_fids___vcrt_initialize_ptd 00000001803cc0b8     libvcruntime:per_thread_data.obj
 0006:00000060       $R000000                   00000001803cd060     * linker generated manifest res *

 Exports

  ordinal    name

        1    _register_sqlclient_
